

Microchip MPLAB XC8 Assembler V2.40 build 20220703182018 
                                                                                               Thu Oct 20 10:43:11 2022

Microchip MPLAB XC8 C Compiler v2.40 (Free license) build 20220703182018 Og1 
     1                           	processor	16F877A
     2                           	pagewidth 120
     3                           	opt	flic
     4                           	psect	idataBANK0,global,class=CODE,delta=2,noexec
     5                           	psect	idataBANK1,global,class=CODE,delta=2,noexec
     6                           	psect	strings,global,class=STRING,delta=2,noexec
     7                           	psect	stringtext,global,reloc=256,class=STRCODE,delta=2,noexec
     8                           	psect	cinit,global,class=CODE,merge=1,delta=2
     9                           	psect	bssCOMMON,global,class=COMMON,space=1,delta=1,noexec
    10                           	psect	bssBANK0,global,class=BANK0,space=1,delta=1,noexec
    11                           	psect	dataBANK0,global,class=BANK0,space=1,delta=1,noexec
    12                           	psect	bssBANK1,global,class=BANK1,space=1,delta=1,noexec
    13                           	psect	dataBANK1,global,class=BANK1,space=1,delta=1,noexec
    14                           	psect	inittext,global,class=CODE,delta=2
    15                           	psect	clrtext,global,class=CODE,delta=2
    16                           	psect	cstackBANK1,global,class=BANK1,space=1,delta=1,noexec
    17                           	psect	cstackCOMMON,global,class=COMMON,space=1,delta=1,noexec
    18                           	psect	cstackBANK0,global,class=BANK0,space=1,delta=1,noexec
    19                           	psect	maintext,global,class=CODE,split=1,delta=2
    20                           	psect	text1,local,class=CODE,merge=1,delta=2
    21                           	psect	text2,local,class=CODE,merge=1,delta=2,group=2
    22                           	psect	text3,local,class=CODE,merge=1,delta=2
    23                           	psect	text4,local,class=CODE,merge=1,delta=2
    24                           	psect	text5,local,class=CODE,merge=1,delta=2
    25                           	psect	text6,local,class=CODE,merge=1,delta=2
    26                           	psect	text7,local,class=CODE,merge=1,delta=2
    27                           	psect	text8,local,class=CODE,merge=1,delta=2
    28                           	psect	text9,local,class=CODE,merge=1,delta=2
    29                           	psect	text10,local,class=CODE,merge=1,delta=2
    30                           	psect	text11,local,class=CODE,merge=1,delta=2
    31                           	psect	text12,local,class=CODE,merge=1,delta=2
    32                           	psect	text13,local,class=CODE,merge=1,delta=2
    33                           	psect	text14,local,class=CODE,merge=1,delta=2,group=1
    34                           	psect	text15,local,class=CODE,merge=1,delta=2
    35                           	psect	text16,local,class=CODE,merge=1,delta=2
    36                           	psect	text17,local,class=CODE,merge=1,delta=2
    37                           	psect	text18,local,class=CODE,merge=1,delta=2
    38                           	psect	text19,local,class=CODE,merge=1,delta=2
    39                           	psect	text20,local,class=CODE,merge=1,delta=2
    40                           	psect	text21,local,class=CODE,merge=1,delta=2
    41                           	psect	text22,local,class=CODE,merge=1,delta=2
    42                           	psect	text23,local,class=CODE,merge=1,delta=2
    43                           	psect	text24,local,class=CODE,merge=1,delta=2,group=1
    44                           	psect	text25,local,class=CODE,merge=1,delta=2
    45                           	psect	text26,local,class=CODE,merge=1,delta=2
    46                           	psect	text27,local,class=CODE,merge=1,delta=2,group=1
    47                           	psect	text28,local,class=CODE,merge=1,delta=2,group=1
    48                           	psect	text29,local,class=CODE,merge=1,delta=2
    49                           	psect	text30,local,class=CODE,merge=1,delta=2
    50                           	psect	text31,local,class=CODE,merge=1,delta=2
    51                           	psect	text32,local,class=CODE,merge=1,delta=2
    52                           	psect	text33,local,class=CODE,merge=1,delta=2
    53                           	psect	text34,local,class=CODE,merge=1,delta=2
    54                           	psect	text35,local,class=CODE,merge=1,delta=2
    55                           	psect	text36,local,class=CODE,merge=1,delta=2,group=1
    56                           	psect	text37,local,class=CODE,merge=1,delta=2,group=1
    57                           	psect	text38,local,class=CODE,merge=1,delta=2,group=1
    58                           	psect	text39,local,class=CODE,merge=1,delta=2
    59                           	psect	text40,local,class=CODE,merge=1,delta=2,group=2
    60                           	psect	text41,local,class=CODE,merge=1,delta=2,group=2
    61                           	psect	text42,local,class=CODE,merge=1,delta=2
    62                           	psect	text43,local,class=CODE,merge=1,delta=2
    63                           	psect	text44,local,class=CODE,merge=1,delta=2
    64                           	psect	text45,local,class=CODE,merge=1,delta=2
    65                           	psect	text46,local,class=CODE,merge=1,delta=2
    66                           	psect	text47,local,class=CODE,merge=1,delta=2
    67                           	psect	text48,local,class=CODE,merge=1,delta=2
    68                           	psect	text49,local,class=CODE,merge=1,delta=2
    69                           	psect	text50,local,class=CODE,merge=1,delta=2
    70                           	psect	text51,local,class=CODE,merge=1,delta=2
    71                           	psect	intentry,global,class=CODE,delta=2
    72                           	psect	config,global,abs,ovrld,class=CONFIG,space=4,delta=2,noexec
    73                           	dabs	1,0x7E,2
    74     0000                     
    75                           ; Version 2.20
    76                           ; Generated 12/02/2020 GMT
    77                           ; 
    78                           ; Copyright © 2020, Microchip Technology Inc. and its subsidiaries ("Microchip")
    79                           ; All rights reserved.
    80                           ; 
    81                           ; This software is developed by Microchip Technology Inc. and its subsidiaries ("Microch
      +                          ip").
    82                           ; 
    83                           ; Redistribution and use in source and binary forms, with or without modification, are
    84                           ; permitted provided that the following conditions are met:
    85                           ; 
    86                           ;     1. Redistributions of source code must retain the above copyright notice, this lis
      +                          t of
    87                           ;        conditions and the following disclaimer.
    88                           ; 
    89                           ;     2. Redistributions in binary form must reproduce the above copyright notice, this 
      +                          list
    90                           ;        of conditions and the following disclaimer in the documentation and/or other
    91                           ;        materials provided with the distribution.
    92                           ; 
    93                           ;     3. Microchip's name may not be used to endorse or promote products derived from th
      +                          is
    94                           ;        software without specific prior written permission.
    95                           ; 
    96                           ; THIS SOFTWARE IS PROVIDED BY MICROCHIP "AS IS" AND ANY EXPRESS OR IMPLIED WARRANTIES,
    97                           ; INCLUDING, BUT NOT LIMITED TO, THE IMPLIED WARRANTIES OF MERCHANTABILITY AND FITNESS F
      +                          OR
    98                           ; PURPOSE ARE DISCLAIMED.  IN NO EVENT SHALL MICROCHIP BE LIABLE FOR ANY DIRECT, INDIREC
      +                          T,
    99                           ; INCIDENTAL, SPECIAL, EXEMPLARY, OR CONSEQUENTIAL DAMAGES (INCLUDING BUT NOT LIMITED TO
   100                           ; PROCUREMENT OF SUBSTITUTE GOODS OR SERVICES; LOSS OF USE, DATA OR PROFITS; OR BUSINESS
   101                           ; INTERRUPTION) HOWSOEVER CAUSED AND ON ANY THEORY OF LIABILITY, WHETHER IN CONTRACT, ST
      +                          RICT
   102                           ; LIABILITY, OR TORT (INCLUDING NEGLIGENCE OR OTHERWISE) ARISING IN ANY WAY OUT OF THE U
      +                          SE OF
   103                           ; THIS SOFTWARE, EVEN IF ADVISED OF THE POSSIBILITY OF SUCH DAMAGE.
   104                           ; 
   105                           ; 
   106                           ; Code-generator required, PIC16F877A Definitions
   107                           ; 
   108                           ; SFR Addresses
   109     0000                     	;# 
   110     0001                     	;# 
   111     0002                     	;# 
   112     0003                     	;# 
   113     0004                     	;# 
   114     0005                     	;# 
   115     0006                     	;# 
   116     0007                     	;# 
   117     0008                     	;# 
   118     0009                     	;# 
   119     000A                     	;# 
   120     000B                     	;# 
   121     000C                     	;# 
   122     000D                     	;# 
   123     000E                     	;# 
   124     000E                     	;# 
   125     000F                     	;# 
   126     0010                     	;# 
   127     0011                     	;# 
   128     0012                     	;# 
   129     0013                     	;# 
   130     0014                     	;# 
   131     0015                     	;# 
   132     0015                     	;# 
   133     0016                     	;# 
   134     0017                     	;# 
   135     0018                     	;# 
   136     0019                     	;# 
   137     001A                     	;# 
   138     001B                     	;# 
   139     001B                     	;# 
   140     001C                     	;# 
   141     001D                     	;# 
   142     001E                     	;# 
   143     001F                     	;# 
   144     0081                     	;# 
   145     0085                     	;# 
   146     0086                     	;# 
   147     0087                     	;# 
   148     0088                     	;# 
   149     0089                     	;# 
   150     008C                     	;# 
   151     008D                     	;# 
   152     008E                     	;# 
   153     0091                     	;# 
   154     0092                     	;# 
   155     0093                     	;# 
   156     0094                     	;# 
   157     0098                     	;# 
   158     0099                     	;# 
   159     009C                     	;# 
   160     009D                     	;# 
   161     009E                     	;# 
   162     009F                     	;# 
   163     010C                     	;# 
   164     010D                     	;# 
   165     010E                     	;# 
   166     010F                     	;# 
   167     018C                     	;# 
   168     018D                     	;# 
   169     0000                     	;# 
   170     0001                     	;# 
   171     0002                     	;# 
   172     0003                     	;# 
   173     0004                     	;# 
   174     0005                     	;# 
   175     0006                     	;# 
   176     0007                     	;# 
   177     0008                     	;# 
   178     0009                     	;# 
   179     000A                     	;# 
   180     000B                     	;# 
   181     000C                     	;# 
   182     000D                     	;# 
   183     000E                     	;# 
   184     000E                     	;# 
   185     000F                     	;# 
   186     0010                     	;# 
   187     0011                     	;# 
   188     0012                     	;# 
   189     0013                     	;# 
   190     0014                     	;# 
   191     0015                     	;# 
   192     0015                     	;# 
   193     0016                     	;# 
   194     0017                     	;# 
   195     0018                     	;# 
   196     0019                     	;# 
   197     001A                     	;# 
   198     001B                     	;# 
   199     001B                     	;# 
   200     001C                     	;# 
   201     001D                     	;# 
   202     001E                     	;# 
   203     001F                     	;# 
   204     0081                     	;# 
   205     0085                     	;# 
   206     0086                     	;# 
   207     0087                     	;# 
   208     0088                     	;# 
   209     0089                     	;# 
   210     008C                     	;# 
   211     008D                     	;# 
   212     008E                     	;# 
   213     0091                     	;# 
   214     0092                     	;# 
   215     0093                     	;# 
   216     0094                     	;# 
   217     0098                     	;# 
   218     0099                     	;# 
   219     009C                     	;# 
   220     009D                     	;# 
   221     009E                     	;# 
   222     009F                     	;# 
   223     010C                     	;# 
   224     010D                     	;# 
   225     010E                     	;# 
   226     010F                     	;# 
   227     018C                     	;# 
   228     018D                     	;# 
   229     0000                     	;# 
   230     0001                     	;# 
   231     0002                     	;# 
   232     0003                     	;# 
   233     0004                     	;# 
   234     0005                     	;# 
   235     0006                     	;# 
   236     0007                     	;# 
   237     0008                     	;# 
   238     0009                     	;# 
   239     000A                     	;# 
   240     000B                     	;# 
   241     000C                     	;# 
   242     000D                     	;# 
   243     000E                     	;# 
   244     000E                     	;# 
   245     000F                     	;# 
   246     0010                     	;# 
   247     0011                     	;# 
   248     0012                     	;# 
   249     0013                     	;# 
   250     0014                     	;# 
   251     0015                     	;# 
   252     0015                     	;# 
   253     0016                     	;# 
   254     0017                     	;# 
   255     0018                     	;# 
   256     0019                     	;# 
   257     001A                     	;# 
   258     001B                     	;# 
   259     001B                     	;# 
   260     001C                     	;# 
   261     001D                     	;# 
   262     001E                     	;# 
   263     001F                     	;# 
   264     0081                     	;# 
   265     0085                     	;# 
   266     0086                     	;# 
   267     0087                     	;# 
   268     0088                     	;# 
   269     0089                     	;# 
   270     008C                     	;# 
   271     008D                     	;# 
   272     008E                     	;# 
   273     0091                     	;# 
   274     0092                     	;# 
   275     0093                     	;# 
   276     0094                     	;# 
   277     0098                     	;# 
   278     0099                     	;# 
   279     009C                     	;# 
   280     009D                     	;# 
   281     009E                     	;# 
   282     009F                     	;# 
   283     010C                     	;# 
   284     010D                     	;# 
   285     010E                     	;# 
   286     010F                     	;# 
   287     018C                     	;# 
   288     018D                     	;# 
   289     0000                     	;# 
   290     0001                     	;# 
   291     0002                     	;# 
   292     0003                     	;# 
   293     0004                     	;# 
   294     0005                     	;# 
   295     0006                     	;# 
   296     0007                     	;# 
   297     0008                     	;# 
   298     0009                     	;# 
   299     000A                     	;# 
   300     000B                     	;# 
   301     000C                     	;# 
   302     000D                     	;# 
   303     000E                     	;# 
   304     000E                     	;# 
   305     000F                     	;# 
   306     0010                     	;# 
   307     0011                     	;# 
   308     0012                     	;# 
   309     0013                     	;# 
   310     0014                     	;# 
   311     0015                     	;# 
   312     0015                     	;# 
   313     0016                     	;# 
   314     0017                     	;# 
   315     0018                     	;# 
   316     0019                     	;# 
   317     001A                     	;# 
   318     001B                     	;# 
   319     001B                     	;# 
   320     001C                     	;# 
   321     001D                     	;# 
   322     001E                     	;# 
   323     001F                     	;# 
   324     0081                     	;# 
   325     0085                     	;# 
   326     0086                     	;# 
   327     0087                     	;# 
   328     0088                     	;# 
   329     0089                     	;# 
   330     008C                     	;# 
   331     008D                     	;# 
   332     008E                     	;# 
   333     0091                     	;# 
   334     0092                     	;# 
   335     0093                     	;# 
   336     0094                     	;# 
   337     0098                     	;# 
   338     0099                     	;# 
   339     009C                     	;# 
   340     009D                     	;# 
   341     009E                     	;# 
   342     009F                     	;# 
   343     010C                     	;# 
   344     010D                     	;# 
   345     010E                     	;# 
   346     010F                     	;# 
   347     018C                     	;# 
   348     018D                     	;# 
   349     0000                     	;# 
   350     0001                     	;# 
   351     0002                     	;# 
   352     0003                     	;# 
   353     0004                     	;# 
   354     0005                     	;# 
   355     0006                     	;# 
   356     0007                     	;# 
   357     0008                     	;# 
   358     0009                     	;# 
   359     000A                     	;# 
   360     000B                     	;# 
   361     000C                     	;# 
   362     000D                     	;# 
   363     000E                     	;# 
   364     000E                     	;# 
   365     000F                     	;# 
   366     0010                     	;# 
   367     0011                     	;# 
   368     0012                     	;# 
   369     0013                     	;# 
   370     0014                     	;# 
   371     0015                     	;# 
   372     0015                     	;# 
   373     0016                     	;# 
   374     0017                     	;# 
   375     0018                     	;# 
   376     0019                     	;# 
   377     001A                     	;# 
   378     001B                     	;# 
   379     001B                     	;# 
   380     001C                     	;# 
   381     001D                     	;# 
   382     001E                     	;# 
   383     001F                     	;# 
   384     0081                     	;# 
   385     0085                     	;# 
   386     0086                     	;# 
   387     0087                     	;# 
   388     0088                     	;# 
   389     0089                     	;# 
   390     008C                     	;# 
   391     008D                     	;# 
   392     008E                     	;# 
   393     0091                     	;# 
   394     0092                     	;# 
   395     0093                     	;# 
   396     0094                     	;# 
   397     0098                     	;# 
   398     0099                     	;# 
   399     009C                     	;# 
   400     009D                     	;# 
   401     009E                     	;# 
   402     009F                     	;# 
   403     010C                     	;# 
   404     010D                     	;# 
   405     010E                     	;# 
   406     010F                     	;# 
   407     018C                     	;# 
   408     018D                     	;# 
   409     0000                     	;# 
   410     0001                     	;# 
   411     0002                     	;# 
   412     0003                     	;# 
   413     0004                     	;# 
   414     0005                     	;# 
   415     0006                     	;# 
   416     0007                     	;# 
   417     0008                     	;# 
   418     0009                     	;# 
   419     000A                     	;# 
   420     000B                     	;# 
   421     000C                     	;# 
   422     000D                     	;# 
   423     000E                     	;# 
   424     000E                     	;# 
   425     000F                     	;# 
   426     0010                     	;# 
   427     0011                     	;# 
   428     0012                     	;# 
   429     0013                     	;# 
   430     0014                     	;# 
   431     0015                     	;# 
   432     0015                     	;# 
   433     0016                     	;# 
   434     0017                     	;# 
   435     0018                     	;# 
   436     0019                     	;# 
   437     001A                     	;# 
   438     001B                     	;# 
   439     001B                     	;# 
   440     001C                     	;# 
   441     001D                     	;# 
   442     001E                     	;# 
   443     001F                     	;# 
   444     0081                     	;# 
   445     0085                     	;# 
   446     0086                     	;# 
   447     0087                     	;# 
   448     0088                     	;# 
   449     0089                     	;# 
   450     008C                     	;# 
   451     008D                     	;# 
   452     008E                     	;# 
   453     0091                     	;# 
   454     0092                     	;# 
   455     0093                     	;# 
   456     0094                     	;# 
   457     0098                     	;# 
   458     0099                     	;# 
   459     009C                     	;# 
   460     009D                     	;# 
   461     009E                     	;# 
   462     009F                     	;# 
   463     010C                     	;# 
   464     010D                     	;# 
   465     010E                     	;# 
   466     010F                     	;# 
   467     018C                     	;# 
   468     018D                     	;# 
   469     0000                     	;# 
   470     0001                     	;# 
   471     0002                     	;# 
   472     0003                     	;# 
   473     0004                     	;# 
   474     0005                     	;# 
   475     0006                     	;# 
   476     0007                     	;# 
   477     0008                     	;# 
   478     0009                     	;# 
   479     000A                     	;# 
   480     000B                     	;# 
   481     000C                     	;# 
   482     000D                     	;# 
   483     000E                     	;# 
   484     000E                     	;# 
   485     000F                     	;# 
   486     0010                     	;# 
   487     0011                     	;# 
   488     0012                     	;# 
   489     0013                     	;# 
   490     0014                     	;# 
   491     0015                     	;# 
   492     0015                     	;# 
   493     0016                     	;# 
   494     0017                     	;# 
   495     0018                     	;# 
   496     0019                     	;# 
   497     001A                     	;# 
   498     001B                     	;# 
   499     001B                     	;# 
   500     001C                     	;# 
   501     001D                     	;# 
   502     001E                     	;# 
   503     001F                     	;# 
   504     0081                     	;# 
   505     0085                     	;# 
   506     0086                     	;# 
   507     0087                     	;# 
   508     0088                     	;# 
   509     0089                     	;# 
   510     008C                     	;# 
   511     008D                     	;# 
   512     008E                     	;# 
   513     0091                     	;# 
   514     0092                     	;# 
   515     0093                     	;# 
   516     0094                     	;# 
   517     0098                     	;# 
   518     0099                     	;# 
   519     009C                     	;# 
   520     009D                     	;# 
   521     009E                     	;# 
   522     009F                     	;# 
   523     010C                     	;# 
   524     010D                     	;# 
   525     010E                     	;# 
   526     010F                     	;# 
   527     018C                     	;# 
   528     018D                     	;# 
   529     0000                     	;# 
   530     0001                     	;# 
   531     0002                     	;# 
   532     0003                     	;# 
   533     0004                     	;# 
   534     0005                     	;# 
   535     0006                     	;# 
   536     0007                     	;# 
   537     0008                     	;# 
   538     0009                     	;# 
   539     000A                     	;# 
   540     000B                     	;# 
   541     000C                     	;# 
   542     000D                     	;# 
   543     000E                     	;# 
   544     000E                     	;# 
   545     000F                     	;# 
   546     0010                     	;# 
   547     0011                     	;# 
   548     0012                     	;# 
   549     0013                     	;# 
   550     0014                     	;# 
   551     0015                     	;# 
   552     0015                     	;# 
   553     0016                     	;# 
   554     0017                     	;# 
   555     0018                     	;# 
   556     0019                     	;# 
   557     001A                     	;# 
   558     001B                     	;# 
   559     001B                     	;# 
   560     001C                     	;# 
   561     001D                     	;# 
   562     001E                     	;# 
   563     001F                     	;# 
   564     0081                     	;# 
   565     0085                     	;# 
   566     0086                     	;# 
   567     0087                     	;# 
   568     0088                     	;# 
   569     0089                     	;# 
   570     008C                     	;# 
   571     008D                     	;# 
   572     008E                     	;# 
   573     0091                     	;# 
   574     0092                     	;# 
   575     0093                     	;# 
   576     0094                     	;# 
   577     0098                     	;# 
   578     0099                     	;# 
   579     009C                     	;# 
   580     009D                     	;# 
   581     009E                     	;# 
   582     009F                     	;# 
   583     010C                     	;# 
   584     010D                     	;# 
   585     010E                     	;# 
   586     010F                     	;# 
   587     018C                     	;# 
   588     018D                     	;# 
   589     0000                     	;# 
   590     0001                     	;# 
   591     0002                     	;# 
   592     0003                     	;# 
   593     0004                     	;# 
   594     0005                     	;# 
   595     0006                     	;# 
   596     0007                     	;# 
   597     0008                     	;# 
   598     0009                     	;# 
   599     000A                     	;# 
   600     000B                     	;# 
   601     000C                     	;# 
   602     000D                     	;# 
   603     000E                     	;# 
   604     000E                     	;# 
   605     000F                     	;# 
   606     0010                     	;# 
   607     0011                     	;# 
   608     0012                     	;# 
   609     0013                     	;# 
   610     0014                     	;# 
   611     0015                     	;# 
   612     0015                     	;# 
   613     0016                     	;# 
   614     0017                     	;# 
   615     0018                     	;# 
   616     0019                     	;# 
   617     001A                     	;# 
   618     001B                     	;# 
   619     001B                     	;# 
   620     001C                     	;# 
   621     001D                     	;# 
   622     001E                     	;# 
   623     001F                     	;# 
   624     0081                     	;# 
   625     0085                     	;# 
   626     0086                     	;# 
   627     0087                     	;# 
   628     0088                     	;# 
   629     0089                     	;# 
   630     008C                     	;# 
   631     008D                     	;# 
   632     008E                     	;# 
   633     0091                     	;# 
   634     0092                     	;# 
   635     0093                     	;# 
   636     0094                     	;# 
   637     0098                     	;# 
   638     0099                     	;# 
   639     009C                     	;# 
   640     009D                     	;# 
   641     009E                     	;# 
   642     009F                     	;# 
   643     010C                     	;# 
   644     010D                     	;# 
   645     010E                     	;# 
   646     010F                     	;# 
   647     018C                     	;# 
   648     018D                     	;# 
   649     0000                     	;# 
   650     0001                     	;# 
   651     0002                     	;# 
   652     0003                     	;# 
   653     0004                     	;# 
   654     0005                     	;# 
   655     0006                     	;# 
   656     0007                     	;# 
   657     0008                     	;# 
   658     0009                     	;# 
   659     000A                     	;# 
   660     000B                     	;# 
   661     000C                     	;# 
   662     000D                     	;# 
   663     000E                     	;# 
   664     000E                     	;# 
   665     000F                     	;# 
   666     0010                     	;# 
   667     0011                     	;# 
   668     0012                     	;# 
   669     0013                     	;# 
   670     0014                     	;# 
   671     0015                     	;# 
   672     0015                     	;# 
   673     0016                     	;# 
   674     0017                     	;# 
   675     0018                     	;# 
   676     0019                     	;# 
   677     001A                     	;# 
   678     001B                     	;# 
   679     001B                     	;# 
   680     001C                     	;# 
   681     001D                     	;# 
   682     001E                     	;# 
   683     001F                     	;# 
   684     0081                     	;# 
   685     0085                     	;# 
   686     0086                     	;# 
   687     0087                     	;# 
   688     0088                     	;# 
   689     0089                     	;# 
   690     008C                     	;# 
   691     008D                     	;# 
   692     008E                     	;# 
   693     0091                     	;# 
   694     0092                     	;# 
   695     0093                     	;# 
   696     0094                     	;# 
   697     0098                     	;# 
   698     0099                     	;# 
   699     009C                     	;# 
   700     009D                     	;# 
   701     009E                     	;# 
   702     009F                     	;# 
   703     010C                     	;# 
   704     010D                     	;# 
   705     010E                     	;# 
   706     010F                     	;# 
   707     018C                     	;# 
   708     018D                     	;# 
   709     0000                     	;# 
   710     0001                     	;# 
   711     0002                     	;# 
   712     0003                     	;# 
   713     0004                     	;# 
   714     0005                     	;# 
   715     0006                     	;# 
   716     0007                     	;# 
   717     0008                     	;# 
   718     0009                     	;# 
   719     000A                     	;# 
   720     000B                     	;# 
   721     000C                     	;# 
   722     000D                     	;# 
   723     000E                     	;# 
   724     000E                     	;# 
   725     000F                     	;# 
   726     0010                     	;# 
   727     0011                     	;# 
   728     0012                     	;# 
   729     0013                     	;# 
   730     0014                     	;# 
   731     0015                     	;# 
   732     0015                     	;# 
   733     0016                     	;# 
   734     0017                     	;# 
   735     0018                     	;# 
   736     0019                     	;# 
   737     001A                     	;# 
   738     001B                     	;# 
   739     001B                     	;# 
   740     001C                     	;# 
   741     001D                     	;# 
   742     001E                     	;# 
   743     001F                     	;# 
   744     0081                     	;# 
   745     0085                     	;# 
   746     0086                     	;# 
   747     0087                     	;# 
   748     0088                     	;# 
   749     0089                     	;# 
   750     008C                     	;# 
   751     008D                     	;# 
   752     008E                     	;# 
   753     0091                     	;# 
   754     0092                     	;# 
   755     0093                     	;# 
   756     0094                     	;# 
   757     0098                     	;# 
   758     0099                     	;# 
   759     009C                     	;# 
   760     009D                     	;# 
   761     009E                     	;# 
   762     009F                     	;# 
   763     010C                     	;# 
   764     010D                     	;# 
   765     010E                     	;# 
   766     010F                     	;# 
   767     018C                     	;# 
   768     018D                     	;# 
   769     0000                     	;# 
   770     0001                     	;# 
   771     0002                     	;# 
   772     0003                     	;# 
   773     0004                     	;# 
   774     0005                     	;# 
   775     0006                     	;# 
   776     0007                     	;# 
   777     0008                     	;# 
   778     0009                     	;# 
   779     000A                     	;# 
   780     000B                     	;# 
   781     000C                     	;# 
   782     000D                     	;# 
   783     000E                     	;# 
   784     000E                     	;# 
   785     000F                     	;# 
   786     0010                     	;# 
   787     0011                     	;# 
   788     0012                     	;# 
   789     0013                     	;# 
   790     0014                     	;# 
   791     0015                     	;# 
   792     0015                     	;# 
   793     0016                     	;# 
   794     0017                     	;# 
   795     0018                     	;# 
   796     0019                     	;# 
   797     001A                     	;# 
   798     001B                     	;# 
   799     001B                     	;# 
   800     001C                     	;# 
   801     001D                     	;# 
   802     001E                     	;# 
   803     001F                     	;# 
   804     0081                     	;# 
   805     0085                     	;# 
   806     0086                     	;# 
   807     0087                     	;# 
   808     0088                     	;# 
   809     0089                     	;# 
   810     008C                     	;# 
   811     008D                     	;# 
   812     008E                     	;# 
   813     0091                     	;# 
   814     0092                     	;# 
   815     0093                     	;# 
   816     0094                     	;# 
   817     0098                     	;# 
   818     0099                     	;# 
   819     009C                     	;# 
   820     009D                     	;# 
   821     009E                     	;# 
   822     009F                     	;# 
   823     010C                     	;# 
   824     010D                     	;# 
   825     010E                     	;# 
   826     010F                     	;# 
   827     018C                     	;# 
   828     018D                     	;# 
   829                           
   830                           	psect	idataBANK0
   831     10DB                     __pidataBANK0:
   832                           
   833                           ;initializer for _event_count
   834     10DB  34FF               	retlw	255
   835     10DC  34FF               	retlw	255
   836                           
   837                           ;initializer for _pos
   838     10DD  34FF               	retlw	255
   839     10DE  34FF               	retlw	255
   840                           
   841                           ;initializer for login@attempts_rem
   842     10DF  3403               	retlw	3
   843                           
   844                           ;initializer for _return_time
   845     10E0  3405               	retlw	5
   846                           
   847                           	psect	idataBANK1
   848     11B4                     __pidataBANK1:
   849                           
   850                           ;initializer for _gear
   851     11B4  34E4               	retlw	low (STR_1| (0+32768))
   852     11B5  3488               	retlw	high (STR_1| (0+32768))
   853     11B6  34ED               	retlw	low (STR_2| (0+32768))
   854     11B7  3488               	retlw	high (STR_2| (0+32768))
   855     11B8  34D2               	retlw	low (STR_3| (0+32768))
   856     11B9  3488               	retlw	high (STR_3| (0+32768))
   857     11BA  34D5               	retlw	low (STR_4| (0+32768))
   858     11BB  3488               	retlw	high (STR_4| (0+32768))
   859     11BC  34D8               	retlw	low (STR_5| (0+32768))
   860     11BD  3488               	retlw	high (STR_5| (0+32768))
   861     11BE  34DB               	retlw	low (STR_6| (0+32768))
   862     11BF  3488               	retlw	high (STR_6| (0+32768))
   863                           
   864                           ;initializer for _menu
   865     11C0  34B6               	retlw	low (STR_17| (0+32768))
   866     11C1  3488               	retlw	high (STR_17| (0+32768))
   867     11C2  34A3               	retlw	low (STR_18| (0+32768))
   868     11C3  3488               	retlw	high (STR_18| (0+32768))
   869     11C4  347C               	retlw	low (STR_19| (0+32768))
   870     11C5  3488               	retlw	high (STR_19| (0+32768))
   871     11C6  3445               	retlw	low (STR_20| (0+32768))
   872     11C7  3488               	retlw	high (STR_20| (0+32768))
   873     11C8  34AD               	retlw	low (STR_21| (0+32768))
   874     11C9  3488               	retlw	high (STR_21| (0+32768))
   875                           
   876                           ;initializer for main@F1011
   877     11CA  344F               	retlw	79
   878     11CB  344E               	retlw	78
   879     11CC  3400               	retlw	0
   880     0019                     _TXREG	set	25
   881     001A                     _RCREG	set	26
   882     0006                     _PORTB	set	6
   883     001E                     _ADRESH	set	30
   884     0013                     _SSPBUF	set	19
   885     0008                     _PORTD	set	8
   886     0064                     _TXIF	set	100
   887     0065                     _RCIF	set	101
   888     00C4                     _CREN	set	196
   889     00C7                     _SPEN	set	199
   890     0061                     _TMR2IF	set	97
   891     0091                     _T2CKPS1	set	145
   892     0090                     _T2CKPS0	set	144
   893     0092                     _TMR2ON	set	146
   894     005F                     _GIE	set	95
   895     005E                     _PEIE	set	94
   896     00FA                     _nDONE	set	250
   897     00FA                     _GO	set	250
   898     00F8                     _ADON	set	248
   899     00A5                     _SSPEN	set	165
   900     00A3                     _SSPM3	set	163
   901     0049                     _RE1	set	73
   902     004A                     _RE2	set	74
   903     0099                     _SPBRG	set	153
   904     0092                     _PR2	set	146
   905     0086                     _TRISB	set	134
   906     009E                     _ADRESL	set	158
   907     0091                     _SSPCON2	set	145
   908     0093                     _SSPADD	set	147
   909     0088                     _TRISD	set	136
   910     0461                     _TMR2IE	set	1121
   911     04FF                     _ADFM	set	1279
   912     048E                     _ACKSTAT	set	1166
   913     048C                     _ACKEN	set	1164
   914     048D                     _ACKDT	set	1165
   915     048B                     _RCEN	set	1163
   916     048A                     _PEN	set	1162
   917     0488                     _SEN	set	1160
   918     04A2                     _R_nW	set	1186
   919     0449                     _TRISE1	set	1097
   920     044A                     _TRISE2	set	1098
   921                           
   922                           	psect	strings
   923     1000                     __pstrings:
   924     1000                     stringtab:
   925     1000                     __stringtab:
   926                           
   927                           ;	String table - string pointers are 2 bytes each
   928     1000  1BFF               	btfsc	btemp+1,7
   929     1001  280A               	ljmp	stringcode
   930     1002  1383               	bcf	3,7
   931     1003  187F               	btfsc	btemp+1,0
   932     1004  1783               	bsf	3,7
   933     1005  0800               	movf	0,w
   934     1006  0A84               	incf	4,f
   935     1007  1903               	skipnz
   936     1008  0AFF               	incf	btemp+1,f
   937     1009  0008               	return
   938     100A                     stringcode:
   939     100A  087F               	movf	btemp+1,w
   940     100B  397F               	andlw	127
   941     100C  008A               	movwf	10
   942     100D  0804               	movf	4,w
   943     100E  0A84               	incf	4,f
   944     100F  1903               	skipnz
   945     1010  0AFF               	incf	btemp+1,f
   946     1011  0082               	movwf	2
   947     1012                     __stringbase:
   948     1012                     __end_of__stringtab:
   949                           
   950                           	psect	stringtext
   951     0700                     __pstringtext:
   952     0700                     STR_36:
   953     0700  3423               	retlw	35	;'#'
   954     0701  3420               	retlw	32	;' '
   955     0702  3420               	retlw	32	;' '
   956     0703  3420               	retlw	32	;' '
   957     0704  3420               	retlw	32	;' '
   958     0705  3420               	retlw	32	;' '
   959     0706  3454               	retlw	84	;'T'
   960     0707  3469               	retlw	105	;'i'
   961     0708  346D               	retlw	109	;'m'
   962     0709  3465               	retlw	101	;'e'
   963     070A  3420               	retlw	32	;' '
   964     070B  3420               	retlw	32	;' '
   965     070C  3420               	retlw	32	;' '
   966     070D  3420               	retlw	32	;' '
   967     070E  3420               	retlw	32	;' '
   968     070F  3420               	retlw	32	;' '
   969     0710  3420               	retlw	32	;' '
   970     0711  3420               	retlw	32	;' '
   971     0712  3445               	retlw	69	;'E'
   972     0713  3476               	retlw	118	;'v'
   973     0714  3465               	retlw	101	;'e'
   974     0715  346E               	retlw	110	;'n'
   975     0716  3474               	retlw	116	;'t'
   976     0717  3420               	retlw	32	;' '
   977     0718  3420               	retlw	32	;' '
   978     0719  3420               	retlw	32	;' '
   979     071A  3420               	retlw	32	;' '
   980     071B  3420               	retlw	32	;' '
   981     071C  3420               	retlw	32	;' '
   982     071D  3420               	retlw	32	;' '
   983     071E  3453               	retlw	83	;'S'
   984     071F  3470               	retlw	112	;'p'
   985     0720  3465               	retlw	101	;'e'
   986     0721  3465               	retlw	101	;'e'
   987     0722  3464               	retlw	100	;'d'
   988     0723  3400               	retlw	0
   989     0724                     STR_43:
   990     0724  3420               	retlw	32	;' '
   991     0725  3420               	retlw	32	;' '
   992     0726  3420               	retlw	32	;' '
   993     0727  3420               	retlw	32	;' '
   994     0728  3420               	retlw	32	;' '
   995     0729  3420               	retlw	32	;' '
   996     072A  3420               	retlw	32	;' '
   997     072B  3420               	retlw	32	;' '
   998     072C  3420               	retlw	32	;' '
   999     072D  3420               	retlw	32	;' '
  1000     072E  3420               	retlw	32	;' '
  1001     072F  3420               	retlw	32	;' '
  1002     0730  3420               	retlw	32	;' '
  1003     0731  3420               	retlw	32	;' '
  1004     0732  3420               	retlw	32	;' '
  1005     0733  3420               	retlw	32	;' '
  1006     0734  3420               	retlw	32	;' '
  1007     0735  3400               	retlw	0
  1008     0736                     STR_34:
  1009     0736  344E               	retlw	78	;'N'
  1010     0737  346F               	retlw	111	;'o'
  1011     0738  3420               	retlw	32	;' '
  1012     0739  346C               	retlw	108	;'l'
  1013     073A  346F               	retlw	111	;'o'
  1014     073B  3467               	retlw	103	;'g'
  1015     073C  3473               	retlw	115	;'s'
  1016     073D  3420               	retlw	32	;' '
  1017     073E  3461               	retlw	97	;'a'
  1018     073F  3476               	retlw	118	;'v'
  1019     0740  3461               	retlw	97	;'a'
  1020     0741  3469               	retlw	105	;'i'
  1021     0742  346C               	retlw	108	;'l'
  1022     0743  3461               	retlw	97	;'a'
  1023     0744  3462               	retlw	98	;'b'
  1024     0745  346C               	retlw	108	;'l'
  1025     0746  3465               	retlw	101	;'e'
  1026     0747  3400               	retlw	0
  1027     0748                     STR_29:
  1028     0748  3420               	retlw	32	;' '
  1029     0749  3420               	retlw	32	;' '
  1030     074A  3420               	retlw	32	;' '
  1031     074B  3420               	retlw	32	;' '
  1032     074C  344E               	retlw	78	;'N'
  1033     074D  346F               	retlw	111	;'o'
  1034     074E  3420               	retlw	32	;' '
  1035     074F  346C               	retlw	108	;'l'
  1036     0750  346F               	retlw	111	;'o'
  1037     0751  3467               	retlw	103	;'g'
  1038     0752  3473               	retlw	115	;'s'
  1039     0753  3420               	retlw	32	;' '
  1040     0754  3420               	retlw	32	;' '
  1041     0755  3420               	retlw	32	;' '
  1042     0756  3420               	retlw	32	;' '
  1043     0757  3420               	retlw	32	;' '
  1044     0758  3400               	retlw	0
  1045     0759                     STR_41:
  1046     0759  3445               	retlw	69	;'E'
  1047     075A  346E               	retlw	110	;'n'
  1048     075B  3474               	retlw	116	;'t'
  1049     075C  3465               	retlw	101	;'e'
  1050     075D  3472               	retlw	114	;'r'
  1051     075E  3420               	retlw	32	;' '
  1052     075F  346E               	retlw	110	;'n'
  1053     0760  3465               	retlw	101	;'e'
  1054     0761  3477               	retlw	119	;'w'
  1055     0762  3420               	retlw	32	;' '
  1056     0763  3470               	retlw	112	;'p'
  1057     0764  3477               	retlw	119	;'w'
  1058     0765  3464               	retlw	100	;'d'
  1059     0766  343A               	retlw	58	;':'
  1060     0767  3420               	retlw	32	;' '
  1061     0768  3420               	retlw	32	;' '
  1062     0769  3400               	retlw	0
  1063     076A                     STR_25:
  1064     076A  3420               	retlw	32	;' '
  1065     076B  3457               	retlw	87	;'W'
  1066     076C  3472               	retlw	114	;'r'
  1067     076D  346F               	retlw	111	;'o'
  1068     076E  346E               	retlw	110	;'n'
  1069     076F  3467               	retlw	103	;'g'
  1070     0770  3420               	retlw	32	;' '
  1071     0771  3450               	retlw	80	;'P'
  1072     0772  3461               	retlw	97	;'a'
  1073     0773  3473               	retlw	115	;'s'
  1074     0774  3473               	retlw	115	;'s'
  1075     0775  3477               	retlw	119	;'w'
  1076     0776  346F               	retlw	111	;'o'
  1077     0777  3472               	retlw	114	;'r'
  1078     0778  3464               	retlw	100	;'d'
  1079     0779  3420               	retlw	32	;' '
  1080     077A  3400               	retlw	0
  1081     077B                     STR_22:
  1082     077B  3420               	retlw	32	;' '
  1083     077C  3420               	retlw	32	;' '
  1084     077D  3454               	retlw	84	;'T'
  1085     077E  3449               	retlw	73	;'I'
  1086     077F  344D               	retlw	77	;'M'
  1087     0780  3445               	retlw	69	;'E'
  1088     0781  3420               	retlw	32	;' '
  1089     0782  3420               	retlw	32	;' '
  1090     0783  3420               	retlw	32	;' '
  1091     0784  3420               	retlw	32	;' '
  1092     0785  3420               	retlw	32	;' '
  1093     0786  3445               	retlw	69	;'E'
  1094     0787  3420               	retlw	32	;' '
  1095     0788  3420               	retlw	32	;' '
  1096     0789  3453               	retlw	83	;'S'
  1097     078A  3450               	retlw	80	;'P'
  1098     078B  3400               	retlw	0
  1099     078C                     STR_45:
  1100     078C  3450               	retlw	80	;'P'
  1101     078D  3461               	retlw	97	;'a'
  1102     078E  3473               	retlw	115	;'s'
  1103     078F  3473               	retlw	115	;'s'
  1104     0790  3477               	retlw	119	;'w'
  1105     0791  346F               	retlw	111	;'o'
  1106     0792  3472               	retlw	114	;'r'
  1107     0793  3464               	retlw	100	;'d'
  1108     0794  3420               	retlw	32	;' '
  1109     0795  3463               	retlw	99	;'c'
  1110     0796  3468               	retlw	104	;'h'
  1111     0797  3461               	retlw	97	;'a'
  1112     0798  346E               	retlw	110	;'n'
  1113     0799  3467               	retlw	103	;'g'
  1114     079A  3465               	retlw	101	;'e'
  1115     079B  3464               	retlw	100	;'d'
  1116     079C  3400               	retlw	0
  1117     079D                     STR_23:
  1118     079D  3459               	retlw	89	;'Y'
  1119     079E  346F               	retlw	111	;'o'
  1120     079F  3475               	retlw	117	;'u'
  1121     07A0  3420               	retlw	32	;' '
  1122     07A1  3441               	retlw	65	;'A'
  1123     07A2  3472               	retlw	114	;'r'
  1124     07A3  3465               	retlw	101	;'e'
  1125     07A4  3420               	retlw	32	;' '
  1126     07A5  3420               	retlw	32	;' '
  1127     07A6  3442               	retlw	66	;'B'
  1128     07A7  346C               	retlw	108	;'l'
  1129     07A8  346F               	retlw	111	;'o'
  1130     07A9  3463               	retlw	99	;'c'
  1131     07AA  346B               	retlw	107	;'k'
  1132     07AB  3465               	retlw	101	;'e'
  1133     07AC  3464               	retlw	100	;'d'
  1134     07AD  3400               	retlw	0
  1135     07AE                     STR_42:
  1136     07AE  3452               	retlw	82	;'R'
  1137     07AF  3465               	retlw	101	;'e'
  1138     07B0  342D               	retlw	45	;'-'
  1139     07B1  3465               	retlw	101	;'e'
  1140     07B2  346E               	retlw	110	;'n'
  1141     07B3  3474               	retlw	116	;'t'
  1142     07B4  3465               	retlw	101	;'e'
  1143     07B5  3472               	retlw	114	;'r'
  1144     07B6  3420               	retlw	32	;' '
  1145     07B7  346E               	retlw	110	;'n'
  1146     07B8  3465               	retlw	101	;'e'
  1147     07B9  3477               	retlw	119	;'w'
  1148     07BA  3420               	retlw	32	;' '
  1149     07BB  3470               	retlw	112	;'p'
  1150     07BC  3477               	retlw	119	;'w'
  1151     07BD  3464               	retlw	100	;'d'
  1152     07BE  3400               	retlw	0
  1153     07BF                     STR_47:
  1154     07BF  3450               	retlw	80	;'P'
  1155     07C0  3461               	retlw	97	;'a'
  1156     07C1  3473               	retlw	115	;'s'
  1157     07C2  3473               	retlw	115	;'s'
  1158     07C3  3477               	retlw	119	;'w'
  1159     07C4  346F               	retlw	111	;'o'
  1160     07C5  3472               	retlw	114	;'r'
  1161     07C6  3464               	retlw	100	;'d'
  1162     07C7  3420               	retlw	32	;' '
  1163     07C8  3420               	retlw	32	;' '
  1164     07C9  3463               	retlw	99	;'c'
  1165     07CA  3468               	retlw	104	;'h'
  1166     07CB  3461               	retlw	97	;'a'
  1167     07CC  346E               	retlw	110	;'n'
  1168     07CD  3467               	retlw	103	;'g'
  1169     07CE  3465               	retlw	101	;'e'
  1170     07CF  3400               	retlw	0
  1171     07D0                     STR_24:
  1172     07D0  3457               	retlw	87	;'W'
  1173     07D1  3461               	retlw	97	;'a'
  1174     07D2  3469               	retlw	105	;'i'
  1175     07D3  3474               	retlw	116	;'t'
  1176     07D4  3420               	retlw	32	;' '
  1177     07D5  3466               	retlw	102	;'f'
  1178     07D6  346F               	retlw	111	;'o'
  1179     07D7  3472               	retlw	114	;'r'
  1180     07D8  342E               	retlw	46	;'.'
  1181     07D9  342E               	retlw	46	;'.'
  1182     07DA  342E               	retlw	46	;'.'
  1183     07DB  3431               	retlw	49	;'1'
  1184     07DC  3435               	retlw	53	;'5'
  1185     07DD  346D               	retlw	109	;'m'
  1186     07DE  3469               	retlw	105	;'i'
  1187     07DF  346E               	retlw	110	;'n'
  1188     07E0  3400               	retlw	0
  1189     07E1                     STR_12:
  1190     07E1  3420               	retlw	32	;' '
  1191     07E2  3420               	retlw	32	;' '
  1192     07E3  3420               	retlw	32	;' '
  1193     07E4  3420               	retlw	32	;' '
  1194     07E5  3420               	retlw	32	;' '
  1195     07E6  3420               	retlw	32	;' '
  1196     07E7  344F               	retlw	79	;'O'
  1197     07E8  3470               	retlw	112	;'p'
  1198     07E9  3465               	retlw	101	;'e'
  1199     07EA  346E               	retlw	110	;'n'
  1200     07EB  3420               	retlw	32	;' '
  1201     07EC  3420               	retlw	32	;' '
  1202     07ED  3420               	retlw	32	;' '
  1203     07EE  3420               	retlw	32	;' '
  1204     07EF  3420               	retlw	32	;' '
  1205     07F0  3420               	retlw	32	;' '
  1206     07F1  3400               	retlw	0
  1207     07F2                     STR_10:
  1208     07F2  3420               	retlw	32	;' '
  1209     07F3  3420               	retlw	32	;' '
  1210     07F4  3420               	retlw	32	;' '
  1211     07F5  3420               	retlw	32	;' '
  1212     07F6  3420               	retlw	32	;' '
  1213     07F7  3420               	retlw	32	;' '
  1214     07F8  344C               	retlw	76	;'L'
  1215     07F9  346F               	retlw	111	;'o'
  1216     07FA  3467               	retlw	103	;'g'
  1217     07FB  3473               	retlw	115	;'s'
  1218     07FC  3420               	retlw	32	;' '
  1219     07FD  3420               	retlw	32	;' '
  1220     07FE  3420               	retlw	32	;' '
  1221     07FF  3420               	retlw	32	;' '
  1222     0800  3420               	retlw	32	;' '
  1223     0801  3420               	retlw	32	;' '
  1224     0802  3400               	retlw	0
  1225     0803                     STR_13:
  1226     0803  3420               	retlw	32	;' '
  1227     0804  3420               	retlw	32	;' '
  1228     0805  3420               	retlw	32	;' '
  1229     0806  3420               	retlw	32	;' '
  1230     0807  3420               	retlw	32	;' '
  1231     0808  3443               	retlw	67	;'C'
  1232     0809  3475               	retlw	117	;'u'
  1233     080A  3474               	retlw	116	;'t'
  1234     080B  3465               	retlw	101	;'e'
  1235     080C  3463               	retlw	99	;'c'
  1236     080D  346F               	retlw	111	;'o'
  1237     080E  346D               	retlw	109	;'m'
  1238     080F  3420               	retlw	32	;' '
  1239     0810  3420               	retlw	32	;' '
  1240     0811  3420               	retlw	32	;' '
  1241     0812  3420               	retlw	32	;' '
  1242     0813  3400               	retlw	0
  1243     0814                     STR_9:
  1244     0814  3420               	retlw	32	;' '
  1245     0815  3445               	retlw	69	;'E'
  1246     0816  346E               	retlw	110	;'n'
  1247     0817  3474               	retlw	116	;'t'
  1248     0818  3465               	retlw	101	;'e'
  1249     0819  3472               	retlw	114	;'r'
  1250     081A  3420               	retlw	32	;' '
  1251     081B  3450               	retlw	80	;'P'
  1252     081C  3461               	retlw	97	;'a'
  1253     081D  3473               	retlw	115	;'s'
  1254     081E  3473               	retlw	115	;'s'
  1255     081F  3477               	retlw	119	;'w'
  1256     0820  346F               	retlw	111	;'o'
  1257     0821  3472               	retlw	114	;'r'
  1258     0822  3464               	retlw	100	;'d'
  1259     0823  3420               	retlw	32	;' '
  1260     0824  3400               	retlw	0
  1261     0825                     STR_49:
  1262     0825  3454               	retlw	84	;'T'
  1263     0826  3469               	retlw	105	;'i'
  1264     0827  346D               	retlw	109	;'m'
  1265     0828  3465               	retlw	101	;'e'
  1266     0829  3420               	retlw	32	;' '
  1267     082A  3428               	retlw	40	;'('
  1268     082B  3448               	retlw	72	;'H'
  1269     082C  3448               	retlw	72	;'H'
  1270     082D  343A               	retlw	58	;':'
  1271     082E  344D               	retlw	77	;'M'
  1272     082F  344D               	retlw	77	;'M'
  1273     0830  343A               	retlw	58	;':'
  1274     0831  3453               	retlw	83	;'S'
  1275     0832  3453               	retlw	83	;'S'
  1276     0833  3429               	retlw	41	;')'
  1277     0834  3400               	retlw	0
  1278     0835                     STR_26:
  1279     0835  3420               	retlw	32	;' '
  1280     0836  3441               	retlw	65	;'A'
  1281     0837  3474               	retlw	116	;'t'
  1282     0838  3474               	retlw	116	;'t'
  1283     0839  3465               	retlw	101	;'e'
  1284     083A  346D               	retlw	109	;'m'
  1285     083B  3470               	retlw	112	;'p'
  1286     083C  3474               	retlw	116	;'t'
  1287     083D  3420               	retlw	32	;' '
  1288     083E  3452               	retlw	82	;'R'
  1289     083F  3465               	retlw	101	;'e'
  1290     0840  346D               	retlw	109	;'m'
  1291     0841  3461               	retlw	97	;'a'
  1292     0842  3469               	retlw	105	;'i'
  1293     0843  346E               	retlw	110	;'n'
  1294     0844  3400               	retlw	0
  1295     0845                     STR_20:
  1296     0845  3443               	retlw	67	;'C'
  1297     0846  3468               	retlw	104	;'h'
  1298     0847  3461               	retlw	97	;'a'
  1299     0848  346E               	retlw	110	;'n'
  1300     0849  3467               	retlw	103	;'g'
  1301     084A  3465               	retlw	101	;'e'
  1302     084B  3420               	retlw	32	;' '
  1303     084C  3470               	retlw	112	;'p'
  1304     084D  3461               	retlw	97	;'a'
  1305     084E  3473               	retlw	115	;'s'
  1306     084F  3473               	retlw	115	;'s'
  1307     0850  3477               	retlw	119	;'w'
  1308     0851  3472               	retlw	114	;'r'
  1309     0852  3464               	retlw	100	;'d'
  1310     0853  3400               	retlw	0
  1311     0854                     STR_46:
  1312     0854  3473               	retlw	115	;'s'
  1313     0855  3475               	retlw	117	;'u'
  1314     0856  3463               	retlw	99	;'c'
  1315     0857  3463               	retlw	99	;'c'
  1316     0858  3465               	retlw	101	;'e'
  1317     0859  3473               	retlw	115	;'s'
  1318     085A  3473               	retlw	115	;'s'
  1319     085B  3466               	retlw	102	;'f'
  1320     085C  3475               	retlw	117	;'u'
  1321     085D  346C               	retlw	108	;'l'
  1322     085E  346C               	retlw	108	;'l'
  1323     085F  3479               	retlw	121	;'y'
  1324     0860  3420               	retlw	32	;' '
  1325     0861  3400               	retlw	0
  1326     0862                     STR_50:
  1327     0862  3454               	retlw	84	;'T'
  1328     0863  3469               	retlw	105	;'i'
  1329     0864  346D               	retlw	109	;'m'
  1330     0865  3465               	retlw	101	;'e'
  1331     0866  3420               	retlw	32	;' '
  1332     0867  3463               	retlw	99	;'c'
  1333     0868  3468               	retlw	104	;'h'
  1334     0869  3461               	retlw	97	;'a'
  1335     086A  346E               	retlw	110	;'n'
  1336     086B  3467               	retlw	103	;'g'
  1337     086C  3465               	retlw	101	;'e'
  1338     086D  3464               	retlw	100	;'d'
  1339     086E  3400               	retlw	0
  1340     086F                     STR_32:
  1341     086F  344C               	retlw	76	;'L'
  1342     0870  346F               	retlw	111	;'o'
  1343     0871  3467               	retlw	103	;'g'
  1344     0872  3473               	retlw	115	;'s'
  1345     0873  3420               	retlw	32	;' '
  1346     0874  3463               	retlw	99	;'c'
  1347     0875  346C               	retlw	108	;'l'
  1348     0876  3465               	retlw	101	;'e'
  1349     0877  3461               	retlw	97	;'a'
  1350     0878  3472               	retlw	114	;'r'
  1351     0879  3465               	retlw	101	;'e'
  1352     087A  3464               	retlw	100	;'d'
  1353     087B  3400               	retlw	0
  1354     087C                     STR_19:
  1355     087C  3444               	retlw	68	;'D'
  1356     087D  346F               	retlw	111	;'o'
  1357     087E  3477               	retlw	119	;'w'
  1358     087F  346E               	retlw	110	;'n'
  1359     0880  346C               	retlw	108	;'l'
  1360     0881  346F               	retlw	111	;'o'
  1361     0882  3461               	retlw	97	;'a'
  1362     0883  3464               	retlw	100	;'d'
  1363     0884  3420               	retlw	32	;' '
  1364     0885  346C               	retlw	108	;'l'
  1365     0886  346F               	retlw	111	;'o'
  1366     0887  3467               	retlw	103	;'g'
  1367     0888  3400               	retlw	0
  1368     0889                     STR_51:
  1369     0889  3453               	retlw	83	;'S'
  1370     088A  3475               	retlw	117	;'u'
  1371     088B  3463               	retlw	99	;'c'
  1372     088C  3463               	retlw	99	;'c'
  1373     088D  3465               	retlw	101	;'e'
  1374     088E  3473               	retlw	115	;'s'
  1375     088F  3473               	retlw	115	;'s'
  1376     0890  3466               	retlw	102	;'f'
  1377     0891  3475               	retlw	117	;'u'
  1378     0892  346C               	retlw	108	;'l'
  1379     0893  346C               	retlw	108	;'l'
  1380     0894  3479               	retlw	121	;'y'
  1381     0895  3400               	retlw	0
  1382     0896                     STR_33:
  1383     0896  3473               	retlw	115	;'s'
  1384     0897  3475               	retlw	117	;'u'
  1385     0898  3463               	retlw	99	;'c'
  1386     0899  3463               	retlw	99	;'c'
  1387     089A  3465               	retlw	101	;'e'
  1388     089B  3473               	retlw	115	;'s'
  1389     089C  3473               	retlw	115	;'s'
  1390     089D  3466               	retlw	102	;'f'
  1391     089E  3475               	retlw	117	;'u'
  1392     089F  346C               	retlw	108	;'l'
  1393     08A0  346C               	retlw	108	;'l'
  1394     08A1  3479               	retlw	121	;'y'
  1395     08A2  3400               	retlw	0
  1396     08A3                     STR_18:
  1397     08A3  3443               	retlw	67	;'C'
  1398     08A4  346C               	retlw	108	;'l'
  1399     08A5  3465               	retlw	101	;'e'
  1400     08A6  3461               	retlw	97	;'a'
  1401     08A7  3472               	retlw	114	;'r'
  1402     08A8  3420               	retlw	32	;' '
  1403     08A9  346C               	retlw	108	;'l'
  1404     08AA  346F               	retlw	111	;'o'
  1405     08AB  3467               	retlw	103	;'g'
  1406     08AC  3400               	retlw	0
  1407     08AD                     STR_21:
  1408     08AD  3453               	retlw	83	;'S'
  1409     08AE  3465               	retlw	101	;'e'
  1410     08AF  3474               	retlw	116	;'t'
  1411     08B0  3420               	retlw	32	;' '
  1412     08B1  3474               	retlw	116	;'t'
  1413     08B2  3469               	retlw	105	;'i'
  1414     08B3  346D               	retlw	109	;'m'
  1415     08B4  3465               	retlw	101	;'e'
  1416     08B5  3400               	retlw	0
  1417     08B6                     STR_17:
  1418     08B6  3456               	retlw	86	;'V'
  1419     08B7  3469               	retlw	105	;'i'
  1420     08B8  3465               	retlw	101	;'e'
  1421     08B9  3477               	retlw	119	;'w'
  1422     08BA  3420               	retlw	32	;' '
  1423     08BB  346C               	retlw	108	;'l'
  1424     08BC  346F               	retlw	111	;'o'
  1425     08BD  3467               	retlw	103	;'g'
  1426     08BE  3400               	retlw	0
  1427     08BF                     STR_35:
  1428     08BF  344C               	retlw	76	;'L'
  1429     08C0  346F               	retlw	111	;'o'
  1430     08C1  3467               	retlw	103	;'g'
  1431     08C2  3473               	retlw	115	;'s'
  1432     08C3  3420               	retlw	32	;' '
  1433     08C4  343A               	retlw	58	;':'
  1434     08C5  3400               	retlw	0
  1435     08C6                     STR_48:
  1436     08C6  3466               	retlw	102	;'f'
  1437     08C7  3461               	retlw	97	;'a'
  1438     08C8  3469               	retlw	105	;'i'
  1439     08C9  346C               	retlw	108	;'l'
  1440     08CA  3465               	retlw	101	;'e'
  1441     08CB  3464               	retlw	100	;'d'
  1442     08CC  3400               	retlw	0
  1443     08CD                     STR_7:
  1444     08CD  3431               	retlw	49	;'1'
  1445     08CE  3430               	retlw	48	;'0'
  1446     08CF  3431               	retlw	49	;'1'
  1447     08D0  3430               	retlw	48	;'0'
  1448     08D1  3400               	retlw	0
  1449     08D2                     STR_3:
  1450     08D2  3447               	retlw	71	;'G'
  1451     08D3  3431               	retlw	49	;'1'
  1452     08D4  3400               	retlw	0
  1453     08D5                     STR_4:
  1454     08D5  3447               	retlw	71	;'G'
  1455     08D6  3432               	retlw	50	;'2'
  1456     08D7  3400               	retlw	0
  1457     08D8                     STR_5:
  1458     08D8  3447               	retlw	71	;'G'
  1459     08D9  3433               	retlw	51	;'3'
  1460     08DA  3400               	retlw	0
  1461     08DB                     STR_6:
  1462     08DB  3447               	retlw	71	;'G'
  1463     08DC  3434               	retlw	52	;'4'
  1464     08DD  3400               	retlw	0
  1465     08DE                     STR_15:
  1466     08DE  3443               	retlw	67	;'C'
  1467     08DF  344C               	retlw	76	;'L'
  1468     08E0  3400               	retlw	0
  1469     08E1                     STR_11:
  1470     08E1  3444               	retlw	68	;'D'
  1471     08E2  344C               	retlw	76	;'L'
  1472     08E3  3400               	retlw	0
  1473     08E4                     STR_1:
  1474     08E4  3447               	retlw	71	;'G'
  1475     08E5  344E               	retlw	78	;'N'
  1476     08E6  3400               	retlw	0
  1477     08E7                     STR_8:
  1478     08E7  3443               	retlw	67	;'C'
  1479     08E8  344F               	retlw	79	;'O'
  1480     08E9  3400               	retlw	0
  1481     08EA                     STR_16:
  1482     08EA  3443               	retlw	67	;'C'
  1483     08EB  3450               	retlw	80	;'P'
  1484     08EC  3400               	retlw	0
  1485     08ED                     STR_2:
  1486     08ED  3447               	retlw	71	;'G'
  1487     08EE  3452               	retlw	82	;'R'
  1488     08EF  3400               	retlw	0
  1489     08F0                     STR_14:
  1490     08F0  3453               	retlw	83	;'S'
  1491     08F1  3454               	retlw	84	;'T'
  1492     08F2  3400               	retlw	0
  1493     0733                     
  1494                           	psect	cinit
  1495     000F                     start_initialization:	
  1496                           ; #config settings
  1497                           
  1498     000F                     __initialization:
  1499                           
  1500                           ; Initialize objects allocated to BANK1
  1501     000F  1383               	bcf	3,7	;select IRP bank0
  1502     0010  30B9               	movlw	low (__pdataBANK1+25)
  1503     0011  00FD               	movwf	btemp+-1
  1504     0012  3011               	movlw	high __pidataBANK1
  1505     0013  00FE               	movwf	btemp
  1506     0014  30B4               	movlw	low __pidataBANK1
  1507     0015  00FF               	movwf	btemp+1
  1508     0016  30A0               	movlw	low __pdataBANK1
  1509     0017  0084               	movwf	4
  1510     0018  160A  118A  217B  120A  118A  	fcall	init_ram0
  1511                           
  1512                           ; Initialize objects allocated to BANK0
  1513     001D  306E               	movlw	low (__pdataBANK0+6)
  1514     001E  00FD               	movwf	btemp+-1
  1515     001F  3010               	movlw	high __pidataBANK0
  1516     0020  00FE               	movwf	btemp
  1517     0021  30DB               	movlw	low __pidataBANK0
  1518     0022  00FF               	movwf	btemp+1
  1519     0023  3068               	movlw	low __pdataBANK0
  1520     0024  0084               	movwf	4
  1521     0025  160A  118A  217B  120A  118A  	fcall	init_ram0
  1522                           
  1523                           ; Clear objects allocated to BANK1
  1524     002A  30B9               	movlw	low __pbssBANK1
  1525     002B  0084               	movwf	4
  1526     002C  30D1               	movlw	low (__pbssBANK1+24)
  1527     002D  160A  118A  20E1  120A  118A  	fcall	clear_ram0
  1528                           
  1529                           ; Clear objects allocated to BANK0
  1530     0032  3020               	movlw	low __pbssBANK0
  1531     0033  0084               	movwf	4
  1532     0034  3045               	movlw	low (__pbssBANK0+37)
  1533     0035  160A  118A  20E1  120A  118A  	fcall	clear_ram0
  1534                           
  1535                           ; Clear objects allocated to COMMON
  1536     003A  01FA               	clrf	__pbssCOMMON& (0+127)
  1537     003B  01FB               	clrf	(__pbssCOMMON+1)& (0+127)
  1538     003C                     end_of_initialization:	
  1539                           ;End of C runtime variable initialization code
  1540                           
  1541     003C                     __end_of__initialization:
  1542     003C  0183               	clrf	3
  1543     003D  120A  118A  2840   	ljmp	_main	;jump to C main() function
  1544                           
  1545                           	psect	bssCOMMON
  1546     007A                     __pbssCOMMON:
  1547     007A                     read_digital_keypad@pre_key:
  1548     007A                     	ds	1
  1549     007B                     read_digital_keypad@once:
  1550     007B                     	ds	1
  1551                           
  1552                           	psect	bssBANK0
  1553     0020                     __pbssBANK0:
  1554     0020                     change_time@new_time:
  1555     0020                     	ds	6
  1556     0026                     _clock_reg:
  1557     0026                     	ds	3
  1558     0029                     isr@count:
  1559     0029                     	ds	2
  1560     002B                     read_digital_keypad@long_pressed:
  1561     002B                     	ds	2
  1562     002D                     change_time@blink_pos:
  1563     002D                     	ds	2
  1564     002F                     change_password@blink_delay:
  1565     002F                     	ds	2
  1566     0031                     change_password@pwd_pos:
  1567     0031                     	ds	2
  1568     0033                     view_log@index:
  1569     0033                     	ds	2
  1570     0035                     _sec:
  1571     0035                     	ds	2
  1572     0037                     change_time@t_done:
  1573     0037                     	ds	1
  1574     0038                     change_time@blink:
  1575     0038                     	ds	1
  1576     0039                     change_time@wait:
  1577     0039                     	ds	1
  1578     003A                     change_password@toggle_cursor:
  1579     003A                     	ds	1
  1580     003B                     change_password@pwd_changed:
  1581     003B                     	ds	1
  1582     003C                     login_menu@menu_pos:
  1583     003C                     	ds	1
  1584     003D                     login@i:
  1585     003D                     	ds	1
  1586     003E                     _time:
  1587     003E                     	ds	7
  1588                           
  1589                           	psect	dataBANK0
  1590     0068                     __pdataBANK0:
  1591     0068                     _event_count:
  1592     0068                     	ds	2
  1593     006A                     _pos:
  1594     006A                     	ds	2
  1595     006C                     login@attempts_rem:
  1596     006C                     	ds	1
  1597     006D                     _return_time:
  1598     006D                     	ds	1
  1599                           
  1600                           	psect	bssBANK1
  1601     00B9                     __pbssBANK1:
  1602     00B9                     _log:
  1603     00B9                     	ds	11
  1604     00C4                     change_password@new_pwd:
  1605     00C4                     	ds	9
  1606     00CD                     login@npassword:
  1607     00CD                     	ds	4
  1608                           
  1609                           	psect	dataBANK1
  1610     00A0                     __pdataBANK1:
  1611     00A0                     _gear:
  1612     00A0                     	ds	12
  1613     00AC                     _menu:
  1614     00AC                     	ds	10
  1615     00B6                     main@F1011:
  1616     00B6                     	ds	3
  1617                           
  1618                           	psect	inittext
  1619     1177                     init_fetch0:	
  1620                           ;	Called with low address in FSR and high address in W
  1621                           
  1622     1177  087E               	movf	btemp,w
  1623     1178  008A               	movwf	10
  1624     1179  087F               	movf	btemp+1,w
  1625     117A  0082               	movwf	2
  1626     117B                     init_ram0:	
  1627                           ;Called with:
  1628                           ;	high address of idata address in btemp 
  1629                           ;	low address of idata address in btemp+1 
  1630                           ;	low address of data in FSR
  1631                           ;	high address + 1 of data in btemp-1
  1632                           
  1633     117B  160A  118A  2177  160A  118A  	fcall	init_fetch0
  1634     1180  0080               	movwf	0
  1635     1181  0A84               	incf	4,f
  1636     1182  0804               	movf	4,w
  1637     1183  067D               	xorwf	btemp+-1,w
  1638     1184  1903               	btfsc	3,2
  1639     1185  3400               	retlw	0
  1640     1186  0AFF               	incf	btemp+1,f
  1641     1187  1903               	btfsc	3,2
  1642     1188  0AFE               	incf	btemp,f
  1643     1189  297B               	goto	init_ram0
  1644                           
  1645                           	psect	clrtext
  1646     10E1                     clear_ram0:	
  1647                           ;	Called with FSR containing the base address, and
  1648                           ;	W with the last address+1
  1649                           
  1650     10E1  0064               	clrwdt	;clear the watchdog before getting into this loop
  1651     10E2                     clrloop0:
  1652     10E2  0180               	clrf	0	;clear RAM location pointed to by FSR
  1653     10E3  0A84               	incf	4,f	;increment pointer
  1654     10E4  0604               	xorwf	4,w	;XOR with final address
  1655     10E5  1903               	btfsc	3,2	;have we reached the end yet?
  1656     10E6  3400               	retlw	0	;all done for this memory range, return
  1657     10E7  0604               	xorwf	4,w	;XOR again to restore value
  1658     10E8  28E2               	goto	clrloop0	;do the next byte
  1659                           
  1660                           	psect	cstackBANK1
  1661     00D1                     __pcstackBANK1:
  1662     00D1                     main@menu_pos:
  1663                           
  1664                           ; 1 bytes @ 0x0
  1665     00D1                     	ds	1
  1666     00D2                     main@event:
  1667                           
  1668                           ; 3 bytes @ 0x1
  1669     00D2                     	ds	3
  1670     00D5                     main@gr:
  1671                           
  1672                           ; 1 bytes @ 0x4
  1673     00D5                     	ds	1
  1674     00D6                     main@reset_flag:
  1675                           
  1676                           ; 1 bytes @ 0x5
  1677     00D6                     	ds	1
  1678     00D7                     main@speed:
  1679                           
  1680                           ; 1 bytes @ 0x6
  1681     00D7                     	ds	1
  1682     00D8                     main@control_flag:
  1683                           
  1684                           ; 1 bytes @ 0x7
  1685     00D8                     	ds	1
  1686     00D9                     main@key:
  1687                           
  1688                           ; 1 bytes @ 0x8
  1689     00D9                     	ds	1
  1690                           
  1691                           	psect	cstackCOMMON
  1692     0070                     __pcstackCOMMON:
  1693     0070                     ?_read_ds1307:
  1694     0070                     ?_i2c_start:	
  1695                           ; 1 bytes @ 0x0
  1696                           
  1697     0070                     ?_i2c_rep_start:	
  1698                           ; 1 bytes @ 0x0
  1699                           
  1700     0070                     ?_i2c_read:	
  1701                           ; 1 bytes @ 0x0
  1702                           
  1703     0070                     ?_i2c_stop:	
  1704                           ; 1 bytes @ 0x0
  1705                           
  1706     0070                     ?_init_digital_keypad:	
  1707                           ; 1 bytes @ 0x0
  1708                           
  1709     0070                     ?_init_timer2:	
  1710                           ; 1 bytes @ 0x0
  1711                           
  1712     0070                     ?_read_digital_keypad:	
  1713                           ; 1 bytes @ 0x0
  1714                           
  1715     0070                     ?_clear_screen:	
  1716                           ; 1 bytes @ 0x0
  1717                           
  1718     0070                     ?_download_log:	
  1719                           ; 1 bytes @ 0x0
  1720                           
  1721     0070                     ?_clear_log:	
  1722                           ; 1 bytes @ 0x0
  1723                           
  1724     0070                     ?_eeprom_at24c04_random_read:	
  1725                           ; 1 bytes @ 0x0
  1726                           
  1727     0070                     ?_putchar:	
  1728                           ; 1 bytes @ 0x0
  1729                           
  1730     0070                     ?_init_display_controller:	
  1731                           ; 1 bytes @ 0x0
  1732                           
  1733     0070                     ?_init_clcd:	
  1734                           ; 1 bytes @ 0x0
  1735                           
  1736     0070                     ?_init_ds1307:	
  1737                           ; 1 bytes @ 0x0
  1738                           
  1739     0070                     ?_i2c_wait_for_idle:	
  1740                           ; 1 bytes @ 0x0
  1741                           
  1742     0070                     ?_init_adc:	
  1743                           ; 1 bytes @ 0x0
  1744                           
  1745     0070                     ?_init_config:	
  1746                           ; 1 bytes @ 0x0
  1747                           
  1748     0070                     ?_main:	
  1749                           ; 1 bytes @ 0x0
  1750                           
  1751     0070                     ?_get_time:	
  1752                           ; 1 bytes @ 0x0
  1753                           
  1754     0070                     ?_display_time:	
  1755                           ; 1 bytes @ 0x0
  1756                           
  1757     0070                     ?_log_event:	
  1758                           ; 1 bytes @ 0x0
  1759                           
  1760     0070                     ?_isr:	
  1761                           ; 1 bytes @ 0x0
  1762                           
  1763     0070                     ??_isr:	
  1764                           ; 1 bytes @ 0x0
  1765                           
  1766     0070                     ?_i2c_write:	
  1767                           ; 1 bytes @ 0x0
  1768                           
  1769                           
  1770                           ; 2 bytes @ 0x0
  1771     0070                     	ds	2
  1772     0072                     ??_i2c_start:
  1773     0072                     ??_i2c_write:	
  1774                           ; 1 bytes @ 0x2
  1775                           
  1776     0072                     ??_i2c_rep_start:	
  1777                           ; 1 bytes @ 0x2
  1778                           
  1779     0072                     ??_i2c_read:	
  1780                           ; 1 bytes @ 0x2
  1781                           
  1782     0072                     ??_i2c_stop:	
  1783                           ; 1 bytes @ 0x2
  1784                           
  1785     0072                     ??_init_digital_keypad:	
  1786                           ; 1 bytes @ 0x2
  1787                           
  1788     0072                     ??_init_timer2:	
  1789                           ; 1 bytes @ 0x2
  1790                           
  1791     0072                     ??_read_digital_keypad:	
  1792                           ; 1 bytes @ 0x2
  1793                           
  1794     0072                     ?_strcpy:	
  1795                           ; 1 bytes @ 0x2
  1796                           
  1797     0072                     ?_strncpy:	
  1798                           ; 1 bytes @ 0x2
  1799                           
  1800     0072                     ??_putchar:	
  1801                           ; 1 bytes @ 0x2
  1802                           
  1803     0072                     ?_clcd_write:	
  1804                           ; 1 bytes @ 0x2
  1805                           
  1806     0072                     ??_i2c_wait_for_idle:	
  1807                           ; 1 bytes @ 0x2
  1808                           
  1809     0072                     ??_init_adc:	
  1810                           ; 1 bytes @ 0x2
  1811                           
  1812     0072                     ?___bmul:	
  1813                           ; 1 bytes @ 0x2
  1814                           
  1815     0072                     ?_strncmp:	
  1816                           ; 1 bytes @ 0x2
  1817                           
  1818     0072                     ?_read_adc:	
  1819                           ; 2 bytes @ 0x2
  1820                           
  1821     0072                     ?___wmul:	
  1822                           ; 2 bytes @ 0x2
  1823                           
  1824     0072                     ?___awdiv:	
  1825                           ; 2 bytes @ 0x2
  1826                           
  1827     0072                     ?___awmod:	
  1828                           ; 2 bytes @ 0x2
  1829                           
  1830     0072                     ?___lldiv:	
  1831                           ; 2 bytes @ 0x2
  1832                           
  1833     0072                     clcd_write@mode:	
  1834                           ; 4 bytes @ 0x2
  1835                           
  1836     0072                     i2c_read@ack:	
  1837                           ; 1 bytes @ 0x2
  1838                           
  1839     0072                     i2c_write@data:	
  1840                           ; 1 bytes @ 0x2
  1841                           
  1842     0072                     read_digital_keypad@key:	
  1843                           ; 1 bytes @ 0x2
  1844                           
  1845     0072                     putchar@data:	
  1846                           ; 1 bytes @ 0x2
  1847                           
  1848     0072                     ___bmul@multiplicand:	
  1849                           ; 1 bytes @ 0x2
  1850                           
  1851     0072                     strncmp@s2:	
  1852                           ; 1 bytes @ 0x2
  1853                           
  1854     0072                     ___wmul@multiplier:	
  1855                           ; 1 bytes @ 0x2
  1856                           
  1857     0072                     ___awdiv@divisor:	
  1858                           ; 2 bytes @ 0x2
  1859                           
  1860     0072                     ___awmod@divisor:	
  1861                           ; 2 bytes @ 0x2
  1862                           
  1863     0072                     strcpy@from:	
  1864                           ; 2 bytes @ 0x2
  1865                           
  1866     0072                     strncpy@from:	
  1867                           ; 2 bytes @ 0x2
  1868                           
  1869     0072                     ___lldiv@divisor:	
  1870                           ; 2 bytes @ 0x2
  1871                           
  1872                           
  1873                           ; 4 bytes @ 0x2
  1874     0072                     	ds	1
  1875     0073                     ?_write_ds1307:
  1876     0073                     ?_puts:	
  1877                           ; 1 bytes @ 0x3
  1878                           
  1879     0073                     ??_clcd_write:	
  1880                           ; 1 bytes @ 0x3
  1881                           
  1882     0073                     ?_eeprom_at24c04_byte_write:	
  1883                           ; 1 bytes @ 0x3
  1884                           
  1885     0073                     ??___bmul:	
  1886                           ; 1 bytes @ 0x3
  1887                           
  1888     0073                     write_ds1307@data:	
  1889                           ; 1 bytes @ 0x3
  1890                           
  1891     0073                     i2c_read@data:	
  1892                           ; 1 bytes @ 0x3
  1893                           
  1894     0073                     eeprom_at24c04_byte_write@data:	
  1895                           ; 1 bytes @ 0x3
  1896                           
  1897     0073                     puts@s:	
  1898                           ; 1 bytes @ 0x3
  1899                           
  1900     0073                     strncmp@len:	
  1901                           ; 2 bytes @ 0x3
  1902                           
  1903                           
  1904                           ; 2 bytes @ 0x3
  1905     0073                     	ds	1
  1906     0074                     ??_read_ds1307:
  1907     0074                     ??_write_ds1307:	
  1908                           ; 1 bytes @ 0x4
  1909                           
  1910     0074                     ??_strcpy:	
  1911                           ; 1 bytes @ 0x4
  1912                           
  1913     0074                     ??_eeprom_at24c04_random_read:	
  1914                           ; 1 bytes @ 0x4
  1915                           
  1916     0074                     ??_read_adc:	
  1917                           ; 1 bytes @ 0x4
  1918                           
  1919     0074                     ??_eeprom_at24c04_byte_write:	
  1920                           ; 1 bytes @ 0x4
  1921                           
  1922     0074                     read_ds1307@addr:	
  1923                           ; 1 bytes @ 0x4
  1924                           
  1925     0074                     write_ds1307@addr:	
  1926                           ; 1 bytes @ 0x4
  1927                           
  1928     0074                     eeprom_at24c04_random_read@memory_loc:	
  1929                           ; 1 bytes @ 0x4
  1930                           
  1931     0074                     ___bmul@product:	
  1932                           ; 1 bytes @ 0x4
  1933                           
  1934     0074                     read_adc@adc_reg_val:	
  1935                           ; 1 bytes @ 0x4
  1936                           
  1937     0074                     ___wmul@multiplicand:	
  1938                           ; 2 bytes @ 0x4
  1939                           
  1940     0074                     ___awdiv@dividend:	
  1941                           ; 2 bytes @ 0x4
  1942                           
  1943     0074                     ___awmod@dividend:	
  1944                           ; 2 bytes @ 0x4
  1945                           
  1946     0074                     strncpy@size:	
  1947                           ; 2 bytes @ 0x4
  1948                           
  1949                           
  1950                           ; 2 bytes @ 0x4
  1951     0074                     	ds	1
  1952     0075                     ??_strncmp:
  1953     0075                     ??_puts:	
  1954                           ; 1 bytes @ 0x5
  1955                           
  1956     0075                     clcd_write@byte:	
  1957                           ; 1 bytes @ 0x5
  1958                           
  1959     0075                     read_ds1307@data:	
  1960                           ; 1 bytes @ 0x5
  1961                           
  1962     0075                     eeprom_at24c04_random_read@received_data:	
  1963                           ; 1 bytes @ 0x5
  1964                           
  1965     0075                     ___bmul@multiplier:	
  1966                           ; 1 bytes @ 0x5
  1967                           
  1968     0075                     strcpy@cp:	
  1969                           ; 1 bytes @ 0x5
  1970                           
  1971                           
  1972                           ; 1 bytes @ 0x5
  1973     0075                     	ds	1
  1974     0076                     ??_clear_screen:
  1975     0076                     ??_download_log:	
  1976                           ; 1 bytes @ 0x6
  1977                           
  1978     0076                     ??_strncpy:	
  1979                           ; 1 bytes @ 0x6
  1980                           
  1981     0076                     ??_init_display_controller:	
  1982                           ; 1 bytes @ 0x6
  1983                           
  1984     0076                     ?_clcd_print:	
  1985                           ; 1 bytes @ 0x6
  1986                           
  1987     0076                     ??_init_ds1307:	
  1988                           ; 1 bytes @ 0x6
  1989                           
  1990     0076                     ??_get_time:	
  1991                           ; 1 bytes @ 0x6
  1992                           
  1993     0076                     ??___wmul:	
  1994                           ; 1 bytes @ 0x6
  1995                           
  1996     0076                     ??___awdiv:	
  1997                           ; 1 bytes @ 0x6
  1998                           
  1999     0076                     ??___awmod:	
  2000                           ; 1 bytes @ 0x6
  2001                           
  2002     0076                     ?___lwdiv:	
  2003                           ; 1 bytes @ 0x6
  2004                           
  2005     0076                     init_ds1307@dummy:	
  2006                           ; 2 bytes @ 0x6
  2007                           
  2008     0076                     eeprom_at24c04_byte_write@memory_loc:	
  2009                           ; 1 bytes @ 0x6
  2010                           
  2011     0076                     strcpy@to:	
  2012                           ; 1 bytes @ 0x6
  2013                           
  2014     0076                     clcd_print@str:	
  2015                           ; 1 bytes @ 0x6
  2016                           
  2017     0076                     ___wmul@product:	
  2018                           ; 2 bytes @ 0x6
  2019                           
  2020     0076                     ___lwdiv@divisor:	
  2021                           ; 2 bytes @ 0x6
  2022                           
  2023     0076                     ___lldiv@dividend:	
  2024                           ; 2 bytes @ 0x6
  2025                           
  2026                           
  2027                           ; 4 bytes @ 0x6
  2028     0076                     	ds	1
  2029     0077                     ?_eeprom_at24c04_str_write:
  2030     0077                     ___awmod@counter:	
  2031                           ; 1 bytes @ 0x7
  2032                           
  2033     0077                     strncmp@s1:	
  2034                           ; 1 bytes @ 0x7
  2035                           
  2036     0077                     eeprom_at24c04_str_write@data:	
  2037                           ; 1 bytes @ 0x7
  2038                           
  2039                           
  2040                           ; 2 bytes @ 0x7
  2041     0077                     	ds	1
  2042     0078                     ??_init_clcd:
  2043     0078                     clcd_print@addr:	
  2044                           ; 1 bytes @ 0x8
  2045                           
  2046     0078                     ___awmod@sign:	
  2047                           ; 1 bytes @ 0x8
  2048                           
  2049     0078                     ___lwdiv@dividend:	
  2050                           ; 1 bytes @ 0x8
  2051                           
  2052                           
  2053                           ; 2 bytes @ 0x8
  2054     0078                     	ds	1
  2055     0079                     ??_eeprom_at24c04_str_write:
  2056     0079                     ??_clear_log:	
  2057                           ; 1 bytes @ 0x9
  2058                           
  2059     0079                     ??_clcd_print:	
  2060                           ; 1 bytes @ 0x9
  2061                           
  2062     0079                     clear_log@reset_memory:	
  2063                           ; 1 bytes @ 0x9
  2064                           
  2065                           
  2066                           ; 1 bytes @ 0x9
  2067     0079                     	ds	1
  2068     007A                     ??_clcd_putch:
  2069     007A                     ??_init_config:	
  2070                           ; 1 bytes @ 0xA
  2071                           
  2072     007A                     ??_display_time:	
  2073                           ; 1 bytes @ 0xA
  2074                           
  2075     007A                     ??_log_event:	
  2076                           ; 1 bytes @ 0xA
  2077                           
  2078                           
  2079                           	psect	cstackBANK0
  2080     0045                     __pcstackBANK0:	
  2081                           ; 1 bytes @ 0xA
  2082                           
  2083     0045                     ??___lldiv:
  2084     0045                     ??___lwdiv:	
  2085                           ; 1 bytes @ 0x0
  2086                           
  2087     0045                     eeprom_at24c04_str_write@memory_loc:	
  2088                           ; 1 bytes @ 0x0
  2089                           
  2090     0045                     ___awdiv@counter:	
  2091                           ; 1 bytes @ 0x0
  2092                           
  2093     0045                     strncpy@to:	
  2094                           ; 1 bytes @ 0x0
  2095                           
  2096     0045                     download_log@log:	
  2097                           ; 1 bytes @ 0x0
  2098                           
  2099                           
  2100                           ; 11 bytes @ 0x0
  2101     0045                     	ds	1
  2102     0046                     log_event@addr:
  2103     0046                     ___awdiv@sign:	
  2104                           ; 1 bytes @ 0x1
  2105                           
  2106     0046                     ___lwdiv@counter:	
  2107                           ; 1 bytes @ 0x1
  2108                           
  2109     0046                     strncpy@cp:	
  2110                           ; 1 bytes @ 0x1
  2111                           
  2112     0046                     ___lldiv@quotient:	
  2113                           ; 1 bytes @ 0x1
  2114                           
  2115                           
  2116                           ; 4 bytes @ 0x1
  2117     0046                     	ds	1
  2118     0047                     ___awdiv@quotient:
  2119     0047                     ___lwdiv@quotient:	
  2120                           ; 2 bytes @ 0x2
  2121                           
  2122                           
  2123                           ; 2 bytes @ 0x2
  2124     0047                     	ds	2
  2125     0049                     ?_log_car_event:
  2126     0049                     ?___lwmod:	
  2127                           ; 1 bytes @ 0x4
  2128                           
  2129     0049                     log_car_event@event:	
  2130                           ; 2 bytes @ 0x4
  2131                           
  2132     0049                     ___lwmod@divisor:	
  2133                           ; 2 bytes @ 0x4
  2134                           
  2135                           
  2136                           ; 2 bytes @ 0x4
  2137     0049                     	ds	1
  2138     004A                     ___lldiv@counter:
  2139                           
  2140                           ; 1 bytes @ 0x5
  2141     004A                     	ds	1
  2142     004B                     ?_init_uart:
  2143     004B                     ?_init_i2c:	
  2144                           ; 1 bytes @ 0x6
  2145                           
  2146     004B                     log_car_event@speed:	
  2147                           ; 1 bytes @ 0x6
  2148                           
  2149     004B                     ___lwmod@dividend:	
  2150                           ; 1 bytes @ 0x6
  2151                           
  2152     004B                     init_i2c@baud:	
  2153                           ; 2 bytes @ 0x6
  2154                           
  2155     004B                     init_uart@baud:	
  2156                           ; 4 bytes @ 0x6
  2157                           
  2158                           
  2159                           ; 4 bytes @ 0x6
  2160     004B                     	ds	1
  2161     004C                     ??_log_car_event:
  2162                           
  2163                           ; 1 bytes @ 0x7
  2164     004C                     	ds	1
  2165     004D                     ??___lwmod:
  2166                           
  2167                           ; 1 bytes @ 0x8
  2168     004D                     	ds	1
  2169     004E                     ___lwmod@counter:
  2170                           
  2171                           ; 1 bytes @ 0x9
  2172     004E                     	ds	1
  2173     004F                     ??_init_uart:
  2174     004F                     ?_clcd_putch:	
  2175                           ; 1 bytes @ 0xA
  2176                           
  2177     004F                     ??_init_i2c:	
  2178                           ; 1 bytes @ 0xA
  2179                           
  2180     004F                     clcd_putch@addr:	
  2181                           ; 1 bytes @ 0xA
  2182                           
  2183                           
  2184                           ; 1 bytes @ 0xA
  2185     004F                     	ds	1
  2186     0050                     clcd_putch@data:
  2187     0050                     download_log@add:	
  2188                           ; 1 bytes @ 0xB
  2189                           
  2190                           
  2191                           ; 1 bytes @ 0xB
  2192     0050                     	ds	1
  2193     0051                     ?_display_dashboard:
  2194     0051                     ?_login:	
  2195                           ; 1 bytes @ 0xC
  2196                           
  2197     0051                     ?_login_menu:	
  2198                           ; 1 bytes @ 0xC
  2199                           
  2200     0051                     ?_view_log:	
  2201                           ; 1 bytes @ 0xC
  2202                           
  2203     0051                     ?_change_password:	
  2204                           ; 1 bytes @ 0xC
  2205                           
  2206     0051                     ?_change_time:	
  2207                           ; 1 bytes @ 0xC
  2208                           
  2209     0051                     display_dashboard@speed:	
  2210                           ; 1 bytes @ 0xC
  2211                           
  2212     0051                     login@reset_flag:	
  2213                           ; 1 bytes @ 0xC
  2214                           
  2215     0051                     login_menu@reset_flag:	
  2216                           ; 1 bytes @ 0xC
  2217                           
  2218     0051                     view_log@reset_index:	
  2219                           ; 1 bytes @ 0xC
  2220                           
  2221     0051                     change_password@reset_pwd:	
  2222                           ; 1 bytes @ 0xC
  2223                           
  2224     0051                     change_time@reset_time:	
  2225                           ; 1 bytes @ 0xC
  2226                           
  2227     0051                     download_log@position:	
  2228                           ; 1 bytes @ 0xC
  2229                           
  2230                           
  2231                           ; 2 bytes @ 0xC
  2232     0051                     	ds	1
  2233     0052                     ??_display_dashboard:
  2234     0052                     ??_login:	
  2235                           ; 1 bytes @ 0xD
  2236                           
  2237     0052                     ??_login_menu:	
  2238                           ; 1 bytes @ 0xD
  2239                           
  2240     0052                     ??_view_log:	
  2241                           ; 1 bytes @ 0xD
  2242                           
  2243     0052                     ??_change_password:	
  2244                           ; 1 bytes @ 0xD
  2245                           
  2246     0052                     ??_change_time:	
  2247                           ; 1 bytes @ 0xD
  2248                           
  2249                           
  2250                           ; 1 bytes @ 0xD
  2251     0052                     	ds	1
  2252     0053                     download_log@index:
  2253                           
  2254                           ; 2 bytes @ 0xE
  2255     0053                     	ds	1
  2256     0054                     display_dashboard@event:
  2257     0054                     login_menu@key:	
  2258                           ; 1 bytes @ 0xF
  2259                           
  2260     0054                     view_log@log:	
  2261                           ; 1 bytes @ 0xF
  2262                           
  2263                           
  2264                           ; 11 bytes @ 0xF
  2265     0054                     	ds	1
  2266     0055                     change_password@key:
  2267     0055                     change_time@key:	
  2268                           ; 1 bytes @ 0x10
  2269                           
  2270     0055                     download_log@i:	
  2271                           ; 1 bytes @ 0x10
  2272                           
  2273     0055                     _login$1103:	
  2274                           ; 2 bytes @ 0x10
  2275                           
  2276                           
  2277                           ; 2 bytes @ 0x10
  2278     0055                     	ds	1
  2279     0056                     change_time@buffer:
  2280                           
  2281                           ; 1 bytes @ 0x11
  2282     0056                     	ds	1
  2283     0057                     login@spassword:
  2284                           
  2285                           ; 4 bytes @ 0x12
  2286     0057                     	ds	4
  2287     005B                     login@key:
  2288                           
  2289                           ; 1 bytes @ 0x16
  2290     005B                     	ds	1
  2291     005C                     login@j:
  2292                           
  2293                           ; 2 bytes @ 0x17
  2294     005C                     	ds	3
  2295     005F                     view_log@position:
  2296                           
  2297                           ; 2 bytes @ 0x1A
  2298     005F                     	ds	2
  2299     0061                     view_log@add:
  2300                           
  2301                           ; 1 bytes @ 0x1C
  2302     0061                     	ds	1
  2303     0062                     view_log@key:
  2304                           
  2305                           ; 1 bytes @ 0x1D
  2306     0062                     	ds	1
  2307     0063                     view_log@i:
  2308                           
  2309                           ; 2 bytes @ 0x1E
  2310     0063                     	ds	2
  2311     0065                     ??_main:
  2312                           
  2313                           ; 1 bytes @ 0x20
  2314     0065                     	ds	3
  2315                           
  2316                           	psect	maintext
  2317     0040                     __pmaintext:	
  2318 ;;
  2319 ;;Main: autosize = 0, tempsize = 3, incstack = 0, save=0
  2320 ;;
  2321 ;; *************** function _main *****************
  2322 ;; Defined at:
  2323 ;;		line 51 in file "main.c"
  2324 ;; Parameters:    Size  Location     Type
  2325 ;;		None
  2326 ;; Auto vars:     Size  Location     Type
  2327 ;;  event           3    1[BANK1 ] unsigned char [3]
  2328 ;;  key             1    8[BANK1 ] unsigned char 
  2329 ;;  control_flag    1    7[BANK1 ] unsigned char 
  2330 ;;  speed           1    6[BANK1 ] unsigned char 
  2331 ;;  reset_flag      1    5[BANK1 ] unsigned char 
  2332 ;;  gr              1    4[BANK1 ] unsigned char 
  2333 ;;  menu_pos        1    0[BANK1 ] unsigned char 
  2334 ;; Return value:  Size  Location     Type
  2335 ;;                  1    wreg      void 
  2336 ;; Registers used:
  2337 ;;		wreg, fsr0l, fsr0h, status,2, status,0, btemp+1, pclath, cstack
  2338 ;; Tracked objects:
  2339 ;;		On entry : B00/0
  2340 ;;		On exit  : 0/0
  2341 ;;		Unchanged: 0/0
  2342 ;; Data sizes:     COMMON   BANK0   BANK1   BANK3   BANK2
  2343 ;;      Params:         0       0       0       0       0
  2344 ;;      Locals:         0       0       9       0       0
  2345 ;;      Temps:          0       3       0       0       0
  2346 ;;      Totals:         0       3       9       0       0
  2347 ;;Total ram usage:       12 bytes
  2348 ;; Hardware stack levels required when called: 8
  2349 ;; This function calls:
  2350 ;;		___lwdiv
  2351 ;;		_change_password
  2352 ;;		_change_time
  2353 ;;		_clcd_print
  2354 ;;		_clcd_write
  2355 ;;		_clear_log
  2356 ;;		_clear_screen
  2357 ;;		_display_dashboard
  2358 ;;		_download_log
  2359 ;;		_eeprom_at24c04_str_write
  2360 ;;		_init_config
  2361 ;;		_log_car_event
  2362 ;;		_login
  2363 ;;		_login_menu
  2364 ;;		_read_adc
  2365 ;;		_read_digital_keypad
  2366 ;;		_strcpy
  2367 ;;		_view_log
  2368 ;; This function is called by:
  2369 ;;		Startup code after reset
  2370 ;; This function uses a non-reentrant model
  2371 ;;
  2372                           
  2373     0040                     _main:	
  2374                           ;psect for function _main
  2375                           
  2376     0040                     l5342:	
  2377                           ;incstack = 0
  2378                           ; Regs used in _main: [wreg-fsr0h+status,2+status,0+btemp+1+pclath+cstack]
  2379                           
  2380                           
  2381                           ;main.c: 54: 
  2382     0040  1683               	bsf	3,5	;RP0=1, select bank1
  2383     0041  1303               	bcf	3,6	;RP1=0, select bank1
  2384     0042  01D8               	clrf	main@control_flag^(0+128)
  2385     0043  0AD8               	incf	main@control_flag^(0+128),f
  2386     0044                     l5344:
  2387                           
  2388                           ;main.c: 55: 
  2389     0044  0836               	movf	main@F1011^(0+128),w
  2390     0045  00D2               	movwf	main@event^(0+128)
  2391     0046  0837               	movf	(main@F1011+1)^(0+128),w
  2392     0047  00D3               	movwf	(main@event+1)^(0+128)
  2393     0048  0838               	movf	(main@F1011+2)^(0+128),w
  2394     0049  00D4               	movwf	(main@event+2)^(0+128)
  2395     004A                     l5346:
  2396     004A                     l5348:
  2397                           
  2398                           ;main.c: 57: 
  2399     004A  01D5               	clrf	main@gr^(0+128)
  2400     004B                     l5350:
  2401                           
  2402                           ;main.c: 58: ;main.c: 59:         if (key == 0x3E);main.c: 60:         {;main.c: 62:    
      +                                   log_car_event(event, speed);
  2403     004B  160A  118A  2415  120A  118A  	fcall	_init_config
  2404     0050                     l5352:
  2405                           
  2406                           ;main.c: 64: 
  2407     0050  30CD               	movlw	low (STR_7| (0+32768))
  2408     0051  00F7               	movwf	eeprom_at24c04_str_write@data
  2409     0052  3088               	movlw	high (STR_7| (0+32768))
  2410     0053  00F8               	movwf	eeprom_at24c04_str_write@data+1
  2411     0054  3000               	movlw	0
  2412     0055  160A  118A  234C  120A  118A  	fcall	_eeprom_at24c04_str_write
  2413     005A                     l5354:
  2414                           
  2415                           ;main.c: 66:         {
  2416     005A  30D2               	movlw	(low (main@event| 0))& (0+255)
  2417     005B  1283               	bcf	3,5	;RP0=0, select bank0
  2418     005C  1303               	bcf	3,6	;RP1=0, select bank0
  2419     005D  00C9               	movwf	log_car_event@event
  2420     005E  3000               	movlw	0
  2421     005F  00CA               	movwf	log_car_event@event+1
  2422     0060  01CB               	clrf	log_car_event@speed
  2423     0061  160A  118A  26E7  120A  118A  	fcall	_log_car_event
  2424     0066                     l5356:
  2425                           
  2426                           ;main.c: 69:             log_car_event(event, speed);;main.c: 70:         }
  2427     0066  300A               	movlw	10
  2428     0067  00F6               	movwf	___lwdiv@divisor
  2429     0068  3000               	movlw	0
  2430     0069  00F7               	movwf	___lwdiv@divisor+1
  2431     006A  160A  118A  2152  120A  118A  	fcall	_read_adc
  2432     006F  0873               	movf	?_read_adc+1,w
  2433     0070  00F9               	movwf	___lwdiv@dividend+1
  2434     0071  0872               	movf	?_read_adc,w
  2435     0072  00F8               	movwf	___lwdiv@dividend
  2436     0073  160A  118A  2508  120A  118A  	fcall	___lwdiv
  2437     0078  0876               	movf	?___lwdiv,w
  2438     0079  1683               	bsf	3,5	;RP0=1, select bank1
  2439     007A  1303               	bcf	3,6	;RP1=0, select bank1
  2440     007B  00D7               	movwf	main@speed^(0+128)
  2441                           
  2442                           ;main.c: 73:         {
  2443     007C  3064               	movlw	100
  2444     007D  0257               	subwf	main@speed^(0+128),w
  2445     007E  1C03               	skipc
  2446     007F  2881               	goto	u4661
  2447     0080  2882               	goto	u4660
  2448     0081                     u4661:
  2449     0081  2884               	goto	l5360
  2450     0082                     u4660:
  2451     0082                     l5358:
  2452                           
  2453                           ;main.c: 74:             gr--;;main.c: 75:             strcpy(event, gear[gr]);
  2454     0082  3063               	movlw	99
  2455     0083  00D7               	movwf	main@speed^(0+128)
  2456     0084                     l5360:
  2457                           
  2458                           ;main.c: 80:         {
  2459     0084  120A  158A  211B  120A  118A  	fcall	_read_digital_keypad
  2460     0089  1683               	bsf	3,5	;RP0=1, select bank1
  2461     008A  1303               	bcf	3,6	;RP1=0, select bank1
  2462     008B  00D9               	movwf	main@key^(0+128)
  2463     008C                     l5362:
  2464                           
  2465                           ;main.c: 87:             _delay((unsigned long)((100)*(20000000/4000000.0)));
  2466     008C  303E               	movlw	62
  2467     008D  0659               	xorwf	main@key^(0+128),w
  2468     008E  1D03               	btfss	3,2
  2469     008F  2891               	goto	u4671
  2470     0090  2892               	goto	u4670
  2471     0091                     u4671:
  2472     0091  28AE               	goto	l5366
  2473     0092                     u4670:
  2474     0092                     l5364:
  2475                           
  2476                           ;main.c: 88: ;main.c: 89:             control_flag = 0x02;
  2477     0092  30E7               	movlw	low (STR_8| (0+32768))
  2478     0093  00F2               	movwf	strcpy@from
  2479     0094  3088               	movlw	high (STR_8| (0+32768))
  2480     0095  00F3               	movwf	strcpy@from+1
  2481     0096  30D2               	movlw	(low (main@event| 0))& (0+255)
  2482     0097  160A  118A  2251  120A  118A  	fcall	_strcpy
  2483                           
  2484                           ;main.c: 90: 
  2485     009C  30D2               	movlw	(low (main@event| 0))& (0+255)
  2486     009D  1283               	bcf	3,5	;RP0=0, select bank0
  2487     009E  1303               	bcf	3,6	;RP1=0, select bank0
  2488     009F  00C9               	movwf	log_car_event@event
  2489     00A0  3000               	movlw	0
  2490     00A1  00CA               	movwf	log_car_event@event+1
  2491     00A2  1683               	bsf	3,5	;RP0=1, select bank1
  2492     00A3  1303               	bcf	3,6	;RP1=0, select bank1
  2493     00A4  0857               	movf	main@speed^(0+128),w
  2494     00A5  1283               	bcf	3,5	;RP0=0, select bank0
  2495     00A6  1303               	bcf	3,6	;RP1=0, select bank0
  2496     00A7  00CB               	movwf	log_car_event@speed
  2497     00A8  160A  118A  26E7  120A  118A  	fcall	_log_car_event
  2498                           
  2499                           ;main.c: 91:             reset_flag = 0x60;
  2500     00AD  2B93               	goto	l5566
  2501     00AE                     l5366:
  2502     00AE  303D               	movlw	61
  2503     00AF  0659               	xorwf	main@key^(0+128),w
  2504     00B0  1D03               	btfss	3,2
  2505     00B1  28B3               	goto	u4681
  2506     00B2  28B4               	goto	u4680
  2507     00B3                     u4681:
  2508     00B3  28E8               	goto	l5376
  2509     00B4                     u4680:
  2510     00B4                     l5368:
  2511     00B4  3006               	movlw	6
  2512     00B5  0255               	subwf	main@gr^(0+128),w
  2513     00B6  1803               	skipnc
  2514     00B7  28B9               	goto	u4691
  2515     00B8  28BA               	goto	u4690
  2516     00B9                     u4691:
  2517     00B9  28E8               	goto	l5376
  2518     00BA                     u4690:
  2519     00BA                     l5370:
  2520                           
  2521                           ;main.c: 94:         };main.c: 95: 
  2522     00BA  0855               	movf	main@gr^(0+128),w
  2523     00BB  1283               	bcf	3,5	;RP0=0, select bank0
  2524     00BC  1303               	bcf	3,6	;RP1=0, select bank0
  2525     00BD  00E5               	movwf	??_main
  2526     00BE  0765               	addwf	??_main,w
  2527     00BF  3EA0               	addlw	(low (_gear| 0))& (0+255)
  2528     00C0  0084               	movwf	4
  2529     00C1  1383               	bcf	3,7	;select IRP bank1
  2530     00C2  0800               	movf	0,w
  2531     00C3  00F2               	movwf	strcpy@from
  2532     00C4  0A84               	incf	4,f
  2533     00C5  0800               	movf	0,w
  2534     00C6  0384               	decf	4,f
  2535     00C7  00F3               	movwf	strcpy@from+1
  2536     00C8  30D2               	movlw	(low (main@event| 0))& (0+255)
  2537     00C9  160A  118A  2251  120A  118A  	fcall	_strcpy
  2538     00CE                     l5372:
  2539                           
  2540                           ;main.c: 96:         else if (key == 0x80 && control_flag == 0x03)
  2541     00CE  3001               	movlw	1
  2542     00CF  1283               	bcf	3,5	;RP0=0, select bank0
  2543     00D0  1303               	bcf	3,6	;RP1=0, select bank0
  2544     00D1  00E5               	movwf	??_main
  2545     00D2  0865               	movf	??_main,w
  2546     00D3  1683               	bsf	3,5	;RP0=1, select bank1
  2547     00D4  1303               	bcf	3,6	;RP1=0, select bank1
  2548     00D5  07D5               	addwf	main@gr^(0+128),f
  2549     00D6                     l5374:
  2550                           
  2551                           ;main.c: 97:         {
  2552     00D6  30D2               	movlw	(low (main@event| 0))& (0+255)
  2553     00D7  1283               	bcf	3,5	;RP0=0, select bank0
  2554     00D8  1303               	bcf	3,6	;RP1=0, select bank0
  2555     00D9  00C9               	movwf	log_car_event@event
  2556     00DA  3000               	movlw	0
  2557     00DB  00CA               	movwf	log_car_event@event+1
  2558     00DC  1683               	bsf	3,5	;RP0=1, select bank1
  2559     00DD  1303               	bcf	3,6	;RP1=0, select bank1
  2560     00DE  0857               	movf	main@speed^(0+128),w
  2561     00DF  1283               	bcf	3,5	;RP0=0, select bank0
  2562     00E0  1303               	bcf	3,6	;RP1=0, select bank0
  2563     00E1  00CB               	movwf	log_car_event@speed
  2564     00E2  160A  118A  26E7  120A  118A  	fcall	_log_car_event
  2565                           
  2566                           ;main.c: 98:             switch (menu_pos)
  2567     00E7  2B93               	goto	l5566
  2568     00E8                     l5376:
  2569     00E8  303B               	movlw	59
  2570     00E9  0659               	xorwf	main@key^(0+128),w
  2571     00EA  1D03               	btfss	3,2
  2572     00EB  28ED               	goto	u4701
  2573     00EC  28EE               	goto	u4700
  2574     00ED                     u4701:
  2575     00ED  290A               	goto	l5386
  2576     00EE                     u4700:
  2577     00EE                     l5378:
  2578     00EE  0855               	movf	main@gr^(0+128),w
  2579     00EF  1903               	btfsc	3,2
  2580     00F0  28F2               	goto	u4711
  2581     00F1  28F3               	goto	u4710
  2582     00F2                     u4711:
  2583     00F2  290A               	goto	l5386
  2584     00F3                     u4710:
  2585     00F3                     l5380:
  2586                           
  2587                           ;main.c: 101: ;main.c: 102:                     clear_screen();
  2588     00F3  3001               	movlw	1
  2589     00F4  02D5               	subwf	main@gr^(0+128),f
  2590     00F5                     l5382:
  2591                           
  2592                           ;main.c: 103:                     clcd_print("      Logs      ", (0x80 + 0));
  2593     00F5  0855               	movf	main@gr^(0+128),w
  2594     00F6  1283               	bcf	3,5	;RP0=0, select bank0
  2595     00F7  1303               	bcf	3,6	;RP1=0, select bank0
  2596     00F8  00E5               	movwf	??_main
  2597     00F9  0765               	addwf	??_main,w
  2598     00FA  3EA0               	addlw	(low (_gear| 0))& (0+255)
  2599     00FB  0084               	movwf	4
  2600     00FC  1383               	bcf	3,7	;select IRP bank1
  2601     00FD  0800               	movf	0,w
  2602     00FE  00F2               	movwf	strcpy@from
  2603     00FF  0A84               	incf	4,f
  2604     0100  0800               	movf	0,w
  2605     0101  0384               	decf	4,f
  2606     0102  00F3               	movwf	strcpy@from+1
  2607     0103  30D2               	movlw	(low (main@event| 0))& (0+255)
  2608     0104  160A  118A  2251  120A  118A  	fcall	_strcpy
  2609     0109  28D6               	goto	l5374
  2610     010A                     l5386:
  2611     010A  3037               	movlw	55
  2612     010B  0659               	xorwf	main@key^(0+128),w
  2613     010C  1903               	btfsc	3,2
  2614     010D  290F               	goto	u4721
  2615     010E  2910               	goto	u4720
  2616     010F                     u4721:
  2617     010F  2916               	goto	l5390
  2618     0110                     u4720:
  2619     0110                     l5388:
  2620     0110  302F               	movlw	47
  2621     0111  0659               	xorwf	main@key^(0+128),w
  2622     0112  1D03               	btfss	3,2
  2623     0113  2915               	goto	u4731
  2624     0114  2916               	goto	u4730
  2625     0115                     u4731:
  2626     0115  294A               	goto	l5408
  2627     0116                     u4730:
  2628     0116                     l5390:
  2629     0116  0358               	decf	main@control_flag^(0+128),w
  2630     0117  1D03               	btfss	3,2
  2631     0118  291A               	goto	u4741
  2632     0119  291B               	goto	u4740
  2633     011A                     u4741:
  2634     011A  294A               	goto	l5408
  2635     011B                     u4740:
  2636     011B                     l5392:
  2637                           
  2638                           ;main.c: 108:                 case 1:;main.c: 109: 
  2639     011B  160A  118A  2141  120A  118A  	fcall	_clear_screen
  2640     0120                     l5394:
  2641                           
  2642                           ;main.c: 111:                     control_flag = 0x09;
  2643     0120  3014               	movlw	low (STR_9| (0+32768))
  2644     0121  00F6               	movwf	clcd_print@str
  2645     0122  3088               	movlw	high (STR_9| (0+32768))
  2646     0123  00F7               	movwf	clcd_print@str+1
  2647     0124  3080               	movlw	128
  2648     0125  00F8               	movwf	clcd_print@addr
  2649     0126  160A  118A  231D  120A  118A  	fcall	_clcd_print
  2650     012B                     l5396:
  2651                           
  2652                           ;main.c: 113:                     break;
  2653     012B  01F2               	clrf	clcd_write@mode
  2654     012C  30C6               	movlw	198
  2655     012D  160A  118A  21EB  120A  118A  	fcall	_clcd_write
  2656     0132                     l5398:
  2657                           
  2658                           ;main.c: 114: 
  2659     0132  01F2               	clrf	clcd_write@mode
  2660     0133  300F               	movlw	15
  2661     0134  160A  118A  21EB  120A  118A  	fcall	_clcd_write
  2662     0139                     l5400:
  2663                           
  2664                           ;main.c: 115:                 case 2:
  2665     0139  30A5               	movlw	165
  2666     013A  1283               	bcf	3,5	;RP0=0, select bank0
  2667     013B  1303               	bcf	3,6	;RP1=0, select bank0
  2668     013C  00E5               	movwf	??_main
  2669     013D                     u4867:
  2670     013D  0BE5               	decfsz	??_main,f
  2671     013E  293D               	goto	u4867
  2672     013F  2940               	nop2
  2673     0140                     l5402:
  2674                           
  2675                           ;main.c: 117:                     clear_screen();
  2676     0140  3002               	movlw	2
  2677     0141  1683               	bsf	3,5	;RP0=1, select bank1
  2678     0142  1303               	bcf	3,6	;RP1=0, select bank1
  2679     0143  00D8               	movwf	main@control_flag^(0+128)
  2680     0144                     l5404:
  2681                           
  2682                           ;main.c: 119:                     clcd_print("      Open      ", (0x80 + 0));
  2683     0144  3060               	movlw	96
  2684     0145  00D6               	movwf	main@reset_flag^(0+128)
  2685     0146                     l5406:
  2686                           
  2687                           ;main.c: 121:                     download_log();
  2688     0146  1283               	bcf	3,5	;RP0=0, select bank0
  2689     0147  1303               	bcf	3,6	;RP1=0, select bank0
  2690     0148  1512               	bsf	18,2	;volatile
  2691                           
  2692                           ;main.c: 122:                     _delay((unsigned long)((2000)*(20000000/4000.0)));
  2693     0149  2B93               	goto	l5566
  2694     014A                     l5408:
  2695     014A  3080               	movlw	128
  2696     014B  0659               	xorwf	main@key^(0+128),w
  2697     014C  1D03               	btfss	3,2
  2698     014D  294F               	goto	u4751
  2699     014E  2950               	goto	u4750
  2700     014F                     u4751:
  2701     014F  2A02               	goto	l5464
  2702     0150                     u4750:
  2703     0150                     l5410:
  2704     0150  3003               	movlw	3
  2705     0151  0658               	xorwf	main@control_flag^(0+128),w
  2706     0152  1D03               	btfss	3,2
  2707     0153  2955               	goto	u4761
  2708     0154  2956               	goto	u4760
  2709     0155                     u4761:
  2710     0155  2A02               	goto	l5464
  2711     0156                     u4760:
  2712     0156  29E7               	goto	l5462
  2713     0157                     l5414:
  2714                           
  2715                           ;main.c: 130:                     control_flag = 0x11;
  2716     0157  160A  118A  2141  120A  118A  	fcall	_clear_screen
  2717     015C                     l5416:
  2718                           
  2719                           ;main.c: 131:                     reset_flag = 0x60;
  2720     015C  30F2               	movlw	low (STR_10| (0+32768))
  2721     015D  00F6               	movwf	clcd_print@str
  2722     015E  3087               	movlw	high (STR_10| (0+32768))
  2723     015F  00F7               	movwf	clcd_print@str+1
  2724     0160  3080               	movlw	128
  2725     0161  00F8               	movwf	clcd_print@addr
  2726     0162  160A  118A  231D  120A  118A  	fcall	_clcd_print
  2727     0167                     l5418:
  2728                           
  2729                           ;main.c: 132:                     TMR2ON = 1;
  2730     0167  3008               	movlw	8
  2731     0168  1683               	bsf	3,5	;RP0=1, select bank1
  2732     0169  1303               	bcf	3,6	;RP1=0, select bank1
  2733     016A  00D8               	movwf	main@control_flag^(0+128)
  2734     016B                     l5420:
  2735                           
  2736                           ;main.c: 133:                     break;
  2737     016B  3020               	movlw	32
  2738     016C  00D6               	movwf	main@reset_flag^(0+128)
  2739                           
  2740                           ;main.c: 134: 
  2741     016D  2B93               	goto	l5566
  2742     016E                     l5422:
  2743                           
  2744                           ;main.c: 138:                     log_car_event("ST", speed);
  2745     016E  160A  118A  2141  120A  118A  	fcall	_clear_screen
  2746     0173                     l5424:
  2747                           
  2748                           ;main.c: 139:                     control_flag = 0x12;
  2749     0173  3009               	movlw	9
  2750     0174  1683               	bsf	3,5	;RP0=1, select bank1
  2751     0175  1303               	bcf	3,6	;RP1=0, select bank1
  2752     0176  00D8               	movwf	main@control_flag^(0+128)
  2753     0177                     l5426:
  2754                           
  2755                           ;main.c: 140:                     reset_flag = 0x30;
  2756     0177  3040               	movlw	64
  2757     0178  00D6               	movwf	main@reset_flag^(0+128)
  2758                           
  2759                           ;main.c: 141:                     break;
  2760     0179  2B93               	goto	l5566
  2761     017A                     l5428:
  2762                           
  2763                           ;main.c: 145:         else if (key == 0x80 && control_flag == 0x08)
  2764     017A  160A  118A  2141  120A  118A  	fcall	_clear_screen
  2765     017F                     l5430:
  2766                           
  2767                           ;main.c: 146:         {
  2768     017F  30E1               	movlw	low (STR_11| (0+32768))
  2769     0180  1283               	bcf	3,5	;RP0=0, select bank0
  2770     0181  1303               	bcf	3,6	;RP1=0, select bank0
  2771     0182  00C9               	movwf	log_car_event@event
  2772     0183  3088               	movlw	high (STR_11| (0+32768))
  2773     0184  00CA               	movwf	log_car_event@event+1
  2774     0185  1683               	bsf	3,5	;RP0=1, select bank1
  2775     0186  1303               	bcf	3,6	;RP1=0, select bank1
  2776     0187  0857               	movf	main@speed^(0+128),w
  2777     0188  1283               	bcf	3,5	;RP0=0, select bank0
  2778     0189  1303               	bcf	3,6	;RP1=0, select bank0
  2779     018A  00CB               	movwf	log_car_event@speed
  2780     018B  160A  118A  26E7  120A  118A  	fcall	_log_car_event
  2781     0190                     l5432:
  2782                           
  2783                           ;main.c: 147:             control_flag = 0x03;
  2784     0190  30E1               	movlw	low (STR_12| (0+32768))
  2785     0191  00F6               	movwf	clcd_print@str
  2786     0192  3087               	movlw	high (STR_12| (0+32768))
  2787     0193  00F7               	movwf	clcd_print@str+1
  2788     0194  3080               	movlw	128
  2789     0195  00F8               	movwf	clcd_print@addr
  2790     0196  160A  118A  231D  120A  118A  	fcall	_clcd_print
  2791     019B                     l5434:
  2792                           
  2793                           ;main.c: 148:             clear_screen();
  2794     019B  3003               	movlw	low (STR_13| (0+32768))
  2795     019C  00F6               	movwf	clcd_print@str
  2796     019D  3088               	movlw	high (STR_13| (0+32768))
  2797     019E  00F7               	movwf	clcd_print@str+1
  2798     019F  30C0               	movlw	192
  2799     01A0  00F8               	movwf	clcd_print@addr
  2800     01A1  160A  118A  231D  120A  118A  	fcall	_clcd_print
  2801     01A6                     l5436:
  2802                           
  2803                           ;main.c: 149:         }
  2804     01A6  120A  158A  225D  120A  118A  	fcall	_download_log
  2805     01AB                     l5438:
  2806                           
  2807                           ;main.c: 150: 
  2808     01AB  3033               	movlw	51
  2809     01AC  1283               	bcf	3,5	;RP0=0, select bank0
  2810     01AD  1303               	bcf	3,6	;RP1=0, select bank0
  2811     01AE  00E7               	movwf	??_main+2
  2812     01AF  30BB               	movlw	187
  2813     01B0  00E6               	movwf	??_main+1
  2814     01B1  30DF               	movlw	223
  2815     01B2  00E5               	movwf	??_main
  2816     01B3                     u4877:
  2817     01B3  0BE5               	decfsz	??_main,f
  2818     01B4  29B3               	goto	u4877
  2819     01B5  0BE6               	decfsz	??_main+1,f
  2820     01B6  29B3               	goto	u4877
  2821     01B7  0BE7               	decfsz	??_main+2,f
  2822     01B8  29B3               	goto	u4877
  2823     01B9                     l5440:
  2824                           
  2825                           ;main.c: 151:         else if (key == 0x80 && control_flag == 0x11)
  2826     01B9  3003               	movlw	3
  2827     01BA  1683               	bsf	3,5	;RP0=1, select bank1
  2828     01BB  1303               	bcf	3,6	;RP1=0, select bank1
  2829     01BC  00D8               	movwf	main@control_flag^(0+128)
  2830     01BD                     l5442:
  2831                           
  2832                           ;main.c: 152:         {
  2833     01BD  3050               	movlw	80
  2834     01BE  00D6               	movwf	main@reset_flag^(0+128)
  2835                           
  2836                           ;main.c: 153:             control_flag = 0x03;
  2837     01BF  2B93               	goto	l5566
  2838     01C0                     l5444:
  2839                           
  2840                           ;main.c: 157:         else if (key == 0x90 && control_flag == 0x03)
  2841     01C0  160A  118A  2141  120A  118A  	fcall	_clear_screen
  2842     01C5                     l5446:
  2843                           
  2844                           ;main.c: 158:         {
  2845     01C5  3011               	movlw	17
  2846     01C6  1683               	bsf	3,5	;RP0=1, select bank1
  2847     01C7  1303               	bcf	3,6	;RP1=0, select bank1
  2848     01C8  00D8               	movwf	main@control_flag^(0+128)
  2849     01C9  2944               	goto	l5404
  2850     01CA                     l5452:
  2851                           
  2852                           ;main.c: 165: 
  2853     01CA  160A  118A  2141  120A  118A  	fcall	_clear_screen
  2854     01CF                     l5454:
  2855                           
  2856                           ;main.c: 166: 
  2857     01CF  30F0               	movlw	low (STR_14| (0+32768))
  2858     01D0  1283               	bcf	3,5	;RP0=0, select bank0
  2859     01D1  1303               	bcf	3,6	;RP1=0, select bank0
  2860     01D2  00C9               	movwf	log_car_event@event
  2861     01D3  3088               	movlw	high (STR_14| (0+32768))
  2862     01D4  00CA               	movwf	log_car_event@event+1
  2863     01D5  1683               	bsf	3,5	;RP0=1, select bank1
  2864     01D6  1303               	bcf	3,6	;RP1=0, select bank1
  2865     01D7  0857               	movf	main@speed^(0+128),w
  2866     01D8  1283               	bcf	3,5	;RP0=0, select bank0
  2867     01D9  1303               	bcf	3,6	;RP1=0, select bank0
  2868     01DA  00CB               	movwf	log_car_event@speed
  2869     01DB  160A  118A  26E7  120A  118A  	fcall	_log_car_event
  2870     01E0                     l5456:
  2871                           
  2872                           ;main.c: 167: 
  2873     01E0  3012               	movlw	18
  2874     01E1  1683               	bsf	3,5	;RP0=1, select bank1
  2875     01E2  1303               	bcf	3,6	;RP1=0, select bank1
  2876     01E3  00D8               	movwf	main@control_flag^(0+128)
  2877     01E4                     l5458:
  2878                           
  2879                           ;main.c: 168:         switch (control_flag)
  2880     01E4  3030               	movlw	48
  2881     01E5  00D6               	movwf	main@reset_flag^(0+128)
  2882                           
  2883                           ;main.c: 169:         {
  2884     01E6  2B93               	goto	l5566
  2885     01E7                     l5462:
  2886     01E7  0851               	movf	main@menu_pos^(0+128),w
  2887     01E8  1283               	bcf	3,5	;RP0=0, select bank0
  2888     01E9  1303               	bcf	3,6	;RP1=0, select bank0
  2889     01EA  00E5               	movwf	??_main
  2890     01EB  01E6               	clrf	??_main+1
  2891                           
  2892                           ; Switch on 2 bytes has been partitioned into a top level switch of size 1, and 1 sub-sw
      +                          itches
  2893                           ; Switch size 1, requested type "simple"
  2894                           ; Number of cases is 1, Range of values is 0 to 0
  2895                           ; switch strategies available:
  2896                           ; Name         Instructions Cycles
  2897                           ; simple_byte            4     3 (average)
  2898                           ; direct_byte           11     8 (fixed)
  2899                           ; jumptable            260     6 (fixed)
  2900                           ;	Chosen strategy is simple_byte
  2901     01EC  0866               	movf	??_main+1,w
  2902     01ED  3A00               	xorlw	0	; case 0
  2903     01EE  1903               	skipnz
  2904     01EF  29F1               	goto	l5830
  2905     01F0  2B93               	goto	l5566
  2906     01F1                     l5830:
  2907                           
  2908                           ; Switch size 1, requested type "simple"
  2909                           ; Number of cases is 5, Range of values is 0 to 4
  2910                           ; switch strategies available:
  2911                           ; Name         Instructions Cycles
  2912                           ; simple_byte           16     9 (average)
  2913                           ; direct_byte           23     8 (fixed)
  2914                           ; jumptable            260     6 (fixed)
  2915                           ;	Chosen strategy is simple_byte
  2916     01F1  0865               	movf	??_main,w
  2917     01F2  3A00               	xorlw	0	; case 0
  2918     01F3  1903               	skipnz
  2919     01F4  2957               	goto	l5414
  2920     01F5  3A01               	xorlw	1	; case 1
  2921     01F6  1903               	skipnz
  2922     01F7  296E               	goto	l5422
  2923     01F8  3A03               	xorlw	3	; case 2
  2924     01F9  1903               	skipnz
  2925     01FA  297A               	goto	l5428
  2926     01FB  3A01               	xorlw	1	; case 3
  2927     01FC  1903               	skipnz
  2928     01FD  29C0               	goto	l5444
  2929     01FE  3A07               	xorlw	7	; case 4
  2930     01FF  1903               	skipnz
  2931     0200  29CA               	goto	l5452
  2932     0201  2B93               	goto	l5566
  2933     0202                     l5464:
  2934     0202  3080               	movlw	128
  2935     0203  0659               	xorwf	main@key^(0+128),w
  2936     0204  1D03               	btfss	3,2
  2937     0205  2A07               	goto	u4771
  2938     0206  2A08               	goto	u4770
  2939     0207                     u4771:
  2940     0207  2A16               	goto	l5472
  2941     0208                     u4770:
  2942     0208                     l5466:
  2943     0208  3008               	movlw	8
  2944     0209  0658               	xorwf	main@control_flag^(0+128),w
  2945     020A  1D03               	btfss	3,2
  2946     020B  2A0D               	goto	u4781
  2947     020C  2A0E               	goto	u4780
  2948     020D                     u4781:
  2949     020D  2A16               	goto	l5472
  2950     020E                     u4780:
  2951     020E                     l5468:
  2952                           
  2953                           ;main.c: 174: ;main.c: 175:             case 0x02:
  2954     020E  3003               	movlw	3
  2955     020F  00D8               	movwf	main@control_flag^(0+128)
  2956     0210                     l5470:
  2957                           
  2958                           ;main.c: 176: 
  2959     0210  160A  118A  2141  120A  118A  	fcall	_clear_screen
  2960                           
  2961                           ;main.c: 177:                 switch (login(key, reset_flag))
  2962     0215  2B93               	goto	l5566
  2963     0216                     l5472:
  2964     0216  3080               	movlw	128
  2965     0217  0659               	xorwf	main@key^(0+128),w
  2966     0218  1D03               	btfss	3,2
  2967     0219  2A1B               	goto	u4791
  2968     021A  2A1C               	goto	u4790
  2969     021B                     u4791:
  2970     021B  2A23               	goto	l5480
  2971     021C                     u4790:
  2972     021C                     l5474:
  2973     021C  3011               	movlw	17
  2974     021D  0658               	xorwf	main@control_flag^(0+128),w
  2975     021E  1D03               	btfss	3,2
  2976     021F  2A21               	goto	u4801
  2977     0220  2A22               	goto	u4800
  2978     0221                     u4801:
  2979     0221  2A23               	goto	l5480
  2980     0222                     u4800:
  2981     0222  2A0E               	goto	l5468
  2982     0223                     l5480:
  2983     0223  3090               	movlw	144
  2984     0224  0659               	xorwf	main@key^(0+128),w
  2985     0225  1D03               	btfss	3,2
  2986     0226  2A28               	goto	u4811
  2987     0227  2A29               	goto	u4810
  2988     0228                     u4811:
  2989     0228  2A32               	goto	l205
  2990     0229                     u4810:
  2991     0229                     l5482:
  2992     0229  3003               	movlw	3
  2993     022A  0658               	xorwf	main@control_flag^(0+128),w
  2994     022B  1D03               	btfss	3,2
  2995     022C  2A2E               	goto	u4821
  2996     022D  2A2F               	goto	u4820
  2997     022E                     u4821:
  2998     022E  2A32               	goto	l205
  2999     022F                     u4820:
  3000     022F                     l5484:
  3001                           
  3002                           ;main.c: 186:                         break;;main.c: 187: 
  3003     022F  01D8               	clrf	main@control_flag^(0+128)
  3004     0230  0AD8               	incf	main@control_flag^(0+128),f
  3005     0231  2A10               	goto	l5470
  3006     0232                     l205:
  3007     0232  2B93               	goto	l5566
  3008     0233                     l5488:
  3009                           
  3010                           ;main.c: 200:             case 0x03:
  3011     0233  1683               	bsf	3,5	;RP0=1, select bank1
  3012     0234  1303               	bcf	3,6	;RP1=0, select bank1
  3013     0235  0857               	movf	main@speed^(0+128),w
  3014     0236  1283               	bcf	3,5	;RP0=0, select bank0
  3015     0237  1303               	bcf	3,6	;RP1=0, select bank0
  3016     0238  00D1               	movwf	display_dashboard@speed
  3017     0239  30D2               	movlw	(low (main@event| 0))& (0+255)
  3018     023A  160A  118A  2639  120A  118A  	fcall	_display_dashboard
  3019                           
  3020                           ;main.c: 201: 
  3021     023F  2BB6               	goto	l5568
  3022     0240                     l225:	
  3023                           ;main.c: 206:                         control_flag = 0x01;;main.c: 207:                 
      +                                  TMR2ON = 0;
  3024                           
  3025                           
  3026                           ;main.c: 209: 
  3027     0240  1683               	bsf	3,5	;RP0=1, select bank1
  3028     0241  1303               	bcf	3,6	;RP1=0, select bank1
  3029     0242  01D8               	clrf	main@control_flag^(0+128)
  3030     0243  0AD8               	incf	main@control_flag^(0+128),f
  3031                           
  3032                           ;main.c: 210:                     case 0:
  3033     0244  1283               	bcf	3,5	;RP0=0, select bank0
  3034     0245  1303               	bcf	3,6	;RP1=0, select bank0
  3035     0246  1112               	bcf	18,2	;volatile
  3036     0247                     l5490:
  3037                           
  3038                           ;main.c: 212:                         break;
  3039     0247  01F2               	clrf	clcd_write@mode
  3040     0248  300C               	movlw	12
  3041     0249  160A  118A  21EB  120A  118A  	fcall	_clcd_write
  3042     024E                     l5492:
  3043                           
  3044                           ;main.c: 213: 
  3045     024E  30A5               	movlw	165
  3046     024F  1283               	bcf	3,5	;RP0=0, select bank0
  3047     0250  1303               	bcf	3,6	;RP1=0, select bank0
  3048     0251  00E5               	movwf	??_main
  3049     0252                     u4887:
  3050     0252  0BE5               	decfsz	??_main,f
  3051     0253  2A52               	goto	u4887
  3052     0254  2A55               	nop2
  3053                           
  3054                           ;main.c: 214:                     case 1:
  3055     0255  2BB6               	goto	l5568
  3056     0256                     l5494:
  3057                           
  3058                           ;main.c: 218:                     case 2:
  3059     0256  3003               	movlw	3
  3060     0257  1683               	bsf	3,5	;RP0=1, select bank1
  3061     0258  1303               	bcf	3,6	;RP1=0, select bank1
  3062     0259  00D8               	movwf	main@control_flag^(0+128)
  3063                           
  3064                           ;main.c: 219:                         menu_pos = 2;
  3065     025A  3070               	movlw	112
  3066     025B  00D6               	movwf	main@reset_flag^(0+128)
  3067     025C                     l5496:
  3068                           
  3069                           ;main.c: 220:                         break;
  3070     025C  1283               	bcf	3,5	;RP0=0, select bank0
  3071     025D  1303               	bcf	3,6	;RP1=0, select bank0
  3072     025E  1512               	bsf	18,2	;volatile
  3073     025F                     l5498:
  3074                           
  3075                           ;main.c: 221: 
  3076     025F  01F2               	clrf	clcd_write@mode
  3077     0260  300C               	movlw	12
  3078     0261  160A  118A  21EB  120A  118A  	fcall	_clcd_write
  3079     0266                     l5500:
  3080                           
  3081                           ;main.c: 222:                     case 3:
  3082     0266  30A5               	movlw	165
  3083     0267  1283               	bcf	3,5	;RP0=0, select bank0
  3084     0268  1303               	bcf	3,6	;RP1=0, select bank0
  3085     0269  00E5               	movwf	??_main
  3086     026A                     u4897:
  3087     026A  0BE5               	decfsz	??_main,f
  3088     026B  2A6A               	goto	u4897
  3089     026C  2A6D               	nop2
  3090                           
  3091                           ;main.c: 223:                         menu_pos = 3;
  3092     026D  2866               	goto	l5356
  3093     026E                     l5506:
  3094     026E  1683               	bsf	3,5	;RP0=1, select bank1
  3095     026F  1303               	bcf	3,6	;RP1=0, select bank1
  3096     0270  0856               	movf	main@reset_flag^(0+128),w
  3097     0271  1283               	bcf	3,5	;RP0=0, select bank0
  3098     0272  1303               	bcf	3,6	;RP1=0, select bank0
  3099     0273  00D1               	movwf	login@reset_flag
  3100     0274  1683               	bsf	3,5	;RP0=1, select bank1
  3101     0275  1303               	bcf	3,6	;RP1=0, select bank1
  3102     0276  0859               	movf	main@key^(0+128),w
  3103     0277  120A  158A  24B9  120A  118A  	fcall	_login
  3104     027C  1283               	bcf	3,5	;RP0=0, select bank0
  3105     027D  1303               	bcf	3,6	;RP1=0, select bank0
  3106     027E  00E5               	movwf	??_main
  3107     027F  01E6               	clrf	??_main+1
  3108                           
  3109                           ; Switch on 2 bytes has been partitioned into a top level switch of size 1, and 1 sub-sw
      +                          itches
  3110                           ; Switch size 1, requested type "simple"
  3111                           ; Number of cases is 1, Range of values is 0 to 0
  3112                           ; switch strategies available:
  3113                           ; Name         Instructions Cycles
  3114                           ; simple_byte            4     3 (average)
  3115                           ; direct_byte           11     8 (fixed)
  3116                           ; jumptable            260     6 (fixed)
  3117                           ;	Chosen strategy is simple_byte
  3118     0280  0866               	movf	??_main+1,w
  3119     0281  3A00               	xorlw	0	; case 0
  3120     0282  1903               	skipnz
  3121     0283  2A85               	goto	l5832
  3122     0284  2BB6               	goto	l5568
  3123     0285                     l5832:
  3124                           
  3125                           ; Switch size 1, requested type "simple"
  3126                           ; Number of cases is 2, Range of values is 10 to 11
  3127                           ; switch strategies available:
  3128                           ; Name         Instructions Cycles
  3129                           ; simple_byte            7     4 (average)
  3130                           ; direct_byte           17    11 (fixed)
  3131                           ; jumptable            263     9 (fixed)
  3132                           ;	Chosen strategy is simple_byte
  3133     0285  0865               	movf	??_main,w
  3134     0286  3A0A               	xorlw	10	; case 10
  3135     0287  1903               	skipnz
  3136     0288  2A40               	goto	l225
  3137     0289  3A01               	xorlw	1	; case 11
  3138     028A  1903               	skipnz
  3139     028B  2A56               	goto	l5494
  3140     028C  2BB6               	goto	l5568
  3141     028D                     l5508:
  3142                           
  3143                           ;main.c: 233: 
  3144     028D  160A  118A  2141  120A  118A  	fcall	_clear_screen
  3145     0292                     l5510:
  3146                           
  3147                           ;main.c: 234:                 view_log(key, reset_flag);
  3148     0292  1683               	bsf	3,5	;RP0=1, select bank1
  3149     0293  1303               	bcf	3,6	;RP1=0, select bank1
  3150     0294  01D8               	clrf	main@control_flag^(0+128)
  3151     0295  0AD8               	incf	main@control_flag^(0+128),f
  3152     0296                     l5512:
  3153                           
  3154                           ;main.c: 235:                 break;
  3155     0296  1283               	bcf	3,5	;RP0=0, select bank0
  3156     0297  1303               	bcf	3,6	;RP1=0, select bank0
  3157     0298  1112               	bcf	18,2	;volatile
  3158                           
  3159                           ;main.c: 236: 
  3160     0299  2BB6               	goto	l5568
  3161     029A                     l5514:
  3162                           
  3163                           ;main.c: 239:                 if (clear_log(reset_flag) == 0x0C)
  3164     029A  1683               	bsf	3,5	;RP0=1, select bank1
  3165     029B  1303               	bcf	3,6	;RP1=0, select bank1
  3166     029C  01D1               	clrf	main@menu_pos^(0+128)
  3167                           
  3168                           ;main.c: 240:                     _delay((unsigned long)((1000)*(20000000/4000.0)));
  3169     029D  2BB6               	goto	l5568
  3170     029E                     l234:	
  3171                           ;main.c: 242:                 if (reset_flag == 0x40)
  3172                           
  3173                           
  3174                           ;main.c: 243:                     log_car_event("CL", speed);
  3175     029E  1683               	bsf	3,5	;RP0=1, select bank1
  3176     029F  1303               	bcf	3,6	;RP1=0, select bank1
  3177     02A0  01D1               	clrf	main@menu_pos^(0+128)
  3178     02A1  0AD1               	incf	main@menu_pos^(0+128),f
  3179                           
  3180                           ;main.c: 244: 
  3181     02A2  2BB6               	goto	l5568
  3182     02A3                     l5516:
  3183                           
  3184                           ;main.c: 247:                 clear_screen();
  3185     02A3  3002               	movlw	2
  3186     02A4  1683               	bsf	3,5	;RP0=1, select bank1
  3187     02A5  1303               	bcf	3,6	;RP1=0, select bank1
  3188     02A6  00D1               	movwf	main@menu_pos^(0+128)
  3189                           
  3190                           ;main.c: 248:                 break;
  3191     02A7  2BB6               	goto	l5568
  3192     02A8                     l5518:
  3193                           
  3194                           ;main.c: 251: 
  3195     02A8  3003               	movlw	3
  3196     02A9  1683               	bsf	3,5	;RP0=1, select bank1
  3197     02AA  1303               	bcf	3,6	;RP1=0, select bank1
  3198     02AB  00D1               	movwf	main@menu_pos^(0+128)
  3199                           
  3200                           ;main.c: 252:                 switch (change_password(key, reset_flag))
  3201     02AC  2BB6               	goto	l5568
  3202     02AD                     l5520:
  3203                           
  3204                           ;main.c: 255:                         _delay((unsigned long)((1000)*(20000000/4000.0)));
  3205     02AD  3004               	movlw	4
  3206     02AE  1683               	bsf	3,5	;RP0=1, select bank1
  3207     02AF  1303               	bcf	3,6	;RP1=0, select bank1
  3208     02B0  00D1               	movwf	main@menu_pos^(0+128)
  3209                           
  3210                           ;main.c: 256:                         log_car_event("CP", speed);
  3211     02B1  2BB6               	goto	l5568
  3212     02B2                     l5524:
  3213     02B2  1683               	bsf	3,5	;RP0=1, select bank1
  3214     02B3  1303               	bcf	3,6	;RP1=0, select bank1
  3215     02B4  0856               	movf	main@reset_flag^(0+128),w
  3216     02B5  1283               	bcf	3,5	;RP0=0, select bank0
  3217     02B6  1303               	bcf	3,6	;RP1=0, select bank0
  3218     02B7  00D1               	movwf	login_menu@reset_flag
  3219     02B8  1683               	bsf	3,5	;RP0=1, select bank1
  3220     02B9  1303               	bcf	3,6	;RP1=0, select bank1
  3221     02BA  0859               	movf	main@key^(0+128),w
  3222     02BB  120A  158A  21A4  120A  118A  	fcall	_login_menu
  3223     02C0  1283               	bcf	3,5	;RP0=0, select bank0
  3224     02C1  1303               	bcf	3,6	;RP1=0, select bank0
  3225     02C2  00E5               	movwf	??_main
  3226     02C3  01E6               	clrf	??_main+1
  3227                           
  3228                           ; Switch on 2 bytes has been partitioned into a top level switch of size 1, and 1 sub-sw
      +                          itches
  3229                           ; Switch size 1, requested type "simple"
  3230                           ; Number of cases is 1, Range of values is 0 to 0
  3231                           ; switch strategies available:
  3232                           ; Name         Instructions Cycles
  3233                           ; simple_byte            4     3 (average)
  3234                           ; direct_byte           11     8 (fixed)
  3235                           ; jumptable            260     6 (fixed)
  3236                           ;	Chosen strategy is simple_byte
  3237     02C4  0866               	movf	??_main+1,w
  3238     02C5  3A00               	xorlw	0	; case 0
  3239     02C6  1903               	skipnz
  3240     02C7  2AC9               	goto	l5834
  3241     02C8  2BB6               	goto	l5568
  3242     02C9                     l5834:
  3243                           
  3244                           ; Switch size 1, requested type "simple"
  3245                           ; Number of cases is 6, Range of values is 0 to 10
  3246                           ; switch strategies available:
  3247                           ; Name         Instructions Cycles
  3248                           ; simple_byte           19    10 (average)
  3249                           ; direct_byte           41     8 (fixed)
  3250                           ; jumptable            260     6 (fixed)
  3251                           ;	Chosen strategy is simple_byte
  3252     02C9  0865               	movf	??_main,w
  3253     02CA  3A00               	xorlw	0	; case 0
  3254     02CB  1903               	skipnz
  3255     02CC  2A9A               	goto	l5514
  3256     02CD  3A01               	xorlw	1	; case 1
  3257     02CE  1903               	skipnz
  3258     02CF  2A9E               	goto	l234
  3259     02D0  3A03               	xorlw	3	; case 2
  3260     02D1  1903               	skipnz
  3261     02D2  2AA3               	goto	l5516
  3262     02D3  3A01               	xorlw	1	; case 3
  3263     02D4  1903               	skipnz
  3264     02D5  2AA8               	goto	l5518
  3265     02D6  3A07               	xorlw	7	; case 4
  3266     02D7  1903               	skipnz
  3267     02D8  2AAD               	goto	l5520
  3268     02D9  3A0E               	xorlw	14	; case 10
  3269     02DA  1903               	skipnz
  3270     02DB  2A8D               	goto	l5508
  3271     02DC  2BB6               	goto	l5568
  3272     02DD                     l5526:
  3273                           
  3274                           ;main.c: 262:                     case 0x0A:
  3275     02DD  1683               	bsf	3,5	;RP0=1, select bank1
  3276     02DE  1303               	bcf	3,6	;RP1=0, select bank1
  3277     02DF  0856               	movf	main@reset_flag^(0+128),w
  3278     02E0  1283               	bcf	3,5	;RP0=0, select bank0
  3279     02E1  1303               	bcf	3,6	;RP1=0, select bank0
  3280     02E2  00D1               	movwf	view_log@reset_index
  3281     02E3  1683               	bsf	3,5	;RP0=1, select bank1
  3282     02E4  1303               	bcf	3,6	;RP1=0, select bank1
  3283     02E5  0859               	movf	main@key^(0+128),w
  3284     02E6  120A  158A  2379  120A  118A  	fcall	_view_log
  3285                           
  3286                           ;main.c: 263:                         control_flag = 0x01;
  3287     02EB  2BB6               	goto	l5568
  3288     02EC                     l5528:
  3289                           
  3290                           ;main.c: 267:                 break;
  3291     02EC  1683               	bsf	3,5	;RP0=1, select bank1
  3292     02ED  1303               	bcf	3,6	;RP1=0, select bank1
  3293     02EE  0856               	movf	main@reset_flag^(0+128),w
  3294     02EF  160A  118A  22C7  120A  118A  	fcall	_clear_log
  3295     02F4  3A0C               	xorlw	12
  3296     02F5  1D03               	skipz
  3297     02F6  2AF8               	goto	u4831
  3298     02F7  2AF9               	goto	u4830
  3299     02F8                     u4831:
  3300     02F8  2B08               	goto	l5532
  3301     02F9                     u4830:
  3302     02F9                     l5530:
  3303                           
  3304                           ;main.c: 268: 
  3305     02F9  301A               	movlw	26
  3306     02FA  1283               	bcf	3,5	;RP0=0, select bank0
  3307     02FB  1303               	bcf	3,6	;RP1=0, select bank0
  3308     02FC  00E7               	movwf	??_main+2
  3309     02FD  305E               	movlw	94
  3310     02FE  00E6               	movwf	??_main+1
  3311     02FF  306D               	movlw	109
  3312     0300  00E5               	movwf	??_main
  3313     0301                     u4907:
  3314     0301  0BE5               	decfsz	??_main,f
  3315     0302  2B01               	goto	u4907
  3316     0303  0BE6               	decfsz	??_main+1,f
  3317     0304  2B01               	goto	u4907
  3318     0305  0BE7               	decfsz	??_main+2,f
  3319     0306  2B01               	goto	u4907
  3320     0307  2B08               	nop2
  3321     0308                     l5532:
  3322                           
  3323                           ;main.c: 270: 
  3324     0308  3040               	movlw	64
  3325     0309  1683               	bsf	3,5	;RP0=1, select bank1
  3326     030A  1303               	bcf	3,6	;RP1=0, select bank1
  3327     030B  0656               	xorwf	main@reset_flag^(0+128),w
  3328     030C  1D03               	btfss	3,2
  3329     030D  2B0F               	goto	u4841
  3330     030E  2B10               	goto	u4840
  3331     030F                     u4841:
  3332     030F  2B21               	goto	l5536
  3333     0310                     u4840:
  3334     0310                     l5534:
  3335                           
  3336                           ;main.c: 271:                 if (change_time(key, reset_flag) == 0x0C)
  3337     0310  30DE               	movlw	low (STR_15| (0+32768))
  3338     0311  1283               	bcf	3,5	;RP0=0, select bank0
  3339     0312  1303               	bcf	3,6	;RP1=0, select bank0
  3340     0313  00C9               	movwf	log_car_event@event
  3341     0314  3088               	movlw	high (STR_15| (0+32768))
  3342     0315  00CA               	movwf	log_car_event@event+1
  3343     0316  1683               	bsf	3,5	;RP0=1, select bank1
  3344     0317  1303               	bcf	3,6	;RP1=0, select bank1
  3345     0318  0857               	movf	main@speed^(0+128),w
  3346     0319  1283               	bcf	3,5	;RP0=0, select bank0
  3347     031A  1303               	bcf	3,6	;RP1=0, select bank0
  3348     031B  00CB               	movwf	log_car_event@speed
  3349     031C  160A  118A  26E7  120A  118A  	fcall	_log_car_event
  3350     0321                     l5536:
  3351                           
  3352                           ;main.c: 273:                     control_flag = 0x03;
  3353     0321  3003               	movlw	3
  3354     0322  1683               	bsf	3,5	;RP0=1, select bank1
  3355     0323  1303               	bcf	3,6	;RP1=0, select bank1
  3356     0324  00D8               	movwf	main@control_flag^(0+128)
  3357     0325                     l5538:
  3358                           
  3359                           ;main.c: 274:                     reset_flag = 0x50;
  3360     0325  3050               	movlw	80
  3361     0326  00D6               	movwf	main@reset_flag^(0+128)
  3362     0327                     l5540:
  3363                           
  3364                           ;main.c: 275:                     clear_screen();
  3365     0327  160A  118A  2141  120A  118A  	fcall	_clear_screen
  3366                           
  3367                           ;main.c: 276:                     continue;
  3368     032C  2BB6               	goto	l5568
  3369     032D                     l5542:
  3370                           
  3371                           ;main.c: 283:     return;
  3372     032D  301A               	movlw	26
  3373     032E  1283               	bcf	3,5	;RP0=0, select bank0
  3374     032F  1303               	bcf	3,6	;RP1=0, select bank0
  3375     0330  00E7               	movwf	??_main+2
  3376     0331  305E               	movlw	94
  3377     0332  00E6               	movwf	??_main+1
  3378     0333  306D               	movlw	109
  3379     0334  00E5               	movwf	??_main
  3380     0335                     u4917:
  3381     0335  0BE5               	decfsz	??_main,f
  3382     0336  2B35               	goto	u4917
  3383     0337  0BE6               	decfsz	??_main+1,f
  3384     0338  2B35               	goto	u4917
  3385     0339  0BE7               	decfsz	??_main+2,f
  3386     033A  2B35               	goto	u4917
  3387     033B  2B3C               	nop2
  3388     033C                     l5544:
  3389                           
  3390                           ;main.c: 284: }
  3391     033C  30EA               	movlw	low (STR_16| (0+32768))
  3392     033D  1283               	bcf	3,5	;RP0=0, select bank0
  3393     033E  1303               	bcf	3,6	;RP1=0, select bank0
  3394     033F  00C9               	movwf	log_car_event@event
  3395     0340  3088               	movlw	high (STR_16| (0+32768))
  3396     0341  00CA               	movwf	log_car_event@event+1
  3397     0342  1683               	bsf	3,5	;RP0=1, select bank1
  3398     0343  1303               	bcf	3,6	;RP1=0, select bank1
  3399     0344  0857               	movf	main@speed^(0+128),w
  3400     0345  1283               	bcf	3,5	;RP0=0, select bank0
  3401     0346  1303               	bcf	3,6	;RP1=0, select bank0
  3402     0347  00CB               	movwf	log_car_event@speed
  3403     0348  160A  118A  26E7  120A  118A  	fcall	_log_car_event
  3404     034D  2B21               	goto	l5536
  3405     034E                     l246:
  3406     034E  1683               	bsf	3,5	;RP0=1, select bank1
  3407     034F  1303               	bcf	3,6	;RP1=0, select bank1
  3408     0350  01D8               	clrf	main@control_flag^(0+128)
  3409     0351  0AD8               	incf	main@control_flag^(0+128),f
  3410     0352                     l5552:
  3411     0352  3050               	movlw	80
  3412     0353  00D6               	movwf	main@reset_flag^(0+128)
  3413     0354  2BB6               	goto	l5568
  3414     0355                     l5556:
  3415     0355  1683               	bsf	3,5	;RP0=1, select bank1
  3416     0356  1303               	bcf	3,6	;RP1=0, select bank1
  3417     0357  0856               	movf	main@reset_flag^(0+128),w
  3418     0358  1283               	bcf	3,5	;RP0=0, select bank0
  3419     0359  1303               	bcf	3,6	;RP1=0, select bank0
  3420     035A  00D1               	movwf	change_password@reset_pwd
  3421     035B  1683               	bsf	3,5	;RP0=1, select bank1
  3422     035C  1303               	bcf	3,6	;RP1=0, select bank1
  3423     035D  0859               	movf	main@key^(0+128),w
  3424     035E  120A  158A  265B  120A  118A  	fcall	_change_password
  3425     0363  1283               	bcf	3,5	;RP0=0, select bank0
  3426     0364  1303               	bcf	3,6	;RP1=0, select bank0
  3427     0365  00E5               	movwf	??_main
  3428     0366  01E6               	clrf	??_main+1
  3429                           
  3430                           ; Switch on 2 bytes has been partitioned into a top level switch of size 1, and 1 sub-sw
      +                          itches
  3431                           ; Switch size 1, requested type "simple"
  3432                           ; Number of cases is 1, Range of values is 0 to 0
  3433                           ; switch strategies available:
  3434                           ; Name         Instructions Cycles
  3435                           ; simple_byte            4     3 (average)
  3436                           ; direct_byte           11     8 (fixed)
  3437                           ; jumptable            260     6 (fixed)
  3438                           ;	Chosen strategy is simple_byte
  3439     0367  0866               	movf	??_main+1,w
  3440     0368  3A00               	xorlw	0	; case 0
  3441     0369  1903               	skipnz
  3442     036A  2B6C               	goto	l5836
  3443     036B  2BB6               	goto	l5568
  3444     036C                     l5836:
  3445                           
  3446                           ; Switch size 1, requested type "simple"
  3447                           ; Number of cases is 2, Range of values is 10 to 12
  3448                           ; switch strategies available:
  3449                           ; Name         Instructions Cycles
  3450                           ; simple_byte            7     4 (average)
  3451                           ; direct_byte           20    11 (fixed)
  3452                           ; jumptable            263     9 (fixed)
  3453                           ;	Chosen strategy is simple_byte
  3454     036C  0865               	movf	??_main,w
  3455     036D  3A0A               	xorlw	10	; case 10
  3456     036E  1903               	skipnz
  3457     036F  2B4E               	goto	l246
  3458     0370  3A06               	xorlw	6	; case 12
  3459     0371  1903               	skipnz
  3460     0372  2B2D               	goto	l5542
  3461     0373  2BB6               	goto	l5568
  3462     0374                     l5558:
  3463     0374  1683               	bsf	3,5	;RP0=1, select bank1
  3464     0375  1303               	bcf	3,6	;RP1=0, select bank1
  3465     0376  0856               	movf	main@reset_flag^(0+128),w
  3466     0377  1283               	bcf	3,5	;RP0=0, select bank0
  3467     0378  1303               	bcf	3,6	;RP1=0, select bank0
  3468     0379  00D1               	movwf	change_time@reset_time
  3469     037A  1683               	bsf	3,5	;RP0=1, select bank1
  3470     037B  1303               	bcf	3,6	;RP1=0, select bank1
  3471     037C  0859               	movf	main@key^(0+128),w
  3472     037D  120A  118A  23BE  120A  118A  	fcall	_change_time
  3473     0382  3A0C               	xorlw	12
  3474     0383  1D03               	skipz
  3475     0384  2B86               	goto	u4851
  3476     0385  2B87               	goto	u4850
  3477     0386                     u4851:
  3478     0386  2BB6               	goto	l5568
  3479     0387                     u4850:
  3480     0387                     l5560:
  3481     0387  3003               	movlw	3
  3482     0388  1683               	bsf	3,5	;RP0=1, select bank1
  3483     0389  1303               	bcf	3,6	;RP1=0, select bank1
  3484     038A  00D8               	movwf	main@control_flag^(0+128)
  3485     038B  3050               	movlw	80
  3486     038C  00D6               	movwf	main@reset_flag^(0+128)
  3487     038D                     l5562:
  3488     038D  160A  118A  2141  120A  118A  	fcall	_clear_screen
  3489     0392  2866               	goto	l5356
  3490     0393                     l5566:
  3491     0393  1683               	bsf	3,5	;RP0=1, select bank1
  3492     0394  1303               	bcf	3,6	;RP1=0, select bank1
  3493     0395  0858               	movf	main@control_flag^(0+128),w
  3494     0396  1283               	bcf	3,5	;RP0=0, select bank0
  3495     0397  1303               	bcf	3,6	;RP1=0, select bank0
  3496     0398  00E5               	movwf	??_main
  3497     0399  01E6               	clrf	??_main+1
  3498                           
  3499                           ; Switch on 2 bytes has been partitioned into a top level switch of size 1, and 1 sub-sw
      +                          itches
  3500                           ; Switch size 1, requested type "simple"
  3501                           ; Number of cases is 1, Range of values is 0 to 0
  3502                           ; switch strategies available:
  3503                           ; Name         Instructions Cycles
  3504                           ; simple_byte            4     3 (average)
  3505                           ; direct_byte           11     8 (fixed)
  3506                           ; jumptable            260     6 (fixed)
  3507                           ;	Chosen strategy is simple_byte
  3508     039A  0866               	movf	??_main+1,w
  3509     039B  3A00               	xorlw	0	; case 0
  3510     039C  1903               	skipnz
  3511     039D  2B9F               	goto	l5838
  3512     039E  2BB6               	goto	l5568
  3513     039F                     l5838:
  3514                           
  3515                           ; Switch size 1, requested type "simple"
  3516                           ; Number of cases is 7, Range of values is 1 to 18
  3517                           ; switch strategies available:
  3518                           ; Name         Instructions Cycles
  3519                           ; simple_byte           22    12 (average)
  3520                           ; direct_byte           65    11 (fixed)
  3521                           ; jumptable            263     9 (fixed)
  3522                           ;	Chosen strategy is simple_byte
  3523     039F  0865               	movf	??_main,w
  3524     03A0  3A01               	xorlw	1	; case 1
  3525     03A1  1903               	skipnz
  3526     03A2  2A33               	goto	l5488
  3527     03A3  3A03               	xorlw	3	; case 2
  3528     03A4  1903               	skipnz
  3529     03A5  2A6E               	goto	l5506
  3530     03A6  3A01               	xorlw	1	; case 3
  3531     03A7  1903               	skipnz
  3532     03A8  2AB2               	goto	l5524
  3533     03A9  3A0B               	xorlw	11	; case 8
  3534     03AA  1903               	skipnz
  3535     03AB  2ADD               	goto	l5526
  3536     03AC  3A01               	xorlw	1	; case 9
  3537     03AD  1903               	skipnz
  3538     03AE  2AEC               	goto	l5528
  3539     03AF  3A18               	xorlw	24	; case 17
  3540     03B0  1903               	skipnz
  3541     03B1  2B55               	goto	l5556
  3542     03B2  3A03               	xorlw	3	; case 18
  3543     03B3  1903               	skipnz
  3544     03B4  2B74               	goto	l5558
  3545     03B5  2BB6               	goto	l5568
  3546     03B6                     l5568:
  3547     03B6  3080               	movlw	128
  3548     03B7  1683               	bsf	3,5	;RP0=1, select bank1
  3549     03B8  1303               	bcf	3,6	;RP1=0, select bank1
  3550     03B9  00D6               	movwf	main@reset_flag^(0+128)
  3551     03BA  2866               	goto	l5356
  3552     03BB  120A  118A  280C   	ljmp	start
  3553     03BE                     __end_of_main:
  3554                           
  3555                           	psect	text1
  3556     0B79                     __ptext1:	
  3557 ;; *************** function _view_log *****************
  3558 ;; Defined at:
  3559 ;;		line 334 in file "car_black_box.c"
  3560 ;; Parameters:    Size  Location     Type
  3561 ;;  key             1    wreg     unsigned char 
  3562 ;;  reset_index     1   12[BANK0 ] unsigned char 
  3563 ;; Auto vars:     Size  Location     Type
  3564 ;;  key             1   29[BANK0 ] unsigned char 
  3565 ;;  i               2   30[BANK0 ] int 
  3566 ;;  log            11   15[BANK0 ] unsigned char [11]
  3567 ;;  position        2   26[BANK0 ] int 
  3568 ;;  add             1   28[BANK0 ] unsigned char 
  3569 ;; Return value:  Size  Location     Type
  3570 ;;                  1    wreg      void 
  3571 ;; Registers used:
  3572 ;;		wreg, fsr0l, fsr0h, status,2, status,0, btemp+1, pclath, cstack
  3573 ;; Tracked objects:
  3574 ;;		On entry : 0/0
  3575 ;;		On exit  : 0/0
  3576 ;;		Unchanged: 0/0
  3577 ;; Data sizes:     COMMON   BANK0   BANK1   BANK3   BANK2
  3578 ;;      Params:         0       1       0       0       0
  3579 ;;      Locals:         0      17       0       0       0
  3580 ;;      Temps:          0       2       0       0       0
  3581 ;;      Totals:         0      20       0       0       0
  3582 ;;Total ram usage:       20 bytes
  3583 ;; Hardware stack levels used: 1
  3584 ;; Hardware stack levels required when called: 5
  3585 ;; This function calls:
  3586 ;;		___bmul
  3587 ;;		_clcd_print
  3588 ;;		_clcd_putch
  3589 ;;		_eeprom_at24c04_random_read
  3590 ;; This function is called by:
  3591 ;;		_main
  3592 ;; This function uses a non-reentrant model
  3593 ;;
  3594                           
  3595     0B79                     _view_log:	
  3596                           ;psect for function _view_log
  3597                           
  3598                           
  3599                           ;incstack = 0
  3600                           ; Regs used in _view_log: [wreg-fsr0h+status,2+status,0+btemp+1+pclath+cstack]
  3601                           ;view_log@key stored from wreg
  3602     0B79  1283               	bcf	3,5	;RP0=0, select bank0
  3603     0B7A  1303               	bcf	3,6	;RP1=0, select bank0
  3604     0B7B  00E2               	movwf	view_log@key
  3605     0B7C                     l5044:
  3606                           
  3607                           ;car_black_box.c: 334: void view_log(unsigned char key, char reset_index);car_black_box.
      +                          c: 335: {;car_black_box.c: 336:     static int index;;car_black_box.c: 337:     char log
      +                          [11];;car_black_box.c: 338:     log[10] = 0;
  3608     0B7C  01DE               	clrf	view_log@log+10
  3609     0B7D                     l5046:
  3610                           
  3611                           ;car_black_box.c: 339:     int position;;car_black_box.c: 340:     unsigned char add;;ca
      +                          r_black_box.c: 344:     if (event_count == -1)
  3612     0B7D  0A68               	incf	_event_count,w
  3613     0B7E  1D03               	skipz
  3614     0B7F  2B84               	goto	u4311
  3615     0B80  0A69               	incf	_event_count+1,w
  3616     0B81  1D03               	btfss	3,2
  3617     0B82  2B84               	goto	u4311
  3618     0B83  2B85               	goto	u4310
  3619     0B84                     u4311:
  3620     0B84  2B9C               	goto	l5050
  3621     0B85                     u4310:
  3622     0B85                     l5048:
  3623                           
  3624                           ;car_black_box.c: 345:     {;car_black_box.c: 346:         clcd_print("                "
      +                          , (0x80 + 0));
  3625     0B85  3025               	movlw	low ((STR_43+1)| (0+32768))
  3626     0B86  00F6               	movwf	clcd_print@str
  3627     0B87  3087               	movlw	high ((STR_43+1)| (0+32768))
  3628     0B88  00F7               	movwf	clcd_print@str+1
  3629     0B89  3080               	movlw	128
  3630     0B8A  00F8               	movwf	clcd_print@addr
  3631     0B8B  160A  118A  231D  120A  158A  	fcall	_clcd_print
  3632                           
  3633                           ;car_black_box.c: 347:         clcd_print("    No logs     ", (0xC0 + 0));
  3634     0B90  3048               	movlw	low (STR_29| (0+32768))
  3635     0B91  00F6               	movwf	clcd_print@str
  3636     0B92  3087               	movlw	high (STR_29| (0+32768))
  3637     0B93  00F7               	movwf	clcd_print@str+1
  3638     0B94  30C0               	movlw	192
  3639     0B95  00F8               	movwf	clcd_print@addr
  3640     0B96  160A  118A  231D  120A  158A  	fcall	_clcd_print
  3641                           
  3642                           ;car_black_box.c: 348:     }
  3643     0B9B  2CB8               	goto	l360
  3644     0B9C                     l5050:
  3645                           
  3646                           ;car_black_box.c: 350:     {;car_black_box.c: 351:         if (reset_index == 0x20)
  3647     0B9C  3020               	movlw	32
  3648     0B9D  0651               	xorwf	view_log@reset_index,w
  3649     0B9E  1D03               	btfss	3,2
  3650     0B9F  2BA1               	goto	u4321
  3651     0BA0  2BA2               	goto	u4320
  3652     0BA1                     u4321:
  3653     0BA1  2BA4               	goto	l5054
  3654     0BA2                     u4320:
  3655     0BA2                     l5052:
  3656                           
  3657                           ;car_black_box.c: 352:         {;car_black_box.c: 353:             index = 0;
  3658     0BA2  01B3               	clrf	view_log@index
  3659     0BA3  01B4               	clrf	view_log@index+1
  3660     0BA4                     l5054:
  3661                           
  3662                           ;car_black_box.c: 358:         if (key == 0x37 && index < event_count)
  3663     0BA4  3037               	movlw	55
  3664     0BA5  0662               	xorwf	view_log@key,w
  3665     0BA6  1D03               	btfss	3,2
  3666     0BA7  2BA9               	goto	u4331
  3667     0BA8  2BAA               	goto	u4330
  3668     0BA9                     u4331:
  3669     0BA9  2BCC               	goto	l5062
  3670     0BAA                     u4330:
  3671     0BAA                     l5056:
  3672     0BAA  0834               	movf	view_log@index+1,w
  3673     0BAB  3A80               	xorlw	128
  3674     0BAC  00D2               	movwf	??_view_log
  3675     0BAD  0869               	movf	_event_count+1,w
  3676     0BAE  3A80               	xorlw	128
  3677     0BAF  0252               	subwf	??_view_log,w
  3678     0BB0  1D03               	skipz
  3679     0BB1  2BB4               	goto	u4345
  3680     0BB2  0868               	movf	_event_count,w
  3681     0BB3  0233               	subwf	view_log@index,w
  3682     0BB4                     u4345:
  3683     0BB4  1803               	skipnc
  3684     0BB5  2BB7               	goto	u4341
  3685     0BB6  2BB8               	goto	u4340
  3686     0BB7                     u4341:
  3687     0BB7  2BCC               	goto	l5062
  3688     0BB8                     u4340:
  3689     0BB8                     l5058:
  3690                           
  3691                           ;car_black_box.c: 359:         {;car_black_box.c: 360:             index++;
  3692     0BB8  3001               	movlw	1
  3693     0BB9  1283               	bcf	3,5	;RP0=0, select bank0
  3694     0BBA  1303               	bcf	3,6	;RP1=0, select bank0
  3695     0BBB  07B3               	addwf	view_log@index,f
  3696     0BBC  1803               	skipnc
  3697     0BBD  0AB4               	incf	view_log@index+1,f
  3698     0BBE  3000               	movlw	0
  3699     0BBF  07B4               	addwf	view_log@index+1,f
  3700     0BC0                     l5060:
  3701                           
  3702                           ;car_black_box.c: 361:             clcd_print("                ", (0xC0 + 0));
  3703     0BC0  3025               	movlw	low ((STR_43+1)| (0+32768))
  3704     0BC1  00F6               	movwf	clcd_print@str
  3705     0BC2  3087               	movlw	high ((STR_43+1)| (0+32768))
  3706     0BC3  00F7               	movwf	clcd_print@str+1
  3707     0BC4  30C0               	movlw	192
  3708     0BC5  00F8               	movwf	clcd_print@addr
  3709     0BC6  160A  118A  231D  120A  158A  	fcall	_clcd_print
  3710                           
  3711                           ;car_black_box.c: 362:         }
  3712     0BCB  2BF4               	goto	l5070
  3713     0BCC                     l5062:
  3714     0BCC  302F               	movlw	47
  3715     0BCD  1283               	bcf	3,5	;RP0=0, select bank0
  3716     0BCE  1303               	bcf	3,6	;RP1=0, select bank0
  3717     0BCF  0662               	xorwf	view_log@key,w
  3718     0BD0  1D03               	btfss	3,2
  3719     0BD1  2BD3               	goto	u4351
  3720     0BD2  2BD4               	goto	u4350
  3721     0BD3                     u4351:
  3722     0BD3  2BF4               	goto	l5070
  3723     0BD4                     u4350:
  3724     0BD4                     l5064:
  3725     0BD4  0834               	movf	view_log@index+1,w
  3726     0BD5  3A80               	xorlw	128
  3727     0BD6  00FF               	movwf	btemp+1
  3728     0BD7  3080               	movlw	128
  3729     0BD8  027F               	subwf	btemp+1,w
  3730     0BD9  1D03               	skipz
  3731     0BDA  2BDD               	goto	u4365
  3732     0BDB  3001               	movlw	1
  3733     0BDC  0233               	subwf	view_log@index,w
  3734     0BDD                     u4365:
  3735     0BDD  1C03               	skipc
  3736     0BDE  2BE0               	goto	u4361
  3737     0BDF  2BE1               	goto	u4360
  3738     0BE0                     u4361:
  3739     0BE0  2BF4               	goto	l5070
  3740     0BE1                     u4360:
  3741     0BE1                     l5066:
  3742                           
  3743                           ;car_black_box.c: 364:         {;car_black_box.c: 365:             index--;
  3744     0BE1  30FF               	movlw	255
  3745     0BE2  1283               	bcf	3,5	;RP0=0, select bank0
  3746     0BE3  1303               	bcf	3,6	;RP1=0, select bank0
  3747     0BE4  07B3               	addwf	view_log@index,f
  3748     0BE5  1803               	skipnc
  3749     0BE6  0AB4               	incf	view_log@index+1,f
  3750     0BE7  30FF               	movlw	255
  3751     0BE8  07B4               	addwf	view_log@index+1,f
  3752     0BE9                     l5068:
  3753                           
  3754                           ;car_black_box.c: 366:             clcd_print("                ", (0xC0 + 0));
  3755     0BE9  3025               	movlw	low ((STR_43+1)| (0+32768))
  3756     0BEA  00F6               	movwf	clcd_print@str
  3757     0BEB  3087               	movlw	high ((STR_43+1)| (0+32768))
  3758     0BEC  00F7               	movwf	clcd_print@str+1
  3759     0BED  30C0               	movlw	192
  3760     0BEE  00F8               	movwf	clcd_print@addr
  3761     0BEF  160A  118A  231D  120A  158A  	fcall	_clcd_print
  3762     0BF4                     l5070:
  3763                           
  3764                           ;car_black_box.c: 371:         position = index;
  3765     0BF4  1283               	bcf	3,5	;RP0=0, select bank0
  3766     0BF5  1303               	bcf	3,6	;RP1=0, select bank0
  3767     0BF6  0834               	movf	view_log@index+1,w
  3768     0BF7  00E0               	movwf	view_log@position+1
  3769     0BF8  0833               	movf	view_log@index,w
  3770     0BF9  00DF               	movwf	view_log@position
  3771     0BFA                     l5072:
  3772                           
  3773                           ;car_black_box.c: 376:         for (int i = 0; i < 10; i++)
  3774     0BFA  01E3               	clrf	view_log@i
  3775     0BFB  01E4               	clrf	view_log@i+1
  3776     0BFC                     l5078:
  3777                           
  3778                           ;car_black_box.c: 377:         {;car_black_box.c: 379:             add = position * 10 +
      +                           5 + i;
  3779     0BFC  300A               	movlw	10
  3780     0BFD  00F2               	movwf	___bmul@multiplicand
  3781     0BFE  1283               	bcf	3,5	;RP0=0, select bank0
  3782     0BFF  1303               	bcf	3,6	;RP1=0, select bank0
  3783     0C00  085F               	movf	view_log@position,w
  3784     0C01  160A  118A  219F  120A  158A  	fcall	___bmul
  3785     0C06  1283               	bcf	3,5	;RP0=0, select bank0
  3786     0C07  1303               	bcf	3,6	;RP1=0, select bank0
  3787     0C08  0763               	addwf	view_log@i,w
  3788     0C09  3E05               	addlw	5
  3789     0C0A  00E1               	movwf	view_log@add
  3790     0C0B                     l5080:
  3791                           
  3792                           ;car_black_box.c: 380:             log[i] = eeprom_at24c04_random_read(add);
  3793     0C0B  0863               	movf	view_log@i,w
  3794     0C0C  3E54               	addlw	(low (view_log@log| 0))& (0+255)
  3795     0C0D  0084               	movwf	4
  3796     0C0E  0861               	movf	view_log@add,w
  3797     0C0F  160A  118A  22F2  120A  158A  	fcall	_eeprom_at24c04_random_read
  3798     0C14  1383               	bcf	3,7	;select IRP bank0
  3799     0C15  0080               	movwf	0
  3800     0C16                     l5082:
  3801                           
  3802                           ;car_black_box.c: 381:         }
  3803     0C16  3001               	movlw	1
  3804     0C17  1283               	bcf	3,5	;RP0=0, select bank0
  3805     0C18  1303               	bcf	3,6	;RP1=0, select bank0
  3806     0C19  07E3               	addwf	view_log@i,f
  3807     0C1A  1803               	skipnc
  3808     0C1B  0AE4               	incf	view_log@i+1,f
  3809     0C1C  3000               	movlw	0
  3810     0C1D  07E4               	addwf	view_log@i+1,f
  3811     0C1E                     l5084:
  3812     0C1E  0864               	movf	view_log@i+1,w
  3813     0C1F  3A80               	xorlw	128
  3814     0C20  00FF               	movwf	btemp+1
  3815     0C21  3080               	movlw	128
  3816     0C22  027F               	subwf	btemp+1,w
  3817     0C23  1D03               	skipz
  3818     0C24  2C27               	goto	u4375
  3819     0C25  300A               	movlw	10
  3820     0C26  0263               	subwf	view_log@i,w
  3821     0C27                     u4375:
  3822     0C27  1C03               	skipc
  3823     0C28  2C2A               	goto	u4371
  3824     0C29  2C2B               	goto	u4370
  3825     0C2A                     u4371:
  3826     0C2A  2BFC               	goto	l5078
  3827     0C2B                     u4370:
  3828     0C2B                     l5086:
  3829                           
  3830                           ;car_black_box.c: 387:         clcd_putch(index + '0', (0xC0 + 0));
  3831     0C2B  30C0               	movlw	192
  3832     0C2C  1283               	bcf	3,5	;RP0=0, select bank0
  3833     0C2D  1303               	bcf	3,6	;RP1=0, select bank0
  3834     0C2E  00CF               	movwf	clcd_putch@addr
  3835     0C2F  0833               	movf	view_log@index,w
  3836     0C30  3E30               	addlw	48
  3837     0C31  160A  118A  218A  120A  158A  	fcall	_clcd_putch
  3838                           
  3839                           ;car_black_box.c: 390:         clcd_putch(log[0], (0xC0 + 2));
  3840     0C36  30C2               	movlw	194
  3841     0C37  1283               	bcf	3,5	;RP0=0, select bank0
  3842     0C38  1303               	bcf	3,6	;RP1=0, select bank0
  3843     0C39  00CF               	movwf	clcd_putch@addr
  3844     0C3A  0854               	movf	view_log@log,w
  3845     0C3B  160A  118A  218A  120A  158A  	fcall	_clcd_putch
  3846                           
  3847                           ;car_black_box.c: 391:         clcd_putch(log[1], (0xC0 + 3));
  3848     0C40  30C3               	movlw	195
  3849     0C41  1283               	bcf	3,5	;RP0=0, select bank0
  3850     0C42  1303               	bcf	3,6	;RP1=0, select bank0
  3851     0C43  00CF               	movwf	clcd_putch@addr
  3852     0C44  0855               	movf	view_log@log+1,w
  3853     0C45  160A  118A  218A  120A  158A  	fcall	_clcd_putch
  3854                           
  3855                           ;car_black_box.c: 392:         clcd_putch(':', (0xC0 + 4));
  3856     0C4A  30C4               	movlw	196
  3857     0C4B  1283               	bcf	3,5	;RP0=0, select bank0
  3858     0C4C  1303               	bcf	3,6	;RP1=0, select bank0
  3859     0C4D  00CF               	movwf	clcd_putch@addr
  3860     0C4E  303A               	movlw	58
  3861     0C4F  160A  118A  218A  120A  158A  	fcall	_clcd_putch
  3862                           
  3863                           ;car_black_box.c: 395:         clcd_putch(log[2], (0xC0 + 5));
  3864     0C54  30C5               	movlw	197
  3865     0C55  1283               	bcf	3,5	;RP0=0, select bank0
  3866     0C56  1303               	bcf	3,6	;RP1=0, select bank0
  3867     0C57  00CF               	movwf	clcd_putch@addr
  3868     0C58  0856               	movf	view_log@log+2,w
  3869     0C59  160A  118A  218A  120A  158A  	fcall	_clcd_putch
  3870                           
  3871                           ;car_black_box.c: 396:         clcd_putch(log[3], (0xC0 + 6));
  3872     0C5E  30C6               	movlw	198
  3873     0C5F  1283               	bcf	3,5	;RP0=0, select bank0
  3874     0C60  1303               	bcf	3,6	;RP1=0, select bank0
  3875     0C61  00CF               	movwf	clcd_putch@addr
  3876     0C62  0857               	movf	view_log@log+3,w
  3877     0C63  160A  118A  218A  120A  158A  	fcall	_clcd_putch
  3878                           
  3879                           ;car_black_box.c: 397:         clcd_putch(':', (0xC0 + 7));
  3880     0C68  30C7               	movlw	199
  3881     0C69  1283               	bcf	3,5	;RP0=0, select bank0
  3882     0C6A  1303               	bcf	3,6	;RP1=0, select bank0
  3883     0C6B  00CF               	movwf	clcd_putch@addr
  3884     0C6C  303A               	movlw	58
  3885     0C6D  160A  118A  218A  120A  158A  	fcall	_clcd_putch
  3886                           
  3887                           ;car_black_box.c: 400:         clcd_putch(log[4], (0xC0 + 8));
  3888     0C72  30C8               	movlw	200
  3889     0C73  1283               	bcf	3,5	;RP0=0, select bank0
  3890     0C74  1303               	bcf	3,6	;RP1=0, select bank0
  3891     0C75  00CF               	movwf	clcd_putch@addr
  3892     0C76  0858               	movf	view_log@log+4,w
  3893     0C77  160A  118A  218A  120A  158A  	fcall	_clcd_putch
  3894                           
  3895                           ;car_black_box.c: 401:         clcd_putch(log[5], (0xC0 + 9));
  3896     0C7C  30C9               	movlw	201
  3897     0C7D  1283               	bcf	3,5	;RP0=0, select bank0
  3898     0C7E  1303               	bcf	3,6	;RP1=0, select bank0
  3899     0C7F  00CF               	movwf	clcd_putch@addr
  3900     0C80  0859               	movf	view_log@log+5,w
  3901     0C81  160A  118A  218A  120A  158A  	fcall	_clcd_putch
  3902                           
  3903                           ;car_black_box.c: 404:         clcd_putch(log[6], (0xC0 + 11));
  3904     0C86  30CB               	movlw	203
  3905     0C87  1283               	bcf	3,5	;RP0=0, select bank0
  3906     0C88  1303               	bcf	3,6	;RP1=0, select bank0
  3907     0C89  00CF               	movwf	clcd_putch@addr
  3908     0C8A  085A               	movf	view_log@log+6,w
  3909     0C8B  160A  118A  218A  120A  158A  	fcall	_clcd_putch
  3910                           
  3911                           ;car_black_box.c: 405:         clcd_putch(log[7], (0xC0 + 12));
  3912     0C90  30CC               	movlw	204
  3913     0C91  1283               	bcf	3,5	;RP0=0, select bank0
  3914     0C92  1303               	bcf	3,6	;RP1=0, select bank0
  3915     0C93  00CF               	movwf	clcd_putch@addr
  3916     0C94  085B               	movf	view_log@log+7,w
  3917     0C95  160A  118A  218A  120A  158A  	fcall	_clcd_putch
  3918                           
  3919                           ;car_black_box.c: 408:         clcd_putch(log[8], (0xC0 + 14));
  3920     0C9A  30CE               	movlw	206
  3921     0C9B  1283               	bcf	3,5	;RP0=0, select bank0
  3922     0C9C  1303               	bcf	3,6	;RP1=0, select bank0
  3923     0C9D  00CF               	movwf	clcd_putch@addr
  3924     0C9E  085C               	movf	view_log@log+8,w
  3925     0C9F  160A  118A  218A  120A  158A  	fcall	_clcd_putch
  3926                           
  3927                           ;car_black_box.c: 409:         clcd_putch(log[9], (0xC0 + 15));
  3928     0CA4  30CF               	movlw	207
  3929     0CA5  1283               	bcf	3,5	;RP0=0, select bank0
  3930     0CA6  1303               	bcf	3,6	;RP1=0, select bank0
  3931     0CA7  00CF               	movwf	clcd_putch@addr
  3932     0CA8  085D               	movf	view_log@log+9,w
  3933     0CA9  160A  118A  218A  120A  158A  	fcall	_clcd_putch
  3934     0CAE                     l5088:
  3935                           
  3936                           ;car_black_box.c: 411:         _delay((unsigned long)((500)*(20000000/4000000.0)));
  3937     0CAE  3004               	movlw	4
  3938     0CAF  1283               	bcf	3,5	;RP0=0, select bank0
  3939     0CB0  1303               	bcf	3,6	;RP1=0, select bank0
  3940     0CB1  00D3               	movwf	??_view_log+1
  3941     0CB2  303D               	movlw	61
  3942     0CB3  00D2               	movwf	??_view_log
  3943     0CB4                     u4927:
  3944     0CB4  0BD2               	decfsz	??_view_log,f
  3945     0CB5  2CB4               	goto	u4927
  3946     0CB6  0BD3               	decfsz	??_view_log+1,f
  3947     0CB7  2CB4               	goto	u4927
  3948     0CB8                     l360:
  3949     0CB8  0008               	return
  3950     0CB9                     __end_of_view_log:
  3951                           
  3952                           	psect	text2
  3953     1251                     __ptext2:	
  3954 ;; *************** function _strcpy *****************
  3955 ;; Defined at:
  3956 ;;		line 8 in file "C:\Program Files\Microchip\xc8\v2.40\pic\sources\c90\common\strcpy.c"
  3957 ;; Parameters:    Size  Location     Type
  3958 ;;  to              1    wreg     PTR unsigned char 
  3959 ;;		 -> main@event(3), 
  3960 ;;  from            2    2[COMMON] PTR const unsigned char 
  3961 ;;		 -> STR_8(3), STR_6(3), STR_5(3), STR_4(3), 
  3962 ;;		 -> STR_3(3), STR_2(3), STR_1(3), 
  3963 ;; Auto vars:     Size  Location     Type
  3964 ;;  to              1    6[COMMON] PTR unsigned char 
  3965 ;;		 -> main@event(3), 
  3966 ;;  cp              1    5[COMMON] PTR unsigned char 
  3967 ;;		 -> main@event(3), 
  3968 ;; Return value:  Size  Location     Type
  3969 ;;                  1    wreg      PTR unsigned char 
  3970 ;; Registers used:
  3971 ;;		wreg, fsr0l, fsr0h, status,2, status,0, btemp+1, pclath
  3972 ;; Tracked objects:
  3973 ;;		On entry : 0/0
  3974 ;;		On exit  : 0/0
  3975 ;;		Unchanged: 0/0
  3976 ;; Data sizes:     COMMON   BANK0   BANK1   BANK3   BANK2
  3977 ;;      Params:         2       0       0       0       0
  3978 ;;      Locals:         2       0       0       0       0
  3979 ;;      Temps:          1       0       0       0       0
  3980 ;;      Totals:         5       0       0       0       0
  3981 ;;Total ram usage:        5 bytes
  3982 ;; Hardware stack levels used: 2
  3983 ;; Hardware stack levels required when called: 1
  3984 ;; This function calls:
  3985 ;;		Nothing
  3986 ;; This function is called by:
  3987 ;;		_main
  3988 ;; This function uses a non-reentrant model
  3989 ;;
  3990                           
  3991     1251                     _strcpy:	
  3992                           ;psect for function _strcpy
  3993                           
  3994                           
  3995                           ;incstack = 0
  3996                           ; Regs used in _strcpy: [wreg-fsr0h+status,2+status,0+btemp+1+pclath]
  3997                           ;strcpy@to stored from wreg
  3998     1251  00F6               	movwf	strcpy@to
  3999     1252                     l4794:
  4000     1252  0876               	movf	strcpy@to,w
  4001     1253  00F5               	movwf	strcpy@cp
  4002     1254  2A5F               	goto	l4800
  4003     1255                     l4796:
  4004     1255  3001               	movlw	1
  4005     1256  00F4               	movwf	??_strcpy
  4006     1257  0874               	movf	??_strcpy,w
  4007     1258  07F5               	addwf	strcpy@cp,f
  4008     1259                     l4798:
  4009     1259  3001               	movlw	1
  4010     125A  07F2               	addwf	strcpy@from,f
  4011     125B  1803               	skipnc
  4012     125C  0AF3               	incf	strcpy@from+1,f
  4013     125D  3000               	movlw	0
  4014     125E  07F3               	addwf	strcpy@from+1,f
  4015     125F                     l4800:
  4016     125F  0873               	movf	strcpy@from+1,w
  4017     1260  1283               	bcf	3,5	;RP0=0, select bank0
  4018     1261  1303               	bcf	3,6	;RP1=0, select bank0
  4019     1262  00FF               	movwf	btemp+1
  4020     1263  0872               	movf	strcpy@from,w
  4021     1264  0084               	movwf	4
  4022     1265  160A  118A  2000  160A  118A  	fcall	stringtab
  4023     126A  00F4               	movwf	??_strcpy
  4024     126B  0875               	movf	strcpy@cp,w
  4025     126C  0084               	movwf	4
  4026     126D  0874               	movf	??_strcpy,w
  4027     126E  1383               	bcf	3,7	;select IRP bank0
  4028     126F  0080               	movwf	0
  4029     1270  0800               	movf	0,w
  4030     1271  1D03               	btfss	3,2
  4031     1272  2A74               	goto	u4081
  4032     1273  2A75               	goto	u4080
  4033     1274                     u4081:
  4034     1274  2A55               	goto	l4796
  4035     1275                     u4080:
  4036     1275                     l1091:
  4037     1275  0008               	return
  4038     1276                     __end_of_strcpy:
  4039                           
  4040                           	psect	text3
  4041     091B                     __ptext3:	
  4042 ;; *************** function _read_digital_keypad *****************
  4043 ;; Defined at:
  4044 ;;		line 10 in file "digital_keypad.c"
  4045 ;; Parameters:    Size  Location     Type
  4046 ;;		None
  4047 ;; Auto vars:     Size  Location     Type
  4048 ;;  key             1    2[COMMON] unsigned char 
  4049 ;; Return value:  Size  Location     Type
  4050 ;;                  1    wreg      unsigned char 
  4051 ;; Registers used:
  4052 ;;		wreg, status,2, status,0, btemp+1
  4053 ;; Tracked objects:
  4054 ;;		On entry : 0/0
  4055 ;;		On exit  : 0/0
  4056 ;;		Unchanged: 0/0
  4057 ;; Data sizes:     COMMON   BANK0   BANK1   BANK3   BANK2
  4058 ;;      Params:         0       0       0       0       0
  4059 ;;      Locals:         1       0       0       0       0
  4060 ;;      Temps:          0       0       0       0       0
  4061 ;;      Totals:         1       0       0       0       0
  4062 ;;Total ram usage:        1 bytes
  4063 ;; Hardware stack levels used: 1
  4064 ;; Hardware stack levels required when called: 1
  4065 ;; This function calls:
  4066 ;;		Nothing
  4067 ;; This function is called by:
  4068 ;;		_main
  4069 ;; This function uses a non-reentrant model
  4070 ;;
  4071                           
  4072     091B                     _read_digital_keypad:	
  4073                           ;psect for function _read_digital_keypad
  4074                           
  4075     091B                     l4738:	
  4076                           ;incstack = 0
  4077                           ; Regs used in _read_digital_keypad: [wreg+status,2+status,0+btemp+1]
  4078                           
  4079                           
  4080                           ;digital_keypad.c: 12:     static char once;;digital_keypad.c: 13:     static int long_p
      +                          ressed;;digital_keypad.c: 14:     static unsigned char pre_key;;digital_keypad.c: 15:   
      +                            unsigned char key = PORTB & 0x3F;
  4081     091B  1283               	bcf	3,5	;RP0=0, select bank0
  4082     091C  1303               	bcf	3,6	;RP1=0, select bank0
  4083     091D  0806               	movf	6,w	;volatile
  4084     091E  393F               	andlw	63
  4085     091F  00F2               	movwf	read_digital_keypad@key
  4086     0920                     l4740:
  4087                           
  4088                           ;digital_keypad.c: 18:     if (key != 0x3F && once == 0)
  4089     0920  303F               	movlw	63
  4090     0921  0672               	xorwf	read_digital_keypad@key,w
  4091     0922  1903               	btfsc	3,2
  4092     0923  2925               	goto	u3951
  4093     0924  2926               	goto	u3950
  4094     0925                     u3951:
  4095     0925  2932               	goto	l4750
  4096     0926                     u3950:
  4097     0926                     l4742:
  4098     0926  087B               	movf	read_digital_keypad@once,w
  4099     0927  1D03               	btfss	3,2
  4100     0928  292A               	goto	u3961
  4101     0929  292B               	goto	u3960
  4102     092A                     u3961:
  4103     092A  2932               	goto	l4750
  4104     092B                     u3960:
  4105     092B                     l4744:
  4106                           
  4107                           ;digital_keypad.c: 19:     {;digital_keypad.c: 20:         once = 1;
  4108     092B  01FB               	clrf	read_digital_keypad@once
  4109     092C  0AFB               	incf	read_digital_keypad@once,f
  4110     092D                     l4746:
  4111                           
  4112                           ;digital_keypad.c: 21:         long_pressed = 0;
  4113     092D  01AB               	clrf	read_digital_keypad@long_pressed
  4114     092E  01AC               	clrf	read_digital_keypad@long_pressed+1
  4115     092F                     l4748:
  4116                           
  4117                           ;digital_keypad.c: 22:         pre_key = key;
  4118     092F  0872               	movf	read_digital_keypad@key,w
  4119     0930  00FA               	movwf	read_digital_keypad@pre_key
  4120                           
  4121                           ;digital_keypad.c: 23:     }
  4122     0931  294D               	goto	l4762
  4123     0932                     l4750:
  4124     0932  303F               	movlw	63
  4125     0933  0672               	xorwf	read_digital_keypad@key,w
  4126     0934  1D03               	btfss	3,2
  4127     0935  2937               	goto	u3971
  4128     0936  2938               	goto	u3970
  4129     0937                     u3971:
  4130     0937  294D               	goto	l4762
  4131     0938                     u3970:
  4132     0938                     l4752:
  4133     0938  037B               	decf	read_digital_keypad@once,w
  4134     0939  1D03               	btfss	3,2
  4135     093A  293C               	goto	u3981
  4136     093B  293D               	goto	u3980
  4137     093C                     u3981:
  4138     093C  294D               	goto	l4762
  4139     093D                     u3980:
  4140     093D                     l4754:
  4141                           
  4142                           ;digital_keypad.c: 25:     {;digital_keypad.c: 26:         once = 0;
  4143     093D  01FB               	clrf	read_digital_keypad@once
  4144     093E                     l4756:
  4145                           
  4146                           ;digital_keypad.c: 28:         if (long_pressed < 15)
  4147     093E  082C               	movf	read_digital_keypad@long_pressed+1,w
  4148     093F  3A80               	xorlw	128
  4149     0940  00FF               	movwf	btemp+1
  4150     0941  3080               	movlw	128
  4151     0942  027F               	subwf	btemp+1,w
  4152     0943  1D03               	skipz
  4153     0944  2947               	goto	u3995
  4154     0945  300F               	movlw	15
  4155     0946  022B               	subwf	read_digital_keypad@long_pressed,w
  4156     0947                     u3995:
  4157     0947  1803               	skipnc
  4158     0948  294A               	goto	u3991
  4159     0949  294B               	goto	u3990
  4160     094A                     u3991:
  4161     094A  294D               	goto	l4762
  4162     094B                     u3990:
  4163     094B                     l4758:
  4164                           
  4165                           ;digital_keypad.c: 29:         {;digital_keypad.c: 30:             return pre_key;
  4166     094B  087A               	movf	read_digital_keypad@pre_key,w
  4167     094C  29A3               	goto	l457
  4168     094D                     l4762:
  4169                           
  4170                           ;digital_keypad.c: 36:     if (once == 1 && long_pressed < 16)
  4171     094D  037B               	decf	read_digital_keypad@once,w
  4172     094E  1D03               	btfss	3,2
  4173     094F  2951               	goto	u4001
  4174     0950  2952               	goto	u4000
  4175     0951                     u4001:
  4176     0951  296A               	goto	l4768
  4177     0952                     u4000:
  4178     0952                     l4764:
  4179     0952  1283               	bcf	3,5	;RP0=0, select bank0
  4180     0953  1303               	bcf	3,6	;RP1=0, select bank0
  4181     0954  082C               	movf	read_digital_keypad@long_pressed+1,w
  4182     0955  3A80               	xorlw	128
  4183     0956  00FF               	movwf	btemp+1
  4184     0957  3080               	movlw	128
  4185     0958  027F               	subwf	btemp+1,w
  4186     0959  1D03               	skipz
  4187     095A  295D               	goto	u4015
  4188     095B  3010               	movlw	16
  4189     095C  022B               	subwf	read_digital_keypad@long_pressed,w
  4190     095D                     u4015:
  4191     095D  1803               	skipnc
  4192     095E  2960               	goto	u4011
  4193     095F  2961               	goto	u4010
  4194     0960                     u4011:
  4195     0960  296A               	goto	l4768
  4196     0961                     u4010:
  4197     0961                     l4766:
  4198                           
  4199                           ;digital_keypad.c: 37:     {;digital_keypad.c: 38:         long_pressed++;
  4200     0961  3001               	movlw	1
  4201     0962  1283               	bcf	3,5	;RP0=0, select bank0
  4202     0963  1303               	bcf	3,6	;RP1=0, select bank0
  4203     0964  07AB               	addwf	read_digital_keypad@long_pressed,f
  4204     0965  1803               	skipnc
  4205     0966  0AAC               	incf	read_digital_keypad@long_pressed+1,f
  4206     0967  3000               	movlw	0
  4207     0968  07AC               	addwf	read_digital_keypad@long_pressed+1,f
  4208                           
  4209                           ;digital_keypad.c: 39:     }
  4210     0969  29A2               	goto	l4790
  4211     096A                     l4768:
  4212     096A  037B               	decf	read_digital_keypad@once,w
  4213     096B  1D03               	btfss	3,2
  4214     096C  296E               	goto	u4021
  4215     096D  296F               	goto	u4020
  4216     096E                     u4021:
  4217     096E  2986               	goto	l4780
  4218     096F                     u4020:
  4219     096F                     l4770:
  4220     096F  3010               	movlw	16
  4221     0970  1283               	bcf	3,5	;RP0=0, select bank0
  4222     0971  1303               	bcf	3,6	;RP1=0, select bank0
  4223     0972  062B               	xorwf	read_digital_keypad@long_pressed,w
  4224     0973  042C               	iorwf	read_digital_keypad@long_pressed+1,w
  4225     0974  1D03               	btfss	3,2
  4226     0975  2977               	goto	u4031
  4227     0976  2978               	goto	u4030
  4228     0977                     u4031:
  4229     0977  2986               	goto	l4780
  4230     0978                     u4030:
  4231     0978                     l4772:
  4232     0978  3037               	movlw	55
  4233     0979  0672               	xorwf	read_digital_keypad@key,w
  4234     097A  1D03               	btfss	3,2
  4235     097B  297D               	goto	u4041
  4236     097C  297E               	goto	u4040
  4237     097D                     u4041:
  4238     097D  2986               	goto	l4780
  4239     097E                     u4040:
  4240     097E                     l4774:
  4241                           
  4242                           ;digital_keypad.c: 42:     {;digital_keypad.c: 43:         long_pressed++;
  4243     097E  3001               	movlw	1
  4244     097F  07AB               	addwf	read_digital_keypad@long_pressed,f
  4245     0980  1803               	skipnc
  4246     0981  0AAC               	incf	read_digital_keypad@long_pressed+1,f
  4247     0982  3000               	movlw	0
  4248     0983  07AC               	addwf	read_digital_keypad@long_pressed+1,f
  4249                           
  4250                           ;digital_keypad.c: 44:         return 0x80;
  4251     0984  3080               	movlw	128
  4252     0985  29A3               	goto	l457
  4253     0986                     l4780:
  4254     0986  037B               	decf	read_digital_keypad@once,w
  4255     0987  1D03               	btfss	3,2
  4256     0988  298A               	goto	u4051
  4257     0989  298B               	goto	u4050
  4258     098A                     u4051:
  4259     098A  29A2               	goto	l4790
  4260     098B                     u4050:
  4261     098B                     l4782:
  4262     098B  3010               	movlw	16
  4263     098C  1283               	bcf	3,5	;RP0=0, select bank0
  4264     098D  1303               	bcf	3,6	;RP1=0, select bank0
  4265     098E  062B               	xorwf	read_digital_keypad@long_pressed,w
  4266     098F  042C               	iorwf	read_digital_keypad@long_pressed+1,w
  4267     0990  1D03               	btfss	3,2
  4268     0991  2993               	goto	u4061
  4269     0992  2994               	goto	u4060
  4270     0993                     u4061:
  4271     0993  29A2               	goto	l4790
  4272     0994                     u4060:
  4273     0994                     l4784:
  4274     0994  302F               	movlw	47
  4275     0995  0672               	xorwf	read_digital_keypad@key,w
  4276     0996  1D03               	btfss	3,2
  4277     0997  2999               	goto	u4071
  4278     0998  299A               	goto	u4070
  4279     0999                     u4071:
  4280     0999  29A2               	goto	l4790
  4281     099A                     u4070:
  4282     099A                     l4786:
  4283                           
  4284                           ;digital_keypad.c: 48:     {;digital_keypad.c: 49:         long_pressed++;
  4285     099A  3001               	movlw	1
  4286     099B  07AB               	addwf	read_digital_keypad@long_pressed,f
  4287     099C  1803               	skipnc
  4288     099D  0AAC               	incf	read_digital_keypad@long_pressed+1,f
  4289     099E  3000               	movlw	0
  4290     099F  07AC               	addwf	read_digital_keypad@long_pressed+1,f
  4291                           
  4292                           ;digital_keypad.c: 50:         return 0x90;
  4293     09A0  3090               	movlw	144
  4294     09A1  29A3               	goto	l457
  4295     09A2                     l4790:
  4296                           
  4297                           ;digital_keypad.c: 53:     return 0x3F;
  4298     09A2  303F               	movlw	63
  4299     09A3                     l457:
  4300     09A3  0008               	return
  4301     09A4                     __end_of_read_digital_keypad:
  4302                           
  4303                           	psect	text4
  4304     1152                     __ptext4:	
  4305 ;; *************** function _read_adc *****************
  4306 ;; Defined at:
  4307 ;;		line 12 in file "adc.c"
  4308 ;; Parameters:    Size  Location     Type
  4309 ;;		None
  4310 ;; Auto vars:     Size  Location     Type
  4311 ;;  adc_reg_val     2    4[COMMON] unsigned short 
  4312 ;; Return value:  Size  Location     Type
  4313 ;;                  2    2[COMMON] unsigned short 
  4314 ;; Registers used:
  4315 ;;		wreg
  4316 ;; Tracked objects:
  4317 ;;		On entry : 0/0
  4318 ;;		On exit  : 0/0
  4319 ;;		Unchanged: 0/0
  4320 ;; Data sizes:     COMMON   BANK0   BANK1   BANK3   BANK2
  4321 ;;      Params:         2       0       0       0       0
  4322 ;;      Locals:         2       0       0       0       0
  4323 ;;      Temps:          0       0       0       0       0
  4324 ;;      Totals:         4       0       0       0       0
  4325 ;;Total ram usage:        4 bytes
  4326 ;; Hardware stack levels used: 1
  4327 ;; Hardware stack levels required when called: 1
  4328 ;; This function calls:
  4329 ;;		Nothing
  4330 ;; This function is called by:
  4331 ;;		_main
  4332 ;; This function uses a non-reentrant model
  4333 ;;
  4334                           
  4335     1152                     _read_adc:	
  4336                           ;psect for function _read_adc
  4337                           
  4338     1152                     l4704:	
  4339                           ;incstack = 0
  4340                           ; Regs used in _read_adc: [wreg]
  4341                           
  4342                           
  4343                           ;adc.c: 14:     unsigned short adc_reg_val;;adc.c: 17:     GO = 1;
  4344     1152  1283               	bcf	3,5	;RP0=0, select bank0
  4345     1153  1303               	bcf	3,6	;RP1=0, select bank0
  4346     1154  151F               	bsf	31,2	;volatile
  4347     1155                     l125:	
  4348                           ;adc.c: 20:     while (nDONE);
  4349                           
  4350     1155  191F               	btfsc	31,2	;volatile
  4351     1156  2958               	goto	u3941
  4352     1157  2959               	goto	u3940
  4353     1158                     u3941:
  4354     1158  2955               	goto	l125
  4355     1159                     u3940:
  4356     1159                     l4706:
  4357                           
  4358                           ;adc.c: 23:     adc_reg_val = (ADRESH << 8) | ADRESL;
  4359     1159  081E               	movf	30,w	;volatile
  4360     115A  00F5               	movwf	read_adc@adc_reg_val+1
  4361     115B  1683               	bsf	3,5	;RP0=1, select bank1
  4362     115C  1303               	bcf	3,6	;RP1=0, select bank1
  4363     115D  081E               	movf	30,w	;volatile
  4364     115E  00F4               	movwf	read_adc@adc_reg_val
  4365                           
  4366                           ;adc.c: 25:     return adc_reg_val;
  4367     115F  0875               	movf	read_adc@adc_reg_val+1,w
  4368     1160  00F3               	movwf	?_read_adc+1
  4369     1161  0874               	movf	read_adc@adc_reg_val,w
  4370     1162  00F2               	movwf	?_read_adc
  4371     1163                     l128:
  4372     1163  0008               	return
  4373     1164                     __end_of_read_adc:
  4374                           
  4375                           	psect	text5
  4376     09A4                     __ptext5:	
  4377 ;; *************** function _login_menu *****************
  4378 ;; Defined at:
  4379 ;;		line 272 in file "car_black_box.c"
  4380 ;; Parameters:    Size  Location     Type
  4381 ;;  key             1    wreg     unsigned char 
  4382 ;;  reset_flag      1   12[BANK0 ] unsigned char 
  4383 ;; Auto vars:     Size  Location     Type
  4384 ;;  key             1   15[BANK0 ] unsigned char 
  4385 ;; Return value:  Size  Location     Type
  4386 ;;                  1    wreg      unsigned char 
  4387 ;; Registers used:
  4388 ;;		wreg, fsr0l, fsr0h, status,2, status,0, btemp+1, pclath, cstack
  4389 ;; Tracked objects:
  4390 ;;		On entry : 0/0
  4391 ;;		On exit  : 0/0
  4392 ;;		Unchanged: 0/0
  4393 ;; Data sizes:     COMMON   BANK0   BANK1   BANK3   BANK2
  4394 ;;      Params:         0       1       0       0       0
  4395 ;;      Locals:         0       1       0       0       0
  4396 ;;      Temps:          0       2       0       0       0
  4397 ;;      Totals:         0       4       0       0       0
  4398 ;;Total ram usage:        4 bytes
  4399 ;; Hardware stack levels used: 1
  4400 ;; Hardware stack levels required when called: 3
  4401 ;; This function calls:
  4402 ;;		_clcd_print
  4403 ;;		_clcd_putch
  4404 ;;		_clear_screen
  4405 ;; This function is called by:
  4406 ;;		_main
  4407 ;; This function uses a non-reentrant model
  4408 ;;
  4409                           
  4410     09A4                     _login_menu:	
  4411                           ;psect for function _login_menu
  4412                           
  4413                           
  4414                           ;incstack = 0
  4415                           ; Regs used in _login_menu: [wreg-fsr0h+status,2+status,0+btemp+1+pclath+cstack]
  4416                           ;login_menu@key stored from wreg
  4417     09A4  1283               	bcf	3,5	;RP0=0, select bank0
  4418     09A5  1303               	bcf	3,6	;RP1=0, select bank0
  4419     09A6  00D4               	movwf	login_menu@key
  4420     09A7                     l4992:
  4421                           
  4422                           ;car_black_box.c: 272: unsigned char login_menu(unsigned char key, unsigned char reset_f
      +                          lag);car_black_box.c: 273: {;car_black_box.c: 274:     static char menu_pos;;car_black_b
      +                          ox.c: 278:     if (return_time == 0)
  4423     09A7  086D               	movf	_return_time,w
  4424     09A8  1D03               	btfss	3,2
  4425     09A9  29AB               	goto	u4231
  4426     09AA  29AC               	goto	u4230
  4427     09AB                     u4231:
  4428     09AB  29AE               	goto	l4998
  4429     09AC                     u4230:
  4430     09AC                     l4994:
  4431                           
  4432                           ;car_black_box.c: 279:     {;car_black_box.c: 280:         return 0x0A;
  4433     09AC  300A               	movlw	10
  4434     09AD  2A5C               	goto	l340
  4435     09AE                     l4998:
  4436                           
  4437                           ;car_black_box.c: 285:     if (reset_flag == 0x70)
  4438     09AE  3070               	movlw	112
  4439     09AF  0651               	xorwf	login_menu@reset_flag,w
  4440     09B0  1D03               	btfss	3,2
  4441     09B1  29B3               	goto	u4241
  4442     09B2  29B4               	goto	u4240
  4443     09B3                     u4241:
  4444     09B3  29BC               	goto	l5006
  4445     09B4                     u4240:
  4446     09B4                     l5000:
  4447                           
  4448                           ;car_black_box.c: 286:     {;car_black_box.c: 287:         return_time = 15;
  4449     09B4  300F               	movlw	15
  4450     09B5  00ED               	movwf	_return_time
  4451     09B6                     l5002:
  4452                           
  4453                           ;car_black_box.c: 288:         menu_pos = 0;
  4454     09B6  01BC               	clrf	login_menu@menu_pos
  4455     09B7                     l5004:
  4456                           
  4457                           ;car_black_box.c: 289:         clear_screen();
  4458     09B7  160A  118A  2141  120A  158A  	fcall	_clear_screen
  4459     09BC                     l5006:
  4460                           
  4461                           ;car_black_box.c: 294:     if (key == 0x37 && menu_pos > 0)
  4462     09BC  3037               	movlw	55
  4463     09BD  1283               	bcf	3,5	;RP0=0, select bank0
  4464     09BE  1303               	bcf	3,6	;RP1=0, select bank0
  4465     09BF  0654               	xorwf	login_menu@key,w
  4466     09C0  1D03               	btfss	3,2
  4467     09C1  29C3               	goto	u4251
  4468     09C2  29C4               	goto	u4250
  4469     09C3                     u4251:
  4470     09C3  29D3               	goto	l5016
  4471     09C4                     u4250:
  4472     09C4                     l5008:
  4473     09C4  083C               	movf	login_menu@menu_pos,w
  4474     09C5  1903               	btfsc	3,2
  4475     09C6  29C8               	goto	u4261
  4476     09C7  29C9               	goto	u4260
  4477     09C8                     u4261:
  4478     09C8  29D3               	goto	l5016
  4479     09C9                     u4260:
  4480     09C9                     l5010:
  4481                           
  4482                           ;car_black_box.c: 295:     {;car_black_box.c: 296:         return_time = 15;
  4483     09C9  300F               	movlw	15
  4484     09CA  00ED               	movwf	_return_time
  4485     09CB                     l5012:
  4486                           
  4487                           ;car_black_box.c: 297:         menu_pos--;
  4488     09CB  3001               	movlw	1
  4489     09CC  02BC               	subwf	login_menu@menu_pos,f
  4490     09CD                     l5014:
  4491                           
  4492                           ;car_black_box.c: 298:         clear_screen();
  4493     09CD  160A  118A  2141  120A  158A  	fcall	_clear_screen
  4494                           
  4495                           ;car_black_box.c: 299:     }
  4496     09D2  29E6               	goto	l5026
  4497     09D3                     l5016:
  4498     09D3  302F               	movlw	47
  4499     09D4  0654               	xorwf	login_menu@key,w
  4500     09D5  1D03               	btfss	3,2
  4501     09D6  29D8               	goto	u4271
  4502     09D7  29D9               	goto	u4270
  4503     09D8                     u4271:
  4504     09D8  29E6               	goto	l5026
  4505     09D9                     u4270:
  4506     09D9                     l5018:
  4507     09D9  3004               	movlw	4
  4508     09DA  023C               	subwf	login_menu@menu_pos,w
  4509     09DB  1803               	skipnc
  4510     09DC  29DE               	goto	u4281
  4511     09DD  29DF               	goto	u4280
  4512     09DE                     u4281:
  4513     09DE  29E6               	goto	l5026
  4514     09DF                     u4280:
  4515     09DF                     l5020:
  4516                           
  4517                           ;car_black_box.c: 302:     {;car_black_box.c: 303:         return_time = 15;
  4518     09DF  300F               	movlw	15
  4519     09E0  00ED               	movwf	_return_time
  4520     09E1                     l5022:
  4521                           
  4522                           ;car_black_box.c: 304:         menu_pos++;
  4523     09E1  3001               	movlw	1
  4524     09E2  00D2               	movwf	??_login_menu
  4525     09E3  0852               	movf	??_login_menu,w
  4526     09E4  07BC               	addwf	login_menu@menu_pos,f
  4527     09E5  29CD               	goto	l5014
  4528     09E6                     l5026:
  4529                           
  4530                           ;car_black_box.c: 312:     if (menu_pos < 4)
  4531     09E6  3004               	movlw	4
  4532     09E7  1283               	bcf	3,5	;RP0=0, select bank0
  4533     09E8  1303               	bcf	3,6	;RP1=0, select bank0
  4534     09E9  023C               	subwf	login_menu@menu_pos,w
  4535     09EA  1803               	skipnc
  4536     09EB  29ED               	goto	u4291
  4537     09EC  29EE               	goto	u4290
  4538     09ED                     u4291:
  4539     09ED  2A21               	goto	l5034
  4540     09EE                     u4290:
  4541     09EE                     l5028:
  4542                           
  4543                           ;car_black_box.c: 313:     {;car_black_box.c: 314:         clcd_putch('*', (0x80 + 0));
  4544     09EE  3080               	movlw	128
  4545     09EF  00CF               	movwf	clcd_putch@addr
  4546     09F0  302A               	movlw	42
  4547     09F1  160A  118A  218A  120A  158A  	fcall	_clcd_putch
  4548     09F6                     l5030:
  4549                           
  4550                           ;car_black_box.c: 315:         clcd_print(menu[menu_pos], (0x80 + 2));
  4551     09F6  1283               	bcf	3,5	;RP0=0, select bank0
  4552     09F7  1303               	bcf	3,6	;RP1=0, select bank0
  4553     09F8  083C               	movf	login_menu@menu_pos,w
  4554     09F9  00D2               	movwf	??_login_menu
  4555     09FA  0752               	addwf	??_login_menu,w
  4556     09FB  3EAC               	addlw	(low (_menu| 0))& (0+255)
  4557     09FC  0084               	movwf	4
  4558     09FD  1383               	bcf	3,7	;select IRP bank1
  4559     09FE  0800               	movf	0,w
  4560     09FF  00F6               	movwf	clcd_print@str
  4561     0A00  0A84               	incf	4,f
  4562     0A01  0800               	movf	0,w
  4563     0A02  0384               	decf	4,f
  4564     0A03  00F7               	movwf	clcd_print@str+1
  4565     0A04  3082               	movlw	130
  4566     0A05  00F8               	movwf	clcd_print@addr
  4567     0A06  160A  118A  231D  120A  158A  	fcall	_clcd_print
  4568     0A0B                     l5032:
  4569                           
  4570                           ;car_black_box.c: 316:         clcd_print(menu[menu_pos + 1], (0xC0 + 2));
  4571     0A0B  1283               	bcf	3,5	;RP0=0, select bank0
  4572     0A0C  1303               	bcf	3,6	;RP1=0, select bank0
  4573     0A0D  083C               	movf	login_menu@menu_pos,w
  4574     0A0E  00D2               	movwf	??_login_menu
  4575     0A0F  0752               	addwf	??_login_menu,w
  4576     0A10  3EAE               	addlw	(low ((_menu| 0+2)))& (0+255)
  4577     0A11  0084               	movwf	4
  4578     0A12  1383               	bcf	3,7	;select IRP bank1
  4579     0A13  0800               	movf	0,w
  4580     0A14  00F6               	movwf	clcd_print@str
  4581     0A15  0A84               	incf	4,f
  4582     0A16  0800               	movf	0,w
  4583     0A17  0384               	decf	4,f
  4584     0A18  00F7               	movwf	clcd_print@str+1
  4585     0A19  30C2               	movlw	194
  4586     0A1A  00F8               	movwf	clcd_print@addr
  4587     0A1B  160A  118A  231D  120A  158A  	fcall	_clcd_print
  4588                           
  4589                           ;car_black_box.c: 317:     }
  4590     0A20  2A59               	goto	l5040
  4591     0A21                     l5034:
  4592     0A21  3004               	movlw	4
  4593     0A22  063C               	xorwf	login_menu@menu_pos,w
  4594     0A23  1D03               	btfss	3,2
  4595     0A24  2A26               	goto	u4301
  4596     0A25  2A27               	goto	u4300
  4597     0A26                     u4301:
  4598     0A26  2A59               	goto	l5040
  4599     0A27                     u4300:
  4600     0A27                     l5036:
  4601                           
  4602                           ;car_black_box.c: 320:     {;car_black_box.c: 322:         clcd_print(menu[menu_pos - 1]
      +                          , (0x80 + 2));
  4603     0A27  083C               	movf	login_menu@menu_pos,w
  4604     0A28  00D2               	movwf	??_login_menu
  4605     0A29  0752               	addwf	??_login_menu,w
  4606     0A2A  3EAA               	addlw	(low ((_menu| 0+254)))& (0+255)
  4607     0A2B  0084               	movwf	4
  4608     0A2C  1383               	bcf	3,7	;select IRP bank1
  4609     0A2D  0800               	movf	0,w
  4610     0A2E  00F6               	movwf	clcd_print@str
  4611     0A2F  0A84               	incf	4,f
  4612     0A30  0800               	movf	0,w
  4613     0A31  0384               	decf	4,f
  4614     0A32  00F7               	movwf	clcd_print@str+1
  4615     0A33  3082               	movlw	130
  4616     0A34  00F8               	movwf	clcd_print@addr
  4617     0A35  160A  118A  231D  120A  158A  	fcall	_clcd_print
  4618                           
  4619                           ;car_black_box.c: 323:         clcd_print(menu[menu_pos], (0xC0 + 2));
  4620     0A3A  1283               	bcf	3,5	;RP0=0, select bank0
  4621     0A3B  1303               	bcf	3,6	;RP1=0, select bank0
  4622     0A3C  083C               	movf	login_menu@menu_pos,w
  4623     0A3D  00D2               	movwf	??_login_menu
  4624     0A3E  0752               	addwf	??_login_menu,w
  4625     0A3F  3EAC               	addlw	(low (_menu| 0))& (0+255)
  4626     0A40  0084               	movwf	4
  4627     0A41  1383               	bcf	3,7	;select IRP bank1
  4628     0A42  0800               	movf	0,w
  4629     0A43  00F6               	movwf	clcd_print@str
  4630     0A44  0A84               	incf	4,f
  4631     0A45  0800               	movf	0,w
  4632     0A46  0384               	decf	4,f
  4633     0A47  00F7               	movwf	clcd_print@str+1
  4634     0A48  30C2               	movlw	194
  4635     0A49  00F8               	movwf	clcd_print@addr
  4636     0A4A  160A  118A  231D  120A  158A  	fcall	_clcd_print
  4637     0A4F                     l5038:
  4638                           
  4639                           ;car_black_box.c: 324:         clcd_putch('*', (0xC0 + 0));
  4640     0A4F  30C0               	movlw	192
  4641     0A50  1283               	bcf	3,5	;RP0=0, select bank0
  4642     0A51  1303               	bcf	3,6	;RP1=0, select bank0
  4643     0A52  00CF               	movwf	clcd_putch@addr
  4644     0A53  302A               	movlw	42
  4645     0A54  160A  118A  218A  120A  158A  	fcall	_clcd_putch
  4646     0A59                     l5040:
  4647                           
  4648                           ;car_black_box.c: 327:     return menu_pos;
  4649     0A59  1283               	bcf	3,5	;RP0=0, select bank0
  4650     0A5A  1303               	bcf	3,6	;RP1=0, select bank0
  4651     0A5B  083C               	movf	login_menu@menu_pos,w
  4652     0A5C                     l340:
  4653     0A5C  0008               	return
  4654     0A5D                     __end_of_login_menu:
  4655                           
  4656                           	psect	text6
  4657     0CB9                     __ptext6:	
  4658 ;; *************** function _login *****************
  4659 ;; Defined at:
  4660 ;;		line 153 in file "car_black_box.c"
  4661 ;; Parameters:    Size  Location     Type
  4662 ;;  key             1    wreg     unsigned char 
  4663 ;;  reset_flag      1   12[BANK0 ] unsigned char 
  4664 ;; Auto vars:     Size  Location     Type
  4665 ;;  key             1   22[BANK0 ] unsigned char 
  4666 ;;  j               2   23[BANK0 ] int 
  4667 ;;  spassword       4   18[BANK0 ] unsigned char [4]
  4668 ;; Return value:  Size  Location     Type
  4669 ;;                  1    wreg      unsigned char 
  4670 ;; Registers used:
  4671 ;;		wreg, fsr0l, fsr0h, status,2, status,0, btemp+1, pclath, cstack
  4672 ;; Tracked objects:
  4673 ;;		On entry : 0/0
  4674 ;;		On exit  : 0/0
  4675 ;;		Unchanged: 0/0
  4676 ;; Data sizes:     COMMON   BANK0   BANK1   BANK3   BANK2
  4677 ;;      Params:         0       1       0       0       0
  4678 ;;      Locals:         0       9       0       0       0
  4679 ;;      Temps:          0       3       0       0       0
  4680 ;;      Totals:         0      13       0       0       0
  4681 ;;Total ram usage:       13 bytes
  4682 ;; Hardware stack levels used: 1
  4683 ;; Hardware stack levels required when called: 5
  4684 ;; This function calls:
  4685 ;;		___lwdiv
  4686 ;;		___lwmod
  4687 ;;		_clcd_print
  4688 ;;		_clcd_putch
  4689 ;;		_clcd_write
  4690 ;;		_clear_screen
  4691 ;;		_eeprom_at24c04_random_read
  4692 ;;		_strncmp
  4693 ;; This function is called by:
  4694 ;;		_main
  4695 ;; This function uses a non-reentrant model
  4696 ;;
  4697                           
  4698     0CB9                     _login:	
  4699                           ;psect for function _login
  4700                           
  4701                           
  4702                           ;incstack = 0
  4703                           ; Regs used in _login: [wreg-fsr0h+status,2+status,0+btemp+1+pclath+cstack]
  4704                           ;login@key stored from wreg
  4705     0CB9  1283               	bcf	3,5	;RP0=0, select bank0
  4706     0CBA  1303               	bcf	3,6	;RP1=0, select bank0
  4707     0CBB  00DB               	movwf	login@key
  4708     0CBC                     l4876:
  4709                           
  4710                           ;car_black_box.c: 153: unsigned char login(unsigned char key, unsigned char reset_flag);
      +                          car_black_box.c: 154: {;car_black_box.c: 155:     static char npassword[4];;car_black_bo
      +                          x.c: 156:     char spassword[4];;car_black_box.c: 157:     static char i;;car_black_box.
      +                          c: 158:     static unsigned char attempts_rem = 3;;car_black_box.c: 161:     if (reset_f
      +                          lag == 0x60)
  4711     0CBC  3060               	movlw	96
  4712     0CBD  0651               	xorwf	login@reset_flag,w
  4713     0CBE  1D03               	btfss	3,2
  4714     0CBF  2CC1               	goto	u4121
  4715     0CC0  2CC2               	goto	u4120
  4716     0CC1                     u4121:
  4717     0CC1  2CD1               	goto	l4894
  4718     0CC2                     u4120:
  4719     0CC2                     l4878:
  4720                           
  4721                           ;car_black_box.c: 162:     {;car_black_box.c: 163:         attempts_rem = 3;
  4722     0CC2  3003               	movlw	3
  4723     0CC3  00EC               	movwf	login@attempts_rem
  4724     0CC4                     l4880:
  4725                           
  4726                           ;car_black_box.c: 166:         npassword[0] = '\0';
  4727     0CC4  1683               	bsf	3,5	;RP0=1, select bank1
  4728     0CC5  1303               	bcf	3,6	;RP1=0, select bank1
  4729     0CC6  01CD               	clrf	login@npassword^(0+128)
  4730     0CC7                     l4882:
  4731                           
  4732                           ;car_black_box.c: 167:         npassword[1] = '\0';
  4733     0CC7  01CE               	clrf	(login@npassword^(0+128)+1)
  4734     0CC8                     l4884:
  4735                           
  4736                           ;car_black_box.c: 168:         npassword[2] = '\0';
  4737     0CC8  01CF               	clrf	(login@npassword^(0+128)+2)
  4738     0CC9                     l4886:
  4739                           
  4740                           ;car_black_box.c: 169:         npassword[3] = '\0';
  4741     0CC9  01D0               	clrf	(login@npassword^(0+128)+3)
  4742     0CCA                     l4888:
  4743                           
  4744                           ;car_black_box.c: 171:         i = 0;
  4745     0CCA  1283               	bcf	3,5	;RP0=0, select bank0
  4746     0CCB  1303               	bcf	3,6	;RP1=0, select bank0
  4747     0CCC  01BD               	clrf	login@i
  4748     0CCD                     l4890:
  4749                           
  4750                           ;car_black_box.c: 172:         key = 0xFF;
  4751     0CCD  30FF               	movlw	255
  4752     0CCE  00DB               	movwf	login@key
  4753     0CCF                     l4892:
  4754                           
  4755                           ;car_black_box.c: 173:         return_time = 5;
  4756     0CCF  3005               	movlw	5
  4757     0CD0  00ED               	movwf	_return_time
  4758     0CD1                     l4894:
  4759                           
  4760                           ;car_black_box.c: 178:     if (return_time == 0)
  4761     0CD1  086D               	movf	_return_time,w
  4762     0CD2  1D03               	btfss	3,2
  4763     0CD3  2CD5               	goto	u4131
  4764     0CD4  2CD6               	goto	u4130
  4765     0CD5                     u4131:
  4766     0CD5  2CD8               	goto	l4900
  4767     0CD6                     u4130:
  4768     0CD6                     l4896:
  4769                           
  4770                           ;car_black_box.c: 179:     {;car_black_box.c: 180:         return 0x0A;
  4771     0CD6  300A               	movlw	10
  4772     0CD7  2E5A               	goto	l321
  4773     0CD8                     l4900:
  4774                           
  4775                           ;car_black_box.c: 190:     _delay((unsigned long)((50)*(20000000/4000.0)));
  4776     0CD8  3002               	movlw	2
  4777     0CD9  1283               	bcf	3,5	;RP0=0, select bank0
  4778     0CDA  1303               	bcf	3,6	;RP1=0, select bank0
  4779     0CDB  00D4               	movwf	??_login+2
  4780     0CDC  3045               	movlw	69
  4781     0CDD  00D3               	movwf	??_login+1
  4782     0CDE  30A9               	movlw	169
  4783     0CDF  00D2               	movwf	??_login
  4784     0CE0                     u4937:
  4785     0CE0  0BD2               	decfsz	??_login,f
  4786     0CE1  2CE0               	goto	u4937
  4787     0CE2  0BD3               	decfsz	??_login+1,f
  4788     0CE3  2CE0               	goto	u4937
  4789     0CE4  0BD4               	decfsz	??_login+2,f
  4790     0CE5  2CE0               	goto	u4937
  4791     0CE6                     l4902:
  4792                           
  4793                           ;car_black_box.c: 192:     if (key == 0x37 && i < 4)
  4794     0CE6  3037               	movlw	55
  4795     0CE7  1283               	bcf	3,5	;RP0=0, select bank0
  4796     0CE8  1303               	bcf	3,6	;RP1=0, select bank0
  4797     0CE9  065B               	xorwf	login@key,w
  4798     0CEA  1D03               	btfss	3,2
  4799     0CEB  2CED               	goto	u4141
  4800     0CEC  2CEE               	goto	u4140
  4801     0CED                     u4141:
  4802     0CED  2D0C               	goto	l4914
  4803     0CEE                     u4140:
  4804     0CEE                     l4904:
  4805     0CEE  3004               	movlw	4
  4806     0CEF  023D               	subwf	login@i,w
  4807     0CF0  1803               	skipnc
  4808     0CF1  2CF3               	goto	u4151
  4809     0CF2  2CF4               	goto	u4150
  4810     0CF3                     u4151:
  4811     0CF3  2D0C               	goto	l4914
  4812     0CF4                     u4150:
  4813     0CF4                     l4906:
  4814                           
  4815                           ;car_black_box.c: 193:     {;car_black_box.c: 194:         npassword[i] = '1';
  4816     0CF4  083D               	movf	login@i,w
  4817     0CF5  3ECD               	addlw	(low (login@npassword| 0))& (0+255)
  4818     0CF6  0084               	movwf	4
  4819     0CF7  3031               	movlw	49
  4820     0CF8  1383               	bcf	3,7	;select IRP bank1
  4821     0CF9  0080               	movwf	0
  4822     0CFA                     l4908:
  4823                           
  4824                           ;car_black_box.c: 195:         clcd_putch('*', (0xC0 + 6 + i));
  4825     0CFA  083D               	movf	login@i,w
  4826     0CFB  3EC6               	addlw	198
  4827     0CFC  00CF               	movwf	clcd_putch@addr
  4828     0CFD  302A               	movlw	42
  4829     0CFE  160A  118A  218A  120A  158A  	fcall	_clcd_putch
  4830     0D03                     l4910:
  4831                           
  4832                           ;car_black_box.c: 196:         i++;
  4833     0D03  3001               	movlw	1
  4834     0D04  1283               	bcf	3,5	;RP0=0, select bank0
  4835     0D05  1303               	bcf	3,6	;RP1=0, select bank0
  4836     0D06  00D2               	movwf	??_login
  4837     0D07  0852               	movf	??_login,w
  4838     0D08  07BD               	addwf	login@i,f
  4839     0D09                     l4912:
  4840                           
  4841                           ;car_black_box.c: 197:         return_time = 5;
  4842     0D09  3005               	movlw	5
  4843     0D0A  00ED               	movwf	_return_time
  4844                           
  4845                           ;car_black_box.c: 198:     }
  4846     0D0B  2D28               	goto	l4926
  4847     0D0C                     l4914:
  4848     0D0C  302F               	movlw	47
  4849     0D0D  065B               	xorwf	login@key,w
  4850     0D0E  1D03               	btfss	3,2
  4851     0D0F  2D11               	goto	u4161
  4852     0D10  2D12               	goto	u4160
  4853     0D11                     u4161:
  4854     0D11  2D28               	goto	l4926
  4855     0D12                     u4160:
  4856     0D12                     l4916:
  4857     0D12  3004               	movlw	4
  4858     0D13  023D               	subwf	login@i,w
  4859     0D14  1803               	skipnc
  4860     0D15  2D17               	goto	u4171
  4861     0D16  2D18               	goto	u4170
  4862     0D17                     u4171:
  4863     0D17  2D28               	goto	l4926
  4864     0D18                     u4170:
  4865     0D18                     l4918:
  4866                           
  4867                           ;car_black_box.c: 200:     {;car_black_box.c: 201:         npassword[i] = '0';
  4868     0D18  083D               	movf	login@i,w
  4869     0D19  3ECD               	addlw	(low (login@npassword| 0))& (0+255)
  4870     0D1A  0084               	movwf	4
  4871     0D1B  3030               	movlw	48
  4872     0D1C  1383               	bcf	3,7	;select IRP bank1
  4873     0D1D  0080               	movwf	0
  4874     0D1E                     l4920:
  4875                           
  4876                           ;car_black_box.c: 202:         clcd_putch('*', (0xC0 + 6 + i));
  4877     0D1E  083D               	movf	login@i,w
  4878     0D1F  3EC6               	addlw	198
  4879     0D20  00CF               	movwf	clcd_putch@addr
  4880     0D21  302A               	movlw	42
  4881     0D22  160A  118A  218A  120A  158A  	fcall	_clcd_putch
  4882     0D27  2D03               	goto	l4910
  4883     0D28                     l4926:
  4884                           
  4885                           ;car_black_box.c: 209:     if (i == 4)
  4886     0D28  3004               	movlw	4
  4887     0D29  063D               	xorwf	login@i,w
  4888     0D2A  1D03               	btfss	3,2
  4889     0D2B  2D2D               	goto	u4181
  4890     0D2C  2D2E               	goto	u4180
  4891     0D2D                     u4181:
  4892     0D2D  2E59               	goto	l4988
  4893     0D2E                     u4180:
  4894     0D2E                     l4928:
  4895                           
  4896                           ;car_black_box.c: 210:     {;car_black_box.c: 212:         for (int j = 0; j < 4; j++)
  4897     0D2E  01DC               	clrf	login@j
  4898     0D2F  01DD               	clrf	login@j+1
  4899     0D30                     l4934:
  4900                           
  4901                           ;car_black_box.c: 213:         {;car_black_box.c: 214:             spassword[j] = eeprom
      +                          _at24c04_random_read(j);
  4902     0D30  1283               	bcf	3,5	;RP0=0, select bank0
  4903     0D31  1303               	bcf	3,6	;RP1=0, select bank0
  4904     0D32  085C               	movf	login@j,w
  4905     0D33  3E57               	addlw	(low (login@spassword| 0))& (0+255)
  4906     0D34  0084               	movwf	4
  4907     0D35  085C               	movf	login@j,w
  4908     0D36  160A  118A  22F2  120A  158A  	fcall	_eeprom_at24c04_random_read
  4909     0D3B  1383               	bcf	3,7	;select IRP bank0
  4910     0D3C  0080               	movwf	0
  4911     0D3D                     l4936:
  4912                           
  4913                           ;car_black_box.c: 215:         }
  4914     0D3D  3001               	movlw	1
  4915     0D3E  1283               	bcf	3,5	;RP0=0, select bank0
  4916     0D3F  1303               	bcf	3,6	;RP1=0, select bank0
  4917     0D40  07DC               	addwf	login@j,f
  4918     0D41  1803               	skipnc
  4919     0D42  0ADD               	incf	login@j+1,f
  4920     0D43  3000               	movlw	0
  4921     0D44  07DD               	addwf	login@j+1,f
  4922     0D45                     l4938:
  4923     0D45  085D               	movf	login@j+1,w
  4924     0D46  3A80               	xorlw	128
  4925     0D47  00FF               	movwf	btemp+1
  4926     0D48  3080               	movlw	128
  4927     0D49  027F               	subwf	btemp+1,w
  4928     0D4A  1D03               	skipz
  4929     0D4B  2D4E               	goto	u4195
  4930     0D4C  3004               	movlw	4
  4931     0D4D  025C               	subwf	login@j,w
  4932     0D4E                     u4195:
  4933     0D4E  1C03               	skipc
  4934     0D4F  2D51               	goto	u4191
  4935     0D50  2D52               	goto	u4190
  4936     0D51                     u4191:
  4937     0D51  2D30               	goto	l4934
  4938     0D52                     u4190:
  4939     0D52                     l4940:
  4940                           
  4941                           ;car_black_box.c: 218:         if (strncmp(spassword, npassword, 4) == 0)
  4942     0D52  30CD               	movlw	(low (login@npassword| 0))& (0+255)
  4943     0D53  00F2               	movwf	strncmp@s2
  4944     0D54  3004               	movlw	4
  4945     0D55  00F3               	movwf	strncmp@len
  4946     0D56  3000               	movlw	0
  4947     0D57  00F4               	movwf	strncmp@len+1
  4948     0D58  3057               	movlw	(low (login@spassword| 0))& (0+255)
  4949     0D59  160A  118A  248B  120A  158A  	fcall	_strncmp
  4950     0D5E  0872               	movf	?_strncmp,w
  4951     0D5F  0473               	iorwf	?_strncmp+1,w
  4952     0D60  1D03               	btfss	3,2
  4953     0D61  2D63               	goto	u4201
  4954     0D62  2D64               	goto	u4200
  4955     0D63                     u4201:
  4956     0D63  2D66               	goto	l4948
  4957     0D64                     u4200:
  4958     0D64                     l4942:
  4959                           
  4960                           ;car_black_box.c: 219:         {;car_black_box.c: 220:             return 0x0B;
  4961     0D64  300B               	movlw	11
  4962     0D65  2E5A               	goto	l321
  4963     0D66                     l4948:
  4964                           
  4965                           ;car_black_box.c: 223:         {;car_black_box.c: 224:             attempts_rem--;
  4966     0D66  3001               	movlw	1
  4967     0D67  1283               	bcf	3,5	;RP0=0, select bank0
  4968     0D68  1303               	bcf	3,6	;RP1=0, select bank0
  4969     0D69  02EC               	subwf	login@attempts_rem,f
  4970                           
  4971                           ;car_black_box.c: 226:             if (attempts_rem == 0)
  4972     0D6A  086C               	movf	login@attempts_rem,w
  4973     0D6B  1D03               	btfss	3,2
  4974     0D6C  2D6E               	goto	u4211
  4975     0D6D  2D6F               	goto	u4210
  4976     0D6E                     u4211:
  4977     0D6E  2DFA               	goto	l4966
  4978     0D6F                     u4210:
  4979     0D6F                     l4950:
  4980                           
  4981                           ;car_black_box.c: 227:             {;car_black_box.c: 228:                 sec = 900;
  4982     0D6F  3084               	movlw	132
  4983     0D70  00B5               	movwf	_sec
  4984     0D71  3003               	movlw	3
  4985     0D72  00B6               	movwf	_sec+1
  4986     0D73                     l4952:
  4987                           
  4988                           ;car_black_box.c: 230:                 clear_screen();
  4989     0D73  160A  118A  2141  120A  158A  	fcall	_clear_screen
  4990     0D78                     l4954:
  4991                           
  4992                           ;car_black_box.c: 231:                 clcd_write(0x0C, 0);
  4993     0D78  01F2               	clrf	clcd_write@mode
  4994     0D79  300C               	movlw	12
  4995     0D7A  160A  118A  21EB  120A  158A  	fcall	_clcd_write
  4996                           
  4997                           ;car_black_box.c: 232:                 _delay((unsigned long)((100)*(20000000/4000000.0)
      +                          ));
  4998     0D7F  30A5               	movlw	165
  4999     0D80  1283               	bcf	3,5	;RP0=0, select bank0
  5000     0D81  1303               	bcf	3,6	;RP1=0, select bank0
  5001     0D82  00D2               	movwf	??_login
  5002     0D83                     u4947:
  5003     0D83  0BD2               	decfsz	??_login,f
  5004     0D84  2D83               	goto	u4947
  5005     0D85  2D86               	nop2
  5006     0D86                     l4956:
  5007                           
  5008                           ;car_black_box.c: 233:                 clcd_print("You Are  Blocked", (0x80 + 0));
  5009     0D86  309D               	movlw	low (STR_23| (0+32768))
  5010     0D87  00F6               	movwf	clcd_print@str
  5011     0D88  3087               	movlw	high (STR_23| (0+32768))
  5012     0D89  00F7               	movwf	clcd_print@str+1
  5013     0D8A  3080               	movlw	128
  5014     0D8B  00F8               	movwf	clcd_print@addr
  5015     0D8C  160A  118A  231D  120A  158A  	fcall	_clcd_print
  5016     0D91                     l4958:
  5017                           
  5018                           ;car_black_box.c: 234:                 clcd_print("Wait for...15min", (0xC0 + 0));
  5019     0D91  30D0               	movlw	low (STR_24| (0+32768))
  5020     0D92  00F6               	movwf	clcd_print@str
  5021     0D93  3087               	movlw	high (STR_24| (0+32768))
  5022     0D94  00F7               	movwf	clcd_print@str+1
  5023     0D95  30C0               	movlw	192
  5024     0D96  00F8               	movwf	clcd_print@addr
  5025     0D97  160A  118A  231D  120A  158A  	fcall	_clcd_print
  5026                           
  5027                           ;car_black_box.c: 236:                 while (sec)
  5028     0D9C  2DEF               	goto	l4962
  5029     0D9D                     l4960:
  5030                           
  5031                           ;car_black_box.c: 237:                 {;car_black_box.c: 239:                     clcd_
      +                          putch(((sec / 60) / 10) + '0', (0xC0 + 11));
  5032     0D9D  303C               	movlw	60
  5033     0D9E  00F6               	movwf	___lwdiv@divisor
  5034     0D9F  3000               	movlw	0
  5035     0DA0  00F7               	movwf	___lwdiv@divisor+1
  5036     0DA1  0836               	movf	_sec+1,w
  5037     0DA2  00F9               	movwf	___lwdiv@dividend+1
  5038     0DA3  0835               	movf	_sec,w
  5039     0DA4  00F8               	movwf	___lwdiv@dividend
  5040     0DA5  160A  118A  2508  120A  158A  	fcall	___lwdiv
  5041     0DAA  0877               	movf	?___lwdiv+1,w
  5042     0DAB  1283               	bcf	3,5	;RP0=0, select bank0
  5043     0DAC  1303               	bcf	3,6	;RP1=0, select bank0
  5044     0DAD  00D6               	movwf	_login$1103+1
  5045     0DAE  0876               	movf	?___lwdiv,w
  5046     0DAF  00D5               	movwf	_login$1103
  5047                           
  5048                           ;car_black_box.c: 237:                 {;car_black_box.c: 239:                     clcd_
      +                          putch(((sec / 60) / 10) + '0', (0xC0 + 11));
  5049     0DB0  30CB               	movlw	203
  5050     0DB1  00CF               	movwf	clcd_putch@addr
  5051     0DB2  300A               	movlw	10
  5052     0DB3  00F6               	movwf	___lwdiv@divisor
  5053     0DB4  3000               	movlw	0
  5054     0DB5  00F7               	movwf	___lwdiv@divisor+1
  5055     0DB6  0856               	movf	_login$1103+1,w
  5056     0DB7  00F9               	movwf	___lwdiv@dividend+1
  5057     0DB8  0855               	movf	_login$1103,w
  5058     0DB9  00F8               	movwf	___lwdiv@dividend
  5059     0DBA  160A  118A  2508  120A  158A  	fcall	___lwdiv
  5060     0DBF  0876               	movf	?___lwdiv,w
  5061     0DC0  3E30               	addlw	48
  5062     0DC1  160A  118A  218A  120A  158A  	fcall	_clcd_putch
  5063                           
  5064                           ;car_black_box.c: 240:                     clcd_putch(((sec / 60) % 10) + '0', (0xC0 + 1
      +                          2));
  5065     0DC6  30CC               	movlw	204
  5066     0DC7  1283               	bcf	3,5	;RP0=0, select bank0
  5067     0DC8  1303               	bcf	3,6	;RP1=0, select bank0
  5068     0DC9  00CF               	movwf	clcd_putch@addr
  5069     0DCA  300A               	movlw	10
  5070     0DCB  00C9               	movwf	___lwmod@divisor
  5071     0DCC  3000               	movlw	0
  5072     0DCD  00CA               	movwf	___lwmod@divisor+1
  5073     0DCE  303C               	movlw	60
  5074     0DCF  00F6               	movwf	___lwdiv@divisor
  5075     0DD0  3000               	movlw	0
  5076     0DD1  00F7               	movwf	___lwdiv@divisor+1
  5077     0DD2  0836               	movf	_sec+1,w
  5078     0DD3  00F9               	movwf	___lwdiv@dividend+1
  5079     0DD4  0835               	movf	_sec,w
  5080     0DD5  00F8               	movwf	___lwdiv@dividend
  5081     0DD6  160A  118A  2508  120A  158A  	fcall	___lwdiv
  5082     0DDB  0877               	movf	?___lwdiv+1,w
  5083     0DDC  1283               	bcf	3,5	;RP0=0, select bank0
  5084     0DDD  1303               	bcf	3,6	;RP1=0, select bank0
  5085     0DDE  00CC               	movwf	___lwmod@dividend+1
  5086     0DDF  0876               	movf	?___lwdiv,w
  5087     0DE0  00CB               	movwf	___lwmod@dividend
  5088     0DE1  160A  118A  244F  120A  158A  	fcall	___lwmod
  5089     0DE6  1283               	bcf	3,5	;RP0=0, select bank0
  5090     0DE7  1303               	bcf	3,6	;RP1=0, select bank0
  5091     0DE8  0849               	movf	?___lwmod,w
  5092     0DE9  3E30               	addlw	48
  5093     0DEA  160A  118A  218A  120A  158A  	fcall	_clcd_putch
  5094     0DEF                     l4962:
  5095                           
  5096                           ;car_black_box.c: 236:                 while (sec)
  5097     0DEF  1283               	bcf	3,5	;RP0=0, select bank0
  5098     0DF0  1303               	bcf	3,6	;RP1=0, select bank0
  5099     0DF1  0835               	movf	_sec,w
  5100     0DF2  0436               	iorwf	_sec+1,w
  5101     0DF3  1D03               	btfss	3,2
  5102     0DF4  2DF6               	goto	u4221
  5103     0DF5  2DF7               	goto	u4220
  5104     0DF6                     u4221:
  5105     0DF6  2D9D               	goto	l4960
  5106     0DF7                     u4220:
  5107     0DF7                     l4964:
  5108                           
  5109                           ;car_black_box.c: 242:                 attempts_rem = 3;
  5110     0DF7  3003               	movlw	3
  5111     0DF8  00EC               	movwf	login@attempts_rem
  5112                           
  5113                           ;car_black_box.c: 243:             }
  5114     0DF9  2E2F               	goto	l4974
  5115     0DFA                     l4966:
  5116                           
  5117                           ;car_black_box.c: 245:             {;car_black_box.c: 247:                 clear_screen(
      +                          );
  5118     0DFA  160A  118A  2141  120A  158A  	fcall	_clear_screen
  5119     0DFF                     l4968:
  5120                           
  5121                           ;car_black_box.c: 248:                 clcd_print(" Wrong Password ", (0x80 + 0));
  5122     0DFF  306A               	movlw	low (STR_25| (0+32768))
  5123     0E00  00F6               	movwf	clcd_print@str
  5124     0E01  3087               	movlw	high (STR_25| (0+32768))
  5125     0E02  00F7               	movwf	clcd_print@str+1
  5126     0E03  3080               	movlw	128
  5127     0E04  00F8               	movwf	clcd_print@addr
  5128     0E05  160A  118A  231D  120A  158A  	fcall	_clcd_print
  5129     0E0A                     l4970:
  5130                           
  5131                           ;car_black_box.c: 249:                 clcd_putch(attempts_rem + '0', (0xC0 + 0));
  5132     0E0A  30C0               	movlw	192
  5133     0E0B  1283               	bcf	3,5	;RP0=0, select bank0
  5134     0E0C  1303               	bcf	3,6	;RP1=0, select bank0
  5135     0E0D  00CF               	movwf	clcd_putch@addr
  5136     0E0E  086C               	movf	login@attempts_rem,w
  5137     0E0F  3E30               	addlw	48
  5138     0E10  160A  118A  218A  120A  158A  	fcall	_clcd_putch
  5139                           
  5140                           ;car_black_box.c: 250:                 clcd_print(" Attempt Remain", (0xC0 + 1));
  5141     0E15  3035               	movlw	low (STR_26| (0+32768))
  5142     0E16  00F6               	movwf	clcd_print@str
  5143     0E17  3088               	movlw	high (STR_26| (0+32768))
  5144     0E18  00F7               	movwf	clcd_print@str+1
  5145     0E19  30C1               	movlw	193
  5146     0E1A  00F8               	movwf	clcd_print@addr
  5147     0E1B  160A  118A  231D  120A  158A  	fcall	_clcd_print
  5148     0E20                     l4972:
  5149                           
  5150                           ;car_black_box.c: 251:                 _delay((unsigned long)((4000)*(20000000/4000.0)))
      +                          ;
  5151     0E20  3066               	movlw	102
  5152     0E21  1283               	bcf	3,5	;RP0=0, select bank0
  5153     0E22  1303               	bcf	3,6	;RP1=0, select bank0
  5154     0E23  00D4               	movwf	??_login+2
  5155     0E24  3076               	movlw	118
  5156     0E25  00D3               	movwf	??_login+1
  5157     0E26  30C0               	movlw	192
  5158     0E27  00D2               	movwf	??_login
  5159     0E28                     u4957:
  5160     0E28  0BD2               	decfsz	??_login,f
  5161     0E29  2E28               	goto	u4957
  5162     0E2A  0BD3               	decfsz	??_login+1,f
  5163     0E2B  2E28               	goto	u4957
  5164     0E2C  0BD4               	decfsz	??_login+2,f
  5165     0E2D  2E28               	goto	u4957
  5166     0E2E  0000               	nop
  5167     0E2F                     l4974:
  5168                           
  5169                           ;car_black_box.c: 255:             clear_screen();
  5170     0E2F  160A  118A  2141  120A  158A  	fcall	_clear_screen
  5171     0E34                     l4976:
  5172                           
  5173                           ;car_black_box.c: 256:             clcd_print(" Enter Password ", (0x80 + 0));
  5174     0E34  3014               	movlw	low (STR_9| (0+32768))
  5175     0E35  00F6               	movwf	clcd_print@str
  5176     0E36  3088               	movlw	high (STR_9| (0+32768))
  5177     0E37  00F7               	movwf	clcd_print@str+1
  5178     0E38  3080               	movlw	128
  5179     0E39  00F8               	movwf	clcd_print@addr
  5180     0E3A  160A  118A  231D  120A  158A  	fcall	_clcd_print
  5181     0E3F                     l4978:
  5182                           
  5183                           ;car_black_box.c: 257:             i = 0;
  5184     0E3F  1283               	bcf	3,5	;RP0=0, select bank0
  5185     0E40  1303               	bcf	3,6	;RP1=0, select bank0
  5186     0E41  01BD               	clrf	login@i
  5187     0E42                     l4980:
  5188                           
  5189                           ;car_black_box.c: 258:             return_time = 5;
  5190     0E42  3005               	movlw	5
  5191     0E43  00ED               	movwf	_return_time
  5192     0E44                     l4982:
  5193                           
  5194                           ;car_black_box.c: 259:             clcd_write(0xC6, 0);
  5195     0E44  01F2               	clrf	clcd_write@mode
  5196     0E45  30C6               	movlw	198
  5197     0E46  160A  118A  21EB  120A  158A  	fcall	_clcd_write
  5198     0E4B                     l4984:
  5199                           
  5200                           ;car_black_box.c: 260:             clcd_write(0x0F, 0);
  5201     0E4B  01F2               	clrf	clcd_write@mode
  5202     0E4C  300F               	movlw	15
  5203     0E4D  160A  118A  21EB  120A  158A  	fcall	_clcd_write
  5204     0E52                     l4986:
  5205                           
  5206                           ;car_black_box.c: 261:             _delay((unsigned long)((100)*(20000000/4000000.0)));
  5207     0E52  30A5               	movlw	165
  5208     0E53  1283               	bcf	3,5	;RP0=0, select bank0
  5209     0E54  1303               	bcf	3,6	;RP1=0, select bank0
  5210     0E55  00D2               	movwf	??_login
  5211     0E56                     u4967:
  5212     0E56  0BD2               	decfsz	??_login,f
  5213     0E57  2E56               	goto	u4967
  5214     0E58  2E59               	nop2
  5215     0E59                     l4988:
  5216                           
  5217                           ;car_black_box.c: 265:     return 0xFF;
  5218     0E59  30FF               	movlw	255
  5219     0E5A                     l321:
  5220     0E5A  0008               	return
  5221     0E5B                     __end_of_login:
  5222                           
  5223                           	psect	text7
  5224     1141                     __ptext7:	
  5225 ;; *************** function _clear_screen *****************
  5226 ;; Defined at:
  5227 ;;		line 142 in file "car_black_box.c"
  5228 ;; Parameters:    Size  Location     Type
  5229 ;;		None
  5230 ;; Auto vars:     Size  Location     Type
  5231 ;;		None
  5232 ;; Return value:  Size  Location     Type
  5233 ;;                  1    wreg      void 
  5234 ;; Registers used:
  5235 ;;		wreg, status,2, status,0, pclath, cstack
  5236 ;; Tracked objects:
  5237 ;;		On entry : 0/0
  5238 ;;		On exit  : 0/0
  5239 ;;		Unchanged: 0/0
  5240 ;; Data sizes:     COMMON   BANK0   BANK1   BANK3   BANK2
  5241 ;;      Params:         0       0       0       0       0
  5242 ;;      Locals:         0       0       0       0       0
  5243 ;;      Temps:          2       0       0       0       0
  5244 ;;      Totals:         2       0       0       0       0
  5245 ;;Total ram usage:        2 bytes
  5246 ;; Hardware stack levels used: 1
  5247 ;; Hardware stack levels required when called: 2
  5248 ;; This function calls:
  5249 ;;		_clcd_write
  5250 ;; This function is called by:
  5251 ;;		_main
  5252 ;;		_login
  5253 ;;		_login_menu
  5254 ;; This function uses a non-reentrant model
  5255 ;;
  5256                           
  5257     1141                     _clear_screen:	
  5258                           ;psect for function _clear_screen
  5259                           
  5260     1141                     l4480:	
  5261                           ;incstack = 0
  5262                           ; Regs used in _clear_screen: [wreg+status,2+status,0+pclath+cstack]
  5263                           
  5264                           
  5265                           ;car_black_box.c: 145:     clcd_write(0x01, 0);
  5266     1141  01F2               	clrf	clcd_write@mode
  5267     1142  3001               	movlw	1
  5268     1143  160A  118A  21EB  160A  118A  	fcall	_clcd_write
  5269     1148                     l4482:
  5270                           
  5271                           ;car_black_box.c: 146:     _delay((unsigned long)((500)*(20000000/4000000.0)));
  5272     1148  3004               	movlw	4
  5273     1149  00F7               	movwf	??_clear_screen+1
  5274     114A  303D               	movlw	61
  5275     114B  00F6               	movwf	??_clear_screen
  5276     114C                     u4977:
  5277     114C  0BF6               	decfsz	??_clear_screen,f
  5278     114D  294C               	goto	u4977
  5279     114E  0BF7               	decfsz	??_clear_screen+1,f
  5280     114F  294C               	goto	u4977
  5281     1150  2951               	nop2
  5282     1151                     l310:
  5283     1151  0008               	return
  5284     1152                     __end_of_clear_screen:
  5285                           
  5286                           	psect	text8
  5287     16E7                     __ptext8:	
  5288 ;; *************** function _log_car_event *****************
  5289 ;; Defined at:
  5290 ;;		line 123 in file "car_black_box.c"
  5291 ;; Parameters:    Size  Location     Type
  5292 ;;  event           2    4[BANK0 ] PTR unsigned char 
  5293 ;;		 -> STR_16(3), STR_15(3), STR_14(3), STR_11(3), 
  5294 ;;		 -> main@event(3), 
  5295 ;;  speed           1    6[BANK0 ] unsigned char 
  5296 ;; Auto vars:     Size  Location     Type
  5297 ;;		None
  5298 ;; Return value:  Size  Location     Type
  5299 ;;                  1    wreg      void 
  5300 ;; Registers used:
  5301 ;;		wreg, fsr0l, fsr0h, status,2, status,0, btemp+1, pclath, cstack
  5302 ;; Tracked objects:
  5303 ;;		On entry : 0/0
  5304 ;;		On exit  : 0/0
  5305 ;;		Unchanged: 0/0
  5306 ;; Data sizes:     COMMON   BANK0   BANK1   BANK3   BANK2
  5307 ;;      Params:         0       3       0       0       0
  5308 ;;      Locals:         0       0       0       0       0
  5309 ;;      Temps:          0       2       0       0       0
  5310 ;;      Totals:         0       5       0       0       0
  5311 ;;Total ram usage:        5 bytes
  5312 ;; Hardware stack levels used: 1
  5313 ;; Hardware stack levels required when called: 6
  5314 ;; This function calls:
  5315 ;;		___awdiv
  5316 ;;		___awmod
  5317 ;;		_get_time
  5318 ;;		_log_event
  5319 ;;		_strncpy
  5320 ;; This function is called by:
  5321 ;;		_main
  5322 ;; This function uses a non-reentrant model
  5323 ;;
  5324                           
  5325     16E7                     _log_car_event:	
  5326                           ;psect for function _log_car_event
  5327                           
  5328     16E7                     l4728:	
  5329                           ;incstack = 0
  5330                           ; Regs used in _log_car_event: [wreg-fsr0h+status,2+status,0+btemp+1+pclath+cstack]
  5331                           
  5332                           
  5333                           ;car_black_box.c: 123: void log_car_event(char event[], unsigned char speed);car_black_b
      +                          ox.c: 124: {;car_black_box.c: 126:     get_time();
  5334     16E7  160A  118A  2596  160A  118A  	fcall	_get_time
  5335     16EC                     l4730:
  5336                           
  5337                           ;car_black_box.c: 128:     strncpy(log, time, 6);
  5338     16EC  303E               	movlw	(low (_time| 0))& (0+255)
  5339     16ED  00F2               	movwf	strncpy@from
  5340     16EE  3000               	movlw	0
  5341     16EF  00F3               	movwf	strncpy@from+1
  5342     16F0  3006               	movlw	6
  5343     16F1  00F4               	movwf	strncpy@size
  5344     16F2  3000               	movlw	0
  5345     16F3  00F5               	movwf	strncpy@size+1
  5346     16F4  30B9               	movlw	(low (_log| 0))& (0+255)
  5347     16F5  160A  118A  254E  160A  118A  	fcall	_strncpy
  5348     16FA                     l4732:
  5349                           
  5350                           ;car_black_box.c: 129:     strncpy(&log[6], event, 2);
  5351     16FA  1283               	bcf	3,5	;RP0=0, select bank0
  5352     16FB  1303               	bcf	3,6	;RP1=0, select bank0
  5353     16FC  0849               	movf	log_car_event@event,w
  5354     16FD  00F2               	movwf	strncpy@from
  5355     16FE  084A               	movf	log_car_event@event+1,w
  5356     16FF  00F3               	movwf	strncpy@from+1
  5357     1700  3002               	movlw	2
  5358     1701  00F4               	movwf	strncpy@size
  5359     1702  3000               	movlw	0
  5360     1703  00F5               	movwf	strncpy@size+1
  5361     1704  30BF               	movlw	(low ((_log| 0+6)))& (0+255)
  5362     1705  160A  118A  254E  160A  118A  	fcall	_strncpy
  5363                           
  5364                           ;car_black_box.c: 131:     log[8] = (speed / 10) + '0';
  5365     170A  300A               	movlw	10
  5366     170B  00F2               	movwf	___awdiv@divisor
  5367     170C  3000               	movlw	0
  5368     170D  00F3               	movwf	___awdiv@divisor+1
  5369     170E  1283               	bcf	3,5	;RP0=0, select bank0
  5370     170F  1303               	bcf	3,6	;RP1=0, select bank0
  5371     1710  084B               	movf	log_car_event@speed,w
  5372     1711  00CC               	movwf	??_log_car_event
  5373     1712  01CD               	clrf	??_log_car_event+1
  5374     1713  084C               	movf	??_log_car_event,w
  5375     1714  00F4               	movwf	___awdiv@dividend
  5376     1715  084D               	movf	??_log_car_event+1,w
  5377     1716  00F5               	movwf	___awdiv@dividend+1
  5378     1717  120A  118A  2690  160A  118A  	fcall	___awdiv
  5379     171C  0872               	movf	?___awdiv,w
  5380     171D  3E30               	addlw	48
  5381     171E  1683               	bsf	3,5	;RP0=1, select bank1
  5382     171F  1303               	bcf	3,6	;RP1=0, select bank1
  5383     1720  00C1               	movwf	(_log^(0+128)+8)
  5384                           
  5385                           ;car_black_box.c: 132:     log[9] = (speed % 10) + '0';
  5386     1721  300A               	movlw	10
  5387     1722  00F2               	movwf	___awmod@divisor
  5388     1723  3000               	movlw	0
  5389     1724  00F3               	movwf	___awmod@divisor+1
  5390     1725  1283               	bcf	3,5	;RP0=0, select bank0
  5391     1726  1303               	bcf	3,6	;RP1=0, select bank0
  5392     1727  084B               	movf	log_car_event@speed,w
  5393     1728  00CC               	movwf	??_log_car_event
  5394     1729  01CD               	clrf	??_log_car_event+1
  5395     172A  084C               	movf	??_log_car_event,w
  5396     172B  00F4               	movwf	___awmod@dividend
  5397     172C  084D               	movf	??_log_car_event+1,w
  5398     172D  00F5               	movwf	___awmod@dividend+1
  5399     172E  160A  118A  273F  160A  118A  	fcall	___awmod
  5400     1733  0872               	movf	?___awmod,w
  5401     1734  3E30               	addlw	48
  5402     1735  1683               	bsf	3,5	;RP0=1, select bank1
  5403     1736  1303               	bcf	3,6	;RP1=0, select bank1
  5404     1737  00C2               	movwf	(_log^(0+128)+9)
  5405     1738                     l4734:
  5406                           
  5407                           ;car_black_box.c: 133:     log[10] = '\0';
  5408     1738  01C3               	clrf	(_log^(0+128)+10)
  5409     1739                     l4736:
  5410                           
  5411                           ;car_black_box.c: 135:     log_event();
  5412     1739  160A  118A  24C9  160A  118A  	fcall	_log_event
  5413     173E                     l307:
  5414     173E  0008               	return
  5415     173F                     __end_of_log_car_event:
  5416                           
  5417                           	psect	text9
  5418     14C9                     __ptext9:	
  5419 ;; *************** function _log_event *****************
  5420 ;; Defined at:
  5421 ;;		line 100 in file "car_black_box.c"
  5422 ;; Parameters:    Size  Location     Type
  5423 ;;		None
  5424 ;; Auto vars:     Size  Location     Type
  5425 ;;  addr            1    1[BANK0 ] unsigned char 
  5426 ;; Return value:  Size  Location     Type
  5427 ;;                  1    wreg      void 
  5428 ;; Registers used:
  5429 ;;		wreg, fsr0l, fsr0h, status,2, status,0, btemp+1, pclath, cstack
  5430 ;; Tracked objects:
  5431 ;;		On entry : 0/0
  5432 ;;		On exit  : 0/0
  5433 ;;		Unchanged: 0/0
  5434 ;; Data sizes:     COMMON   BANK0   BANK1   BANK3   BANK2
  5435 ;;      Params:         0       0       0       0       0
  5436 ;;      Locals:         0       1       0       0       0
  5437 ;;      Temps:          0       0       0       0       0
  5438 ;;      Totals:         0       1       0       0       0
  5439 ;;Total ram usage:        1 bytes
  5440 ;; Hardware stack levels used: 1
  5441 ;; Hardware stack levels required when called: 5
  5442 ;; This function calls:
  5443 ;;		___bmul
  5444 ;;		_eeprom_at24c04_str_write
  5445 ;; This function is called by:
  5446 ;;		_log_car_event
  5447 ;; This function uses a non-reentrant model
  5448 ;;
  5449                           
  5450     14C9                     _log_event:	
  5451                           ;psect for function _log_event
  5452                           
  5453     14C9                     l4486:	
  5454                           ;incstack = 0
  5455                           ; Regs used in _log_event: [wreg-fsr0h+status,2+status,0+btemp+1+pclath+cstack]
  5456                           
  5457                           
  5458                           ;car_black_box.c: 103:     pos++;
  5459     14C9  3001               	movlw	1
  5460     14CA  1283               	bcf	3,5	;RP0=0, select bank0
  5461     14CB  1303               	bcf	3,6	;RP1=0, select bank0
  5462     14CC  07EA               	addwf	_pos,f
  5463     14CD  1803               	skipnc
  5464     14CE  0AEB               	incf	_pos+1,f
  5465     14CF  3000               	movlw	0
  5466     14D0  07EB               	addwf	_pos+1,f
  5467     14D1                     l4488:
  5468                           
  5469                           ;car_black_box.c: 104:     if (pos == 10)
  5470     14D1  300A               	movlw	10
  5471     14D2  066A               	xorwf	_pos,w
  5472     14D3  046B               	iorwf	_pos+1,w
  5473     14D4  1D03               	btfss	3,2
  5474     14D5  2CD7               	goto	u3491
  5475     14D6  2CD8               	goto	u3490
  5476     14D7                     u3491:
  5477     14D7  2CDA               	goto	l4492
  5478     14D8                     u3490:
  5479     14D8                     l4490:
  5480                           
  5481                           ;car_black_box.c: 105:     {;car_black_box.c: 106:         pos = 0;
  5482     14D8  01EA               	clrf	_pos
  5483     14D9  01EB               	clrf	_pos+1
  5484     14DA                     l4492:
  5485                           
  5486                           ;car_black_box.c: 108:     addr = pos * 10 + 5;
  5487     14DA  300A               	movlw	10
  5488     14DB  00F2               	movwf	___bmul@multiplicand
  5489     14DC  086A               	movf	_pos,w
  5490     14DD  160A  118A  219F  160A  118A  	fcall	___bmul
  5491     14E2  3E05               	addlw	5
  5492     14E3  1283               	bcf	3,5	;RP0=0, select bank0
  5493     14E4  1303               	bcf	3,6	;RP1=0, select bank0
  5494     14E5  00C6               	movwf	log_event@addr
  5495     14E6                     l4494:
  5496                           
  5497                           ;car_black_box.c: 111:     eeprom_at24c04_str_write(addr, log);
  5498     14E6  30B9               	movlw	(low (_log| 0))& (0+255)
  5499     14E7  00F7               	movwf	eeprom_at24c04_str_write@data
  5500     14E8  3000               	movlw	0
  5501     14E9  00F8               	movwf	eeprom_at24c04_str_write@data+1
  5502     14EA  0846               	movf	log_event@addr,w
  5503     14EB  160A  118A  234C  160A  118A  	fcall	_eeprom_at24c04_str_write
  5504     14F0                     l4496:
  5505                           
  5506                           ;car_black_box.c: 113:     if (event_count < 9)
  5507     14F0  1283               	bcf	3,5	;RP0=0, select bank0
  5508     14F1  1303               	bcf	3,6	;RP1=0, select bank0
  5509     14F2  0869               	movf	_event_count+1,w
  5510     14F3  3A80               	xorlw	128
  5511     14F4  00FF               	movwf	btemp+1
  5512     14F5  3080               	movlw	128
  5513     14F6  027F               	subwf	btemp+1,w
  5514     14F7  1D03               	skipz
  5515     14F8  2CFB               	goto	u3505
  5516     14F9  3009               	movlw	9
  5517     14FA  0268               	subwf	_event_count,w
  5518     14FB                     u3505:
  5519     14FB  1803               	skipnc
  5520     14FC  2CFE               	goto	u3501
  5521     14FD  2CFF               	goto	u3500
  5522     14FE                     u3501:
  5523     14FE  2D07               	goto	l304
  5524     14FF                     u3500:
  5525     14FF                     l4498:
  5526                           
  5527                           ;car_black_box.c: 114:     {;car_black_box.c: 115:         event_count++;
  5528     14FF  3001               	movlw	1
  5529     1500  1283               	bcf	3,5	;RP0=0, select bank0
  5530     1501  1303               	bcf	3,6	;RP1=0, select bank0
  5531     1502  07E8               	addwf	_event_count,f
  5532     1503  1803               	skipnc
  5533     1504  0AE9               	incf	_event_count+1,f
  5534     1505  3000               	movlw	0
  5535     1506  07E9               	addwf	_event_count+1,f
  5536     1507                     l304:
  5537     1507  0008               	return
  5538     1508                     __end_of_log_event:
  5539                           
  5540                           	psect	text10
  5541     1415                     __ptext10:	
  5542 ;; *************** function _init_config *****************
  5543 ;; Defined at:
  5544 ;;		line 36 in file "main.c"
  5545 ;; Parameters:    Size  Location     Type
  5546 ;;		None
  5547 ;; Auto vars:     Size  Location     Type
  5548 ;;		None
  5549 ;; Return value:  Size  Location     Type
  5550 ;;                  1    wreg      void 
  5551 ;; Registers used:
  5552 ;;		wreg, status,2, status,0, pclath, cstack
  5553 ;; Tracked objects:
  5554 ;;		On entry : 0/0
  5555 ;;		On exit  : 0/0
  5556 ;;		Unchanged: 0/0
  5557 ;; Data sizes:     COMMON   BANK0   BANK1   BANK3   BANK2
  5558 ;;      Params:         0       0       0       0       0
  5559 ;;      Locals:         0       0       0       0       0
  5560 ;;      Temps:          0       0       0       0       0
  5561 ;;      Totals:         0       0       0       0       0
  5562 ;;Total ram usage:        0 bytes
  5563 ;; Hardware stack levels used: 1
  5564 ;; Hardware stack levels required when called: 6
  5565 ;; This function calls:
  5566 ;;		_init_adc
  5567 ;;		_init_clcd
  5568 ;;		_init_digital_keypad
  5569 ;;		_init_ds1307
  5570 ;;		_init_i2c
  5571 ;;		_init_timer2
  5572 ;;		_init_uart
  5573 ;; This function is called by:
  5574 ;;		_main
  5575 ;; This function uses a non-reentrant model
  5576 ;;
  5577                           
  5578     1415                     _init_config:	
  5579                           ;psect for function _init_config
  5580                           
  5581     1415                     l4710:	
  5582                           ;incstack = 0
  5583                           ; Regs used in _init_config: [wreg+status,2+status,0+pclath+cstack]
  5584                           
  5585                           
  5586                           ;main.c: 38:     log_car_event(event, speed);
  5587     1415  160A  118A  211C  160A  118A  	fcall	_init_clcd
  5588     141A                     l4712:
  5589                           
  5590                           ;main.c: 39: 
  5591     141A  120A  118A  26F9  160A  118A  	fcall	_init_adc
  5592     141F                     l4714:
  5593                           
  5594                           ;main.c: 40:     while (1)
  5595     141F  3000               	movlw	0
  5596     1420  1283               	bcf	3,5	;RP0=0, select bank0
  5597     1421  1303               	bcf	3,6	;RP1=0, select bank0
  5598     1422  00CE               	movwf	init_i2c@baud+3
  5599     1423  3001               	movlw	1
  5600     1424  00CD               	movwf	init_i2c@baud+2
  5601     1425  3086               	movlw	134
  5602     1426  00CC               	movwf	init_i2c@baud+1
  5603     1427  30A0               	movlw	160
  5604     1428  00CB               	movwf	init_i2c@baud
  5605     1429  160A  118A  23AB  160A  118A  	fcall	_init_i2c
  5606     142E                     l4716:
  5607                           
  5608                           ;main.c: 41:     {
  5609     142E  160A  118A  2164  160A  118A  	fcall	_init_ds1307
  5610     1433                     l4718:
  5611                           
  5612                           ;main.c: 42:         speed = read_adc() / 10;
  5613     1433  160A  118A  20D5  160A  118A  	fcall	_init_digital_keypad
  5614     1438                     l4720:
  5615                           
  5616                           ;main.c: 43: 
  5617     1438  160A  118A  2134  160A  118A  	fcall	_init_timer2
  5618     143D                     l4722:
  5619                           
  5620                           ;main.c: 44: 
  5621     143D  3000               	movlw	0
  5622     143E  1283               	bcf	3,5	;RP0=0, select bank0
  5623     143F  1303               	bcf	3,6	;RP1=0, select bank0
  5624     1440  00CE               	movwf	init_uart@baud+3
  5625     1441  3000               	movlw	0
  5626     1442  00CD               	movwf	init_uart@baud+2
  5627     1443  3025               	movlw	37
  5628     1444  00CC               	movwf	init_uart@baud+1
  5629     1445  3080               	movlw	128
  5630     1446  00CB               	movwf	init_uart@baud
  5631     1447  160A  118A  237B  160A  118A  	fcall	_init_uart
  5632     144C                     l4724:
  5633                           
  5634                           ;main.c: 46:         {
  5635     144C  170B               	bsf	11,6	;volatile
  5636     144D                     l4726:
  5637                           
  5638                           ;main.c: 47:             speed = 99;
  5639     144D  178B               	bsf	11,7	;volatile
  5640     144E                     l187:
  5641     144E  0008               	return
  5642     144F                     __end_of_init_config:
  5643                           
  5644                           	psect	text11
  5645     137B                     __ptext11:	
  5646 ;; *************** function _init_uart *****************
  5647 ;; Defined at:
  5648 ;;		line 4 in file "uart.c"
  5649 ;; Parameters:    Size  Location     Type
  5650 ;;  baud            4    6[BANK0 ] unsigned long 
  5651 ;; Auto vars:     Size  Location     Type
  5652 ;;		None
  5653 ;; Return value:  Size  Location     Type
  5654 ;;                  1    wreg      void 
  5655 ;; Registers used:
  5656 ;;		wreg, status,2, status,0, pclath, cstack
  5657 ;; Tracked objects:
  5658 ;;		On entry : 0/0
  5659 ;;		On exit  : 0/0
  5660 ;;		Unchanged: 0/0
  5661 ;; Data sizes:     COMMON   BANK0   BANK1   BANK3   BANK2
  5662 ;;      Params:         0       4       0       0       0
  5663 ;;      Locals:         0       0       0       0       0
  5664 ;;      Temps:          0       4       0       0       0
  5665 ;;      Totals:         0       8       0       0       0
  5666 ;;Total ram usage:        8 bytes
  5667 ;; Hardware stack levels used: 1
  5668 ;; Hardware stack levels required when called: 2
  5669 ;; This function calls:
  5670 ;;		___lldiv
  5671 ;; This function is called by:
  5672 ;;		_init_config
  5673 ;; This function uses a non-reentrant model
  5674 ;;
  5675                           
  5676     137B                     _init_uart:	
  5677                           ;psect for function _init_uart
  5678                           
  5679     137B                     l4476:	
  5680                           ;incstack = 0
  5681                           ; Regs used in _init_uart: [wreg+status,2+status,0+pclath+cstack]
  5682                           
  5683                           
  5684                           ;uart.c: 4: void init_uart(unsigned long baud);uart.c: 5: {;uart.c: 7:     SPEN = 1;
  5685     137B  1283               	bcf	3,5	;RP0=0, select bank0
  5686     137C  1303               	bcf	3,6	;RP1=0, select bank0
  5687     137D  1798               	bsf	24,7	;volatile
  5688                           
  5689                           ;uart.c: 10:     CREN = 1;
  5690     137E  1618               	bsf	24,4	;volatile
  5691     137F                     l4478:
  5692                           
  5693                           ;uart.c: 13:     SPBRG = (20000000 / (16 * baud)) - 1;
  5694     137F  084B               	movf	init_uart@baud,w
  5695     1380  00CF               	movwf	??_init_uart
  5696     1381  084C               	movf	init_uart@baud+1,w
  5697     1382  00D0               	movwf	??_init_uart+1
  5698     1383  084D               	movf	init_uart@baud+2,w
  5699     1384  00D1               	movwf	??_init_uart+2
  5700     1385  084E               	movf	init_uart@baud+3,w
  5701     1386  00D2               	movwf	??_init_uart+3
  5702     1387  3004               	movlw	4
  5703     1388                     u3485:
  5704     1388  1003               	clrc
  5705     1389  0DCF               	rlf	??_init_uart,f
  5706     138A  0DD0               	rlf	??_init_uart+1,f
  5707     138B  0DD1               	rlf	??_init_uart+2,f
  5708     138C  0DD2               	rlf	??_init_uart+3,f
  5709     138D                     u3480:
  5710     138D  3EFF               	addlw	-1
  5711     138E  1D03               	skipz
  5712     138F  2B88               	goto	u3485
  5713     1390  0852               	movf	??_init_uart+3,w
  5714     1391  00F5               	movwf	___lldiv@divisor+3
  5715     1392  0851               	movf	??_init_uart+2,w
  5716     1393  00F4               	movwf	___lldiv@divisor+2
  5717     1394  0850               	movf	??_init_uart+1,w
  5718     1395  00F3               	movwf	___lldiv@divisor+1
  5719     1396  084F               	movf	??_init_uart,w
  5720     1397  00F2               	movwf	___lldiv@divisor
  5721     1398  3001               	movlw	1
  5722     1399  00F9               	movwf	___lldiv@dividend+3
  5723     139A  3031               	movlw	49
  5724     139B  00F8               	movwf	___lldiv@dividend+2
  5725     139C  302D               	movlw	45
  5726     139D  00F7               	movwf	___lldiv@dividend+1
  5727     139E  3000               	movlw	0
  5728     139F  00F6               	movwf	___lldiv@dividend
  5729     13A0  160A  118A  2798  160A  118A  	fcall	___lldiv
  5730     13A5  0872               	movf	?___lldiv,w
  5731     13A6  3EFF               	addlw	255
  5732     13A7  1683               	bsf	3,5	;RP0=1, select bank1
  5733     13A8  1303               	bcf	3,6	;RP1=0, select bank1
  5734     13A9  0099               	movwf	25	;volatile
  5735     13AA                     l533:
  5736     13AA  0008               	return
  5737     13AB                     __end_of_init_uart:
  5738                           
  5739                           	psect	text12
  5740     1134                     __ptext12:	
  5741 ;; *************** function _init_timer2 *****************
  5742 ;; Defined at:
  5743 ;;		line 3 in file "timers.c"
  5744 ;; Parameters:    Size  Location     Type
  5745 ;;		None
  5746 ;; Auto vars:     Size  Location     Type
  5747 ;;		None
  5748 ;; Return value:  Size  Location     Type
  5749 ;;                  1    wreg      void 
  5750 ;; Registers used:
  5751 ;;		wreg
  5752 ;; Tracked objects:
  5753 ;;		On entry : 0/0
  5754 ;;		On exit  : 0/0
  5755 ;;		Unchanged: 0/0
  5756 ;; Data sizes:     COMMON   BANK0   BANK1   BANK3   BANK2
  5757 ;;      Params:         0       0       0       0       0
  5758 ;;      Locals:         0       0       0       0       0
  5759 ;;      Temps:          0       0       0       0       0
  5760 ;;      Totals:         0       0       0       0       0
  5761 ;;Total ram usage:        0 bytes
  5762 ;; Hardware stack levels used: 1
  5763 ;; Hardware stack levels required when called: 1
  5764 ;; This function calls:
  5765 ;;		Nothing
  5766 ;; This function is called by:
  5767 ;;		_init_config
  5768 ;; This function uses a non-reentrant model
  5769 ;;
  5770                           
  5771     1134                     _init_timer2:	
  5772                           ;psect for function _init_timer2
  5773                           
  5774     1134                     l4468:	
  5775                           ;incstack = 0
  5776                           ; Regs used in _init_timer2: [wreg]
  5777                           
  5778                           
  5779                           ;timers.c: 6:     T2CKPS0 = 1;
  5780     1134  1283               	bcf	3,5	;RP0=0, select bank0
  5781     1135  1303               	bcf	3,6	;RP1=0, select bank0
  5782     1136  1412               	bsf	18,0	;volatile
  5783                           
  5784                           ;timers.c: 7:     T2CKPS1 = 1;
  5785     1137  1492               	bsf	18,1	;volatile
  5786     1138                     l4470:
  5787                           
  5788                           ;timers.c: 10:     PR2 = 250;
  5789     1138  30FA               	movlw	250
  5790     1139  1683               	bsf	3,5	;RP0=1, select bank1
  5791     113A  1303               	bcf	3,6	;RP1=0, select bank1
  5792     113B  0092               	movwf	18	;volatile
  5793     113C                     l4472:
  5794                           
  5795                           ;timers.c: 13:     TMR2IE = 1;
  5796     113C  148C               	bsf	12,1	;volatile
  5797     113D                     l4474:
  5798                           
  5799                           ;timers.c: 16:     TMR2ON = 1;
  5800     113D  1283               	bcf	3,5	;RP0=0, select bank0
  5801     113E  1303               	bcf	3,6	;RP1=0, select bank0
  5802     113F  1512               	bsf	18,2	;volatile
  5803     1140                     l499:
  5804     1140  0008               	return
  5805     1141                     __end_of_init_timer2:
  5806                           
  5807                           	psect	text13
  5808     13AB                     __ptext13:	
  5809 ;; *************** function _init_i2c *****************
  5810 ;; Defined at:
  5811 ;;		line 4 in file "i2c.c"
  5812 ;; Parameters:    Size  Location     Type
  5813 ;;  baud            4    6[BANK0 ] unsigned long 
  5814 ;; Auto vars:     Size  Location     Type
  5815 ;;		None
  5816 ;; Return value:  Size  Location     Type
  5817 ;;                  1    wreg      void 
  5818 ;; Registers used:
  5819 ;;		wreg, status,2, status,0, pclath, cstack
  5820 ;; Tracked objects:
  5821 ;;		On entry : 0/0
  5822 ;;		On exit  : 0/0
  5823 ;;		Unchanged: 0/0
  5824 ;; Data sizes:     COMMON   BANK0   BANK1   BANK3   BANK2
  5825 ;;      Params:         0       4       0       0       0
  5826 ;;      Locals:         0       0       0       0       0
  5827 ;;      Temps:          0       4       0       0       0
  5828 ;;      Totals:         0       8       0       0       0
  5829 ;;Total ram usage:        8 bytes
  5830 ;; Hardware stack levels used: 1
  5831 ;; Hardware stack levels required when called: 2
  5832 ;; This function calls:
  5833 ;;		___lldiv
  5834 ;; This function is called by:
  5835 ;;		_init_config
  5836 ;; This function uses a non-reentrant model
  5837 ;;
  5838                           
  5839     13AB                     _init_i2c:	
  5840                           ;psect for function _init_i2c
  5841                           
  5842     13AB                     l4458:	
  5843                           ;incstack = 0
  5844                           ; Regs used in _init_i2c: [wreg+status,2+status,0+pclath+cstack]
  5845                           
  5846                           
  5847                           ;i2c.c: 4: void init_i2c(unsigned long baud);i2c.c: 5: {;i2c.c: 7:     SSPM3 = 1;
  5848     13AB  1283               	bcf	3,5	;RP0=0, select bank0
  5849     13AC  1303               	bcf	3,6	;RP1=0, select bank0
  5850     13AD  1594               	bsf	20,3	;volatile
  5851     13AE                     l4460:
  5852                           
  5853                           ;i2c.c: 10:     SSPADD = (unsigned char) (20000000 / (4 * baud)) - 1;
  5854     13AE  084B               	movf	init_i2c@baud,w
  5855     13AF  00CF               	movwf	??_init_i2c
  5856     13B0  084C               	movf	init_i2c@baud+1,w
  5857     13B1  00D0               	movwf	??_init_i2c+1
  5858     13B2  084D               	movf	init_i2c@baud+2,w
  5859     13B3  00D1               	movwf	??_init_i2c+2
  5860     13B4  084E               	movf	init_i2c@baud+3,w
  5861     13B5  00D2               	movwf	??_init_i2c+3
  5862     13B6  3002               	movlw	2
  5863     13B7                     u3475:
  5864     13B7  1003               	clrc
  5865     13B8  0DCF               	rlf	??_init_i2c,f
  5866     13B9  0DD0               	rlf	??_init_i2c+1,f
  5867     13BA  0DD1               	rlf	??_init_i2c+2,f
  5868     13BB  0DD2               	rlf	??_init_i2c+3,f
  5869     13BC                     u3470:
  5870     13BC  3EFF               	addlw	-1
  5871     13BD  1D03               	skipz
  5872     13BE  2BB7               	goto	u3475
  5873     13BF  0852               	movf	??_init_i2c+3,w
  5874     13C0  00F5               	movwf	___lldiv@divisor+3
  5875     13C1  0851               	movf	??_init_i2c+2,w
  5876     13C2  00F4               	movwf	___lldiv@divisor+2
  5877     13C3  0850               	movf	??_init_i2c+1,w
  5878     13C4  00F3               	movwf	___lldiv@divisor+1
  5879     13C5  084F               	movf	??_init_i2c,w
  5880     13C6  00F2               	movwf	___lldiv@divisor
  5881     13C7  3001               	movlw	1
  5882     13C8  00F9               	movwf	___lldiv@dividend+3
  5883     13C9  3031               	movlw	49
  5884     13CA  00F8               	movwf	___lldiv@dividend+2
  5885     13CB  302D               	movlw	45
  5886     13CC  00F7               	movwf	___lldiv@dividend+1
  5887     13CD  3000               	movlw	0
  5888     13CE  00F6               	movwf	___lldiv@dividend
  5889     13CF  160A  118A  2798  160A  118A  	fcall	___lldiv
  5890     13D4  0872               	movf	?___lldiv,w
  5891     13D5  3EFF               	addlw	255
  5892     13D6  1683               	bsf	3,5	;RP0=1, select bank1
  5893     13D7  1303               	bcf	3,6	;RP1=0, select bank1
  5894     13D8  0093               	movwf	19	;volatile
  5895     13D9                     l4462:
  5896                           
  5897                           ;i2c.c: 13:     SSPEN = 1;
  5898     13D9  1283               	bcf	3,5	;RP0=0, select bank0
  5899     13DA  1303               	bcf	3,6	;RP1=0, select bank0
  5900     13DB  1694               	bsf	20,5	;volatile
  5901     13DC                     l84:
  5902     13DC  0008               	return
  5903     13DD                     __end_of_init_i2c:
  5904                           
  5905                           	psect	text14
  5906     1798                     __ptext14:	
  5907 ;; *************** function ___lldiv *****************
  5908 ;; Defined at:
  5909 ;;		line 5 in file "C:\Program Files\Microchip\xc8\v2.40\pic\sources\c90\common\__lldiv.c"
  5910 ;; Parameters:    Size  Location     Type
  5911 ;;  divisor         4    2[COMMON] unsigned long 
  5912 ;;  dividend        4    6[COMMON] unsigned long 
  5913 ;; Auto vars:     Size  Location     Type
  5914 ;;  quotient        4    1[BANK0 ] unsigned long 
  5915 ;;  counter         1    5[BANK0 ] unsigned char 
  5916 ;; Return value:  Size  Location     Type
  5917 ;;                  4    2[COMMON] unsigned long 
  5918 ;; Registers used:
  5919 ;;		wreg, status,2, status,0
  5920 ;; Tracked objects:
  5921 ;;		On entry : 0/0
  5922 ;;		On exit  : 0/0
  5923 ;;		Unchanged: 0/0
  5924 ;; Data sizes:     COMMON   BANK0   BANK1   BANK3   BANK2
  5925 ;;      Params:         8       0       0       0       0
  5926 ;;      Locals:         0       5       0       0       0
  5927 ;;      Temps:          0       1       0       0       0
  5928 ;;      Totals:         8       6       0       0       0
  5929 ;;Total ram usage:       14 bytes
  5930 ;; Hardware stack levels used: 1
  5931 ;; Hardware stack levels required when called: 1
  5932 ;; This function calls:
  5933 ;;		Nothing
  5934 ;; This function is called by:
  5935 ;;		_init_i2c
  5936 ;;		_init_uart
  5937 ;; This function uses a non-reentrant model
  5938 ;;
  5939                           
  5940     1798                     ___lldiv:	
  5941                           ;psect for function ___lldiv
  5942                           
  5943     1798                     l4412:	
  5944                           ;incstack = 0
  5945                           ; Regs used in ___lldiv: [wreg+status,2+status,0]
  5946                           
  5947     1798  3000               	movlw	0
  5948     1799  1283               	bcf	3,5	;RP0=0, select bank0
  5949     179A  1303               	bcf	3,6	;RP1=0, select bank0
  5950     179B  00C9               	movwf	___lldiv@quotient+3
  5951     179C  3000               	movlw	0
  5952     179D  00C8               	movwf	___lldiv@quotient+2
  5953     179E  3000               	movlw	0
  5954     179F  00C7               	movwf	___lldiv@quotient+1
  5955     17A0  3000               	movlw	0
  5956     17A1  00C6               	movwf	___lldiv@quotient
  5957     17A2  0875               	movf	___lldiv@divisor+3,w
  5958     17A3  0474               	iorwf	___lldiv@divisor+2,w
  5959     17A4  0473               	iorwf	___lldiv@divisor+1,w
  5960     17A5  0472               	iorwf	___lldiv@divisor,w
  5961     17A6  1903               	skipnz
  5962     17A7  2FA9               	goto	u3391
  5963     17A8  2FAA               	goto	u3390
  5964     17A9                     u3391:
  5965     17A9  2FF7               	goto	l4432
  5966     17AA                     u3390:
  5967     17AA                     l4414:
  5968     17AA  01CA               	clrf	___lldiv@counter
  5969     17AB  0ACA               	incf	___lldiv@counter,f
  5970     17AC  2FBA               	goto	l4418
  5971     17AD                     l4416:
  5972     17AD  3001               	movlw	1
  5973     17AE  00C5               	movwf	??___lldiv
  5974     17AF                     u3405:
  5975     17AF  1003               	clrc
  5976     17B0  0DF2               	rlf	___lldiv@divisor,f
  5977     17B1  0DF3               	rlf	___lldiv@divisor+1,f
  5978     17B2  0DF4               	rlf	___lldiv@divisor+2,f
  5979     17B3  0DF5               	rlf	___lldiv@divisor+3,f
  5980     17B4  0BC5               	decfsz	??___lldiv,f
  5981     17B5  2FAF               	goto	u3405
  5982     17B6  3001               	movlw	1
  5983     17B7  00C5               	movwf	??___lldiv
  5984     17B8  0845               	movf	??___lldiv,w
  5985     17B9  07CA               	addwf	___lldiv@counter,f
  5986     17BA                     l4418:
  5987     17BA  1FF5               	btfss	___lldiv@divisor+3,7
  5988     17BB  2FBD               	goto	u3411
  5989     17BC  2FBE               	goto	u3410
  5990     17BD                     u3411:
  5991     17BD  2FAD               	goto	l4416
  5992     17BE                     u3410:
  5993     17BE                     l4420:
  5994     17BE  3001               	movlw	1
  5995     17BF  00C5               	movwf	??___lldiv
  5996     17C0                     u3425:
  5997     17C0  1003               	clrc
  5998     17C1  0DC6               	rlf	___lldiv@quotient,f
  5999     17C2  0DC7               	rlf	___lldiv@quotient+1,f
  6000     17C3  0DC8               	rlf	___lldiv@quotient+2,f
  6001     17C4  0DC9               	rlf	___lldiv@quotient+3,f
  6002     17C5  0BC5               	decfsz	??___lldiv,f
  6003     17C6  2FC0               	goto	u3425
  6004     17C7                     l4422:
  6005     17C7  0875               	movf	___lldiv@divisor+3,w
  6006     17C8  0279               	subwf	___lldiv@dividend+3,w
  6007     17C9  1D03               	skipz
  6008     17CA  2FD5               	goto	u3435
  6009     17CB  0874               	movf	___lldiv@divisor+2,w
  6010     17CC  0278               	subwf	___lldiv@dividend+2,w
  6011     17CD  1D03               	skipz
  6012     17CE  2FD5               	goto	u3435
  6013     17CF  0873               	movf	___lldiv@divisor+1,w
  6014     17D0  0277               	subwf	___lldiv@dividend+1,w
  6015     17D1  1D03               	skipz
  6016     17D2  2FD5               	goto	u3435
  6017     17D3  0872               	movf	___lldiv@divisor,w
  6018     17D4  0276               	subwf	___lldiv@dividend,w
  6019     17D5                     u3435:
  6020     17D5  1C03               	skipc
  6021     17D6  2FD8               	goto	u3431
  6022     17D7  2FD9               	goto	u3430
  6023     17D8                     u3431:
  6024     17D8  2FE8               	goto	l4428
  6025     17D9                     u3430:
  6026     17D9                     l4424:
  6027     17D9  0872               	movf	___lldiv@divisor,w
  6028     17DA  02F6               	subwf	___lldiv@dividend,f
  6029     17DB  0873               	movf	___lldiv@divisor+1,w
  6030     17DC  1C03               	skipc
  6031     17DD  0F73               	incfsz	___lldiv@divisor+1,w
  6032     17DE  02F7               	subwf	___lldiv@dividend+1,f
  6033     17DF  0874               	movf	___lldiv@divisor+2,w
  6034     17E0  1C03               	skipc
  6035     17E1  0F74               	incfsz	___lldiv@divisor+2,w
  6036     17E2  02F8               	subwf	___lldiv@dividend+2,f
  6037     17E3  0875               	movf	___lldiv@divisor+3,w
  6038     17E4  1C03               	skipc
  6039     17E5  0F75               	incfsz	___lldiv@divisor+3,w
  6040     17E6  02F9               	subwf	___lldiv@dividend+3,f
  6041     17E7                     l4426:
  6042     17E7  1446               	bsf	___lldiv@quotient,0
  6043     17E8                     l4428:
  6044     17E8  3001               	movlw	1
  6045     17E9                     u3445:
  6046     17E9  1003               	clrc
  6047     17EA  0CF5               	rrf	___lldiv@divisor+3,f
  6048     17EB  0CF4               	rrf	___lldiv@divisor+2,f
  6049     17EC  0CF3               	rrf	___lldiv@divisor+1,f
  6050     17ED  0CF2               	rrf	___lldiv@divisor,f
  6051     17EE  3EFF               	addlw	-1
  6052     17EF  1D03               	skipz
  6053     17F0  2FE9               	goto	u3445
  6054     17F1                     l4430:
  6055     17F1  3001               	movlw	1
  6056     17F2  02CA               	subwf	___lldiv@counter,f
  6057     17F3  1D03               	btfss	3,2
  6058     17F4  2FF6               	goto	u3451
  6059     17F5  2FF7               	goto	u3450
  6060     17F6                     u3451:
  6061     17F6  2FBE               	goto	l4420
  6062     17F7                     u3450:
  6063     17F7                     l4432:
  6064     17F7  0849               	movf	___lldiv@quotient+3,w
  6065     17F8  00F5               	movwf	?___lldiv+3
  6066     17F9  0848               	movf	___lldiv@quotient+2,w
  6067     17FA  00F4               	movwf	?___lldiv+2
  6068     17FB  0847               	movf	___lldiv@quotient+1,w
  6069     17FC  00F3               	movwf	?___lldiv+1
  6070     17FD  0846               	movf	___lldiv@quotient,w
  6071     17FE  00F2               	movwf	?___lldiv
  6072     17FF                     l673:
  6073     17FF  0008               	return
  6074     1800                     __end_of___lldiv:
  6075                           
  6076                           	psect	text15
  6077     1164                     __ptext15:	
  6078 ;; *************** function _init_ds1307 *****************
  6079 ;; Defined at:
  6080 ;;		line 5 in file "ds1307.c"
  6081 ;; Parameters:    Size  Location     Type
  6082 ;;		None
  6083 ;; Auto vars:     Size  Location     Type
  6084 ;;  dummy           1    6[COMMON] unsigned char 
  6085 ;; Return value:  Size  Location     Type
  6086 ;;                  1    wreg      void 
  6087 ;; Registers used:
  6088 ;;		wreg, status,2, status,0, pclath, cstack
  6089 ;; Tracked objects:
  6090 ;;		On entry : 0/0
  6091 ;;		On exit  : 0/0
  6092 ;;		Unchanged: 0/0
  6093 ;; Data sizes:     COMMON   BANK0   BANK1   BANK3   BANK2
  6094 ;;      Params:         0       0       0       0       0
  6095 ;;      Locals:         1       0       0       0       0
  6096 ;;      Temps:          0       0       0       0       0
  6097 ;;      Totals:         1       0       0       0       0
  6098 ;;Total ram usage:        1 bytes
  6099 ;; Hardware stack levels used: 1
  6100 ;; Hardware stack levels required when called: 5
  6101 ;; This function calls:
  6102 ;;		_read_ds1307
  6103 ;;		_write_ds1307
  6104 ;; This function is called by:
  6105 ;;		_init_config
  6106 ;; This function uses a non-reentrant model
  6107 ;;
  6108                           
  6109     1164                     _init_ds1307:	
  6110                           ;psect for function _init_ds1307
  6111                           
  6112     1164                     l4452:	
  6113                           ;incstack = 0
  6114                           ; Regs used in _init_ds1307: [wreg+status,2+status,0+pclath+cstack]
  6115                           
  6116                           
  6117                           ;ds1307.c: 7:     unsigned char dummy;;ds1307.c: 9:     dummy = read_ds1307(0x00);
  6118     1164  3000               	movlw	0
  6119     1165  160A  118A  229C  160A  118A  	fcall	_read_ds1307
  6120     116A  00F6               	movwf	init_ds1307@dummy
  6121     116B                     l4454:
  6122                           
  6123                           ;ds1307.c: 10:     dummy = dummy & 0x7F;
  6124     116B  0876               	movf	init_ds1307@dummy,w
  6125     116C  397F               	andlw	127
  6126     116D  00F6               	movwf	init_ds1307@dummy
  6127     116E                     l4456:
  6128                           
  6129                           ;ds1307.c: 11:     write_ds1307(0x00, dummy);
  6130     116E  0876               	movf	init_ds1307@dummy,w
  6131     116F  00F3               	movwf	write_ds1307@data
  6132     1170  3000               	movlw	0
  6133     1171  160A  118A  21CD  160A  118A  	fcall	_write_ds1307
  6134     1176                     l49:
  6135     1176  0008               	return
  6136     1177                     __end_of_init_ds1307:
  6137                           
  6138                           	psect	text16
  6139     10D5                     __ptext16:	
  6140 ;; *************** function _init_digital_keypad *****************
  6141 ;; Defined at:
  6142 ;;		line 4 in file "digital_keypad.c"
  6143 ;; Parameters:    Size  Location     Type
  6144 ;;		None
  6145 ;; Auto vars:     Size  Location     Type
  6146 ;;		None
  6147 ;; Return value:  Size  Location     Type
  6148 ;;                  1    wreg      void 
  6149 ;; Registers used:
  6150 ;;		wreg, status,2
  6151 ;; Tracked objects:
  6152 ;;		On entry : 0/0
  6153 ;;		On exit  : 0/0
  6154 ;;		Unchanged: 0/0
  6155 ;; Data sizes:     COMMON   BANK0   BANK1   BANK3   BANK2
  6156 ;;      Params:         0       0       0       0       0
  6157 ;;      Locals:         0       0       0       0       0
  6158 ;;      Temps:          0       0       0       0       0
  6159 ;;      Totals:         0       0       0       0       0
  6160 ;;Total ram usage:        0 bytes
  6161 ;; Hardware stack levels used: 1
  6162 ;; Hardware stack levels required when called: 1
  6163 ;; This function calls:
  6164 ;;		Nothing
  6165 ;; This function is called by:
  6166 ;;		_init_config
  6167 ;; This function uses a non-reentrant model
  6168 ;;
  6169                           
  6170     10D5                     _init_digital_keypad:	
  6171                           ;psect for function _init_digital_keypad
  6172                           
  6173     10D5                     l4466:	
  6174                           ;incstack = 0
  6175                           ; Regs used in _init_digital_keypad: [wreg+status,2]
  6176                           
  6177                           
  6178                           ;digital_keypad.c: 7:     TRISB = TRISB | 0x3F;
  6179     10D5  1683               	bsf	3,5	;RP0=1, select bank1
  6180     10D6  1303               	bcf	3,6	;RP1=0, select bank1
  6181     10D7  0806               	movf	6,w	;volatile
  6182     10D8  383F               	iorlw	63
  6183     10D9  0086               	movwf	6	;volatile
  6184     10DA                     l444:
  6185     10DA  0008               	return
  6186     10DB                     __end_of_init_digital_keypad:
  6187                           
  6188                           	psect	text17
  6189     111C                     __ptext17:	
  6190 ;; *************** function _init_clcd *****************
  6191 ;; Defined at:
  6192 ;;		line 37 in file "clcd.c"
  6193 ;; Parameters:    Size  Location     Type
  6194 ;;		None
  6195 ;; Auto vars:     Size  Location     Type
  6196 ;;		None
  6197 ;; Return value:  Size  Location     Type
  6198 ;;                  1    wreg      void 
  6199 ;; Registers used:
  6200 ;;		wreg, status,2, status,0, pclath, cstack
  6201 ;; Tracked objects:
  6202 ;;		On entry : 0/0
  6203 ;;		On exit  : 0/0
  6204 ;;		Unchanged: 0/0
  6205 ;; Data sizes:     COMMON   BANK0   BANK1   BANK3   BANK2
  6206 ;;      Params:         0       0       0       0       0
  6207 ;;      Locals:         0       0       0       0       0
  6208 ;;      Temps:          0       0       0       0       0
  6209 ;;      Totals:         0       0       0       0       0
  6210 ;;Total ram usage:        0 bytes
  6211 ;; Hardware stack levels used: 1
  6212 ;; Hardware stack levels required when called: 3
  6213 ;; This function calls:
  6214 ;;		_init_display_controller
  6215 ;; This function is called by:
  6216 ;;		_init_config
  6217 ;; This function uses a non-reentrant model
  6218 ;;
  6219                           
  6220     111C                     _init_clcd:	
  6221                           ;psect for function _init_clcd
  6222                           
  6223     111C                     l4436:	
  6224                           ;incstack = 0
  6225                           ; Regs used in _init_clcd: [wreg+status,2+status,0+pclath+cstack]
  6226                           
  6227                           
  6228                           ;clcd.c: 40:     TRISD = 0x00;
  6229     111C  1683               	bsf	3,5	;RP0=1, select bank1
  6230     111D  1303               	bcf	3,6	;RP1=0, select bank1
  6231     111E  0188               	clrf	8	;volatile
  6232     111F                     l4438:
  6233                           
  6234                           ;clcd.c: 43:     TRISE2 = 0;
  6235     111F  1109               	bcf	9,2	;volatile
  6236     1120                     l4440:
  6237                           
  6238                           ;clcd.c: 44:     TRISE1 = 0;
  6239     1120  1089               	bcf	9,1	;volatile
  6240     1121                     l4442:
  6241                           
  6242                           ;clcd.c: 46:     init_display_controller();
  6243     1121  160A  118A  2690  160A  118A  	fcall	_init_display_controller
  6244     1126                     l23:
  6245     1126  0008               	return
  6246     1127                     __end_of_init_clcd:
  6247                           
  6248                           	psect	text18
  6249     1690                     __ptext18:	
  6250 ;; *************** function _init_display_controller *****************
  6251 ;; Defined at:
  6252 ;;		line 16 in file "clcd.c"
  6253 ;; Parameters:    Size  Location     Type
  6254 ;;		None
  6255 ;; Auto vars:     Size  Location     Type
  6256 ;;		None
  6257 ;; Return value:  Size  Location     Type
  6258 ;;                  1    wreg      void 
  6259 ;; Registers used:
  6260 ;;		wreg, status,2, status,0, pclath, cstack
  6261 ;; Tracked objects:
  6262 ;;		On entry : 0/0
  6263 ;;		On exit  : 0/0
  6264 ;;		Unchanged: 0/0
  6265 ;; Data sizes:     COMMON   BANK0   BANK1   BANK3   BANK2
  6266 ;;      Params:         0       0       0       0       0
  6267 ;;      Locals:         0       0       0       0       0
  6268 ;;      Temps:          2       0       0       0       0
  6269 ;;      Totals:         2       0       0       0       0
  6270 ;;Total ram usage:        2 bytes
  6271 ;; Hardware stack levels used: 1
  6272 ;; Hardware stack levels required when called: 2
  6273 ;; This function calls:
  6274 ;;		_clcd_write
  6275 ;; This function is called by:
  6276 ;;		_init_clcd
  6277 ;; This function uses a non-reentrant model
  6278 ;;
  6279                           
  6280     1690                     _init_display_controller:	
  6281                           ;psect for function _init_display_controller
  6282                           
  6283     1690                     l4346:	
  6284                           ;incstack = 0
  6285                           ; Regs used in _init_display_controller: [wreg+status,2+status,0+pclath+cstack]
  6286                           
  6287                           
  6288                           ;clcd.c: 19:     _delay((unsigned long)((30)*(20000000/4000.0)));
  6289     1690  30C3               	movlw	195
  6290     1691  00F7               	movwf	??_init_display_controller+1
  6291     1692  30CD               	movlw	205
  6292     1693  00F6               	movwf	??_init_display_controller
  6293     1694                     u4987:
  6294     1694  0BF6               	decfsz	??_init_display_controller,f
  6295     1695  2E94               	goto	u4987
  6296     1696  0BF7               	decfsz	??_init_display_controller+1,f
  6297     1697  2E94               	goto	u4987
  6298     1698                     l4348:
  6299                           
  6300                           ;clcd.c: 22:     clcd_write(0x33, 0);
  6301     1698  01F2               	clrf	clcd_write@mode
  6302     1699  3033               	movlw	51
  6303     169A  160A  118A  21EB  160A  118A  	fcall	_clcd_write
  6304     169F                     l4350:
  6305                           
  6306                           ;clcd.c: 23:     _delay((unsigned long)((4100)*(20000000/4000000.0)));
  6307     169F  301B               	movlw	27
  6308     16A0  00F7               	movwf	??_init_display_controller+1
  6309     16A1  309E               	movlw	158
  6310     16A2  00F6               	movwf	??_init_display_controller
  6311     16A3                     u4997:
  6312     16A3  0BF6               	decfsz	??_init_display_controller,f
  6313     16A4  2EA3               	goto	u4997
  6314     16A5  0BF7               	decfsz	??_init_display_controller+1,f
  6315     16A6  2EA3               	goto	u4997
  6316     16A7  0000               	nop
  6317                           
  6318                           ;clcd.c: 24:     clcd_write(0x33, 0);
  6319     16A8  01F2               	clrf	clcd_write@mode
  6320     16A9  3033               	movlw	51
  6321     16AA  160A  118A  21EB  160A  118A  	fcall	_clcd_write
  6322     16AF                     l4352:
  6323                           
  6324                           ;clcd.c: 25:     _delay((unsigned long)((100)*(20000000/4000000.0)));
  6325     16AF  30A6               	movlw	166
  6326     16B0  00F6               	movwf	??_init_display_controller
  6327     16B1                     u5007:
  6328     16B1  0BF6               	decfsz	??_init_display_controller,f
  6329     16B2  2EB1               	goto	u5007
  6330     16B3  0000               	nop
  6331     16B4                     l4354:
  6332                           
  6333                           ;clcd.c: 26:     clcd_write(0x33, 0);
  6334     16B4  01F2               	clrf	clcd_write@mode
  6335     16B5  3033               	movlw	51
  6336     16B6  160A  118A  21EB  160A  118A  	fcall	_clcd_write
  6337     16BB                     l4356:
  6338                           
  6339                           ;clcd.c: 27:     _delay((unsigned long)((1)*(20000000/4000000.0)));
  6340     16BB  2EBC               	nop2	;2 cycle nop
  6341     16BC  2EBD               	nop2	;2 cycle nop
  6342     16BD  0000               	nop
  6343     16BE                     l4358:
  6344                           
  6345                           ;clcd.c: 29:     clcd_write(0x38, 0);
  6346     16BE  01F2               	clrf	clcd_write@mode
  6347     16BF  3038               	movlw	56
  6348     16C0  160A  118A  21EB  160A  118A  	fcall	_clcd_write
  6349     16C5                     l4360:
  6350                           
  6351                           ;clcd.c: 30:     _delay((unsigned long)((100)*(20000000/4000000.0)));
  6352     16C5  30A6               	movlw	166
  6353     16C6  00F6               	movwf	??_init_display_controller
  6354     16C7                     u5017:
  6355     16C7  0BF6               	decfsz	??_init_display_controller,f
  6356     16C8  2EC7               	goto	u5017
  6357     16C9  0000               	nop
  6358                           
  6359                           ;clcd.c: 31:     clcd_write(0x01, 0);
  6360     16CA  01F2               	clrf	clcd_write@mode
  6361     16CB  3001               	movlw	1
  6362     16CC  160A  118A  21EB  160A  118A  	fcall	_clcd_write
  6363     16D1                     l4362:
  6364                           
  6365                           ;clcd.c: 32:     _delay((unsigned long)((500)*(20000000/4000000.0)));
  6366     16D1  3004               	movlw	4
  6367     16D2  00F7               	movwf	??_init_display_controller+1
  6368     16D3  303D               	movlw	61
  6369     16D4  00F6               	movwf	??_init_display_controller
  6370     16D5                     u5027:
  6371     16D5  0BF6               	decfsz	??_init_display_controller,f
  6372     16D6  2ED5               	goto	u5027
  6373     16D7  0BF7               	decfsz	??_init_display_controller+1,f
  6374     16D8  2ED5               	goto	u5027
  6375     16D9  2EDA               	nop2
  6376     16DA                     l4364:
  6377                           
  6378                           ;clcd.c: 33:     clcd_write(0x0C, 0);
  6379     16DA  01F2               	clrf	clcd_write@mode
  6380     16DB  300C               	movlw	12
  6381     16DC  160A  118A  21EB  160A  118A  	fcall	_clcd_write
  6382                           
  6383                           ;clcd.c: 34:     _delay((unsigned long)((100)*(20000000/4000000.0)));
  6384     16E1  30A6               	movlw	166
  6385     16E2  00F6               	movwf	??_init_display_controller
  6386     16E3                     u5037:
  6387     16E3  0BF6               	decfsz	??_init_display_controller,f
  6388     16E4  2EE3               	goto	u5037
  6389     16E5  0000               	nop
  6390     16E6                     l20:
  6391     16E6  0008               	return
  6392     16E7                     __end_of_init_display_controller:
  6393                           
  6394                           	psect	text19
  6395     06F9                     __ptext19:	
  6396 ;; *************** function _init_adc *****************
  6397 ;; Defined at:
  6398 ;;		line 3 in file "adc.c"
  6399 ;; Parameters:    Size  Location     Type
  6400 ;;		None
  6401 ;; Auto vars:     Size  Location     Type
  6402 ;;		None
  6403 ;; Return value:  Size  Location     Type
  6404 ;;                  1    wreg      void 
  6405 ;; Registers used:
  6406 ;;		None
  6407 ;; Tracked objects:
  6408 ;;		On entry : 0/0
  6409 ;;		On exit  : 0/0
  6410 ;;		Unchanged: 0/0
  6411 ;; Data sizes:     COMMON   BANK0   BANK1   BANK3   BANK2
  6412 ;;      Params:         0       0       0       0       0
  6413 ;;      Locals:         0       0       0       0       0
  6414 ;;      Temps:          0       0       0       0       0
  6415 ;;      Totals:         0       0       0       0       0
  6416 ;;Total ram usage:        0 bytes
  6417 ;; Hardware stack levels used: 1
  6418 ;; Hardware stack levels required when called: 1
  6419 ;; This function calls:
  6420 ;;		Nothing
  6421 ;; This function is called by:
  6422 ;;		_init_config
  6423 ;; This function uses a non-reentrant model
  6424 ;;
  6425                           
  6426     06F9                     _init_adc:	
  6427                           ;psect for function _init_adc
  6428                           
  6429     06F9                     l4464:	
  6430                           ;incstack = 0
  6431                           ; Regs used in _init_adc: []
  6432                           
  6433                           
  6434                           ;adc.c: 6:     ADFM = 1;
  6435     06F9  1683               	bsf	3,5	;RP0=1, select bank1
  6436     06FA  1303               	bcf	3,6	;RP1=0, select bank1
  6437     06FB  179F               	bsf	31,7	;volatile
  6438                           
  6439                           ;adc.c: 9:     ADON = 1;
  6440     06FC  1283               	bcf	3,5	;RP0=0, select bank0
  6441     06FD  1303               	bcf	3,6	;RP1=0, select bank0
  6442     06FE  141F               	bsf	31,0	;volatile
  6443     06FF                     l122:
  6444     06FF  0008               	return
  6445     0700                     __end_of_init_adc:
  6446                           
  6447                           	psect	text20
  6448     0A5D                     __ptext20:	
  6449 ;; *************** function _download_log *****************
  6450 ;; Defined at:
  6451 ;;		line 441 in file "car_black_box.c"
  6452 ;; Parameters:    Size  Location     Type
  6453 ;;		None
  6454 ;; Auto vars:     Size  Location     Type
  6455 ;;  i               2   16[BANK0 ] int 
  6456 ;;  log            11    0[BANK0 ] unsigned char [11]
  6457 ;;  index           2   14[BANK0 ] int 
  6458 ;;  position        2   12[BANK0 ] int 
  6459 ;;  add             1   11[BANK0 ] unsigned char 
  6460 ;; Return value:  Size  Location     Type
  6461 ;;                  1    wreg      void 
  6462 ;; Registers used:
  6463 ;;		wreg, fsr0l, fsr0h, status,2, status,0, btemp+1, pclath, cstack
  6464 ;; Tracked objects:
  6465 ;;		On entry : 0/0
  6466 ;;		On exit  : 0/0
  6467 ;;		Unchanged: 0/0
  6468 ;; Data sizes:     COMMON   BANK0   BANK1   BANK3   BANK2
  6469 ;;      Params:         0       0       0       0       0
  6470 ;;      Locals:         0      18       0       0       0
  6471 ;;      Temps:          1       0       0       0       0
  6472 ;;      Totals:         1      18       0       0       0
  6473 ;;Total ram usage:       19 bytes
  6474 ;; Hardware stack levels used: 1
  6475 ;; Hardware stack levels required when called: 5
  6476 ;; This function calls:
  6477 ;;		___bmul
  6478 ;;		_eeprom_at24c04_random_read
  6479 ;;		_putchar
  6480 ;;		_puts
  6481 ;; This function is called by:
  6482 ;;		_main
  6483 ;; This function uses a non-reentrant model
  6484 ;;
  6485                           
  6486     0A5D                     _download_log:	
  6487                           ;psect for function _download_log
  6488                           
  6489     0A5D                     l4802:	
  6490                           ;incstack = 0
  6491                           ; Regs used in _download_log: [wreg-fsr0h+status,2+status,0+btemp+1+pclath+cstack]
  6492                           
  6493                           
  6494                           ;car_black_box.c: 443:     int index = -1;
  6495     0A5D  30FF               	movlw	255
  6496     0A5E  1283               	bcf	3,5	;RP0=0, select bank0
  6497     0A5F  1303               	bcf	3,6	;RP1=0, select bank0
  6498     0A60  00D3               	movwf	download_log@index
  6499     0A61  30FF               	movlw	255
  6500     0A62  00D4               	movwf	download_log@index+1
  6501     0A63                     l4804:
  6502                           
  6503                           ;car_black_box.c: 444:     char log[11];;car_black_box.c: 445:     log[10] = 0;
  6504     0A63  01CF               	clrf	download_log@log+10
  6505     0A64                     l4806:
  6506     0A64                     l4808:
  6507                           
  6508                           ;car_black_box.c: 447:     unsigned char add;;car_black_box.c: 449:     if (event_count 
      +                          == -1)
  6509     0A64  0A68               	incf	_event_count,w
  6510     0A65  1D03               	skipz
  6511     0A66  2A6B               	goto	u4091
  6512     0A67  0A69               	incf	_event_count+1,w
  6513     0A68  1D03               	btfss	3,2
  6514     0A69  2A6B               	goto	u4091
  6515     0A6A  2A6C               	goto	u4090
  6516     0A6B                     u4091:
  6517     0A6B  2A76               	goto	l4812
  6518     0A6C                     u4090:
  6519     0A6C                     l4810:
  6520                           
  6521                           ;car_black_box.c: 450:     {;car_black_box.c: 451:         puts("No logs available");
  6522     0A6C  3036               	movlw	low (STR_34| (0+32768))
  6523     0A6D  00F3               	movwf	puts@s
  6524     0A6E  3087               	movlw	high (STR_34| (0+32768))
  6525     0A6F  00F4               	movwf	puts@s+1
  6526     0A70  160A  118A  2276  120A  158A  	fcall	_puts
  6527                           
  6528                           ;car_black_box.c: 452:     }
  6529     0A75  2B78               	goto	l374
  6530     0A76                     l4812:
  6531                           
  6532                           ;car_black_box.c: 454:     {;car_black_box.c: 455:         puts("Logs :");
  6533     0A76  30BF               	movlw	low (STR_35| (0+32768))
  6534     0A77  00F3               	movwf	puts@s
  6535     0A78  3088               	movlw	high (STR_35| (0+32768))
  6536     0A79  00F4               	movwf	puts@s+1
  6537     0A7A  160A  118A  2276  120A  158A  	fcall	_puts
  6538     0A7F                     l4814:
  6539                           
  6540                           ;car_black_box.c: 456:         putchar('\n');
  6541     0A7F  300A               	movlw	10
  6542     0A80  160A  118A  2111  120A  158A  	fcall	_putchar
  6543     0A85                     l4816:
  6544                           
  6545                           ;car_black_box.c: 457:         puts("#     Time        Event       Speed");
  6546     0A85  3000               	movlw	low (STR_36| (0+32768))
  6547     0A86  00F3               	movwf	puts@s
  6548     0A87  3087               	movlw	high (STR_36| (0+32768))
  6549     0A88  00F4               	movwf	puts@s+1
  6550     0A89  160A  118A  2276  120A  158A  	fcall	_puts
  6551                           
  6552                           ;car_black_box.c: 458:         putchar('\n');
  6553     0A8E  300A               	movlw	10
  6554     0A8F  160A  118A  2111  120A  158A  	fcall	_putchar
  6555                           
  6556                           ;car_black_box.c: 459:         putchar('\r');
  6557     0A94  300D               	movlw	13
  6558     0A95  160A  118A  2111  120A  158A  	fcall	_putchar
  6559                           
  6560                           ;car_black_box.c: 461:         while (index < event_count)
  6561     0A9A  2B68               	goto	l4868
  6562     0A9B                     l4818:
  6563                           
  6564                           ;car_black_box.c: 462:         {;car_black_box.c: 463:             position = index + 1;
  6565     0A9B  1283               	bcf	3,5	;RP0=0, select bank0
  6566     0A9C  1303               	bcf	3,6	;RP1=0, select bank0
  6567     0A9D  0853               	movf	download_log@index,w
  6568     0A9E  3E01               	addlw	1
  6569     0A9F  00D1               	movwf	download_log@position
  6570     0AA0  0854               	movf	download_log@index+1,w
  6571     0AA1  1803               	skipnc
  6572     0AA2  3E01               	addlw	1
  6573     0AA3  3E00               	addlw	0
  6574     0AA4  00D2               	movwf	download_log@position+1
  6575     0AA5                     l4820:
  6576                           
  6577                           ;car_black_box.c: 464:             index++;
  6578     0AA5  3001               	movlw	1
  6579     0AA6  07D3               	addwf	download_log@index,f
  6580     0AA7  1803               	skipnc
  6581     0AA8  0AD4               	incf	download_log@index+1,f
  6582     0AA9  3000               	movlw	0
  6583     0AAA  07D4               	addwf	download_log@index+1,f
  6584     0AAB                     l4822:
  6585                           
  6586                           ;car_black_box.c: 466:             for (int i = 0; i < 10; i++)
  6587     0AAB  01D5               	clrf	download_log@i
  6588     0AAC  01D6               	clrf	download_log@i+1
  6589     0AAD                     l4828:
  6590                           
  6591                           ;car_black_box.c: 467:             {;car_black_box.c: 469:                 add = positio
      +                          n * 10 + 5 + i;
  6592     0AAD  300A               	movlw	10
  6593     0AAE  00F2               	movwf	___bmul@multiplicand
  6594     0AAF  1283               	bcf	3,5	;RP0=0, select bank0
  6595     0AB0  1303               	bcf	3,6	;RP1=0, select bank0
  6596     0AB1  0851               	movf	download_log@position,w
  6597     0AB2  160A  118A  219F  120A  158A  	fcall	___bmul
  6598     0AB7  1283               	bcf	3,5	;RP0=0, select bank0
  6599     0AB8  1303               	bcf	3,6	;RP1=0, select bank0
  6600     0AB9  0755               	addwf	download_log@i,w
  6601     0ABA  3E05               	addlw	5
  6602     0ABB  00D0               	movwf	download_log@add
  6603     0ABC                     l4830:
  6604                           
  6605                           ;car_black_box.c: 470:                 log[i] = eeprom_at24c04_random_read(add);
  6606     0ABC  0855               	movf	download_log@i,w
  6607     0ABD  3E45               	addlw	(low (download_log@log| 0))& (0+255)
  6608     0ABE  0084               	movwf	4
  6609     0ABF  0850               	movf	download_log@add,w
  6610     0AC0  160A  118A  22F2  120A  158A  	fcall	_eeprom_at24c04_random_read
  6611     0AC5  1383               	bcf	3,7	;select IRP bank0
  6612     0AC6  0080               	movwf	0
  6613     0AC7                     l4832:
  6614                           
  6615                           ;car_black_box.c: 471:             }
  6616     0AC7  3001               	movlw	1
  6617     0AC8  1283               	bcf	3,5	;RP0=0, select bank0
  6618     0AC9  1303               	bcf	3,6	;RP1=0, select bank0
  6619     0ACA  07D5               	addwf	download_log@i,f
  6620     0ACB  1803               	skipnc
  6621     0ACC  0AD6               	incf	download_log@i+1,f
  6622     0ACD  3000               	movlw	0
  6623     0ACE  07D6               	addwf	download_log@i+1,f
  6624     0ACF                     l4834:
  6625     0ACF  0856               	movf	download_log@i+1,w
  6626     0AD0  3A80               	xorlw	128
  6627     0AD1  00FF               	movwf	btemp+1
  6628     0AD2  3080               	movlw	128
  6629     0AD3  027F               	subwf	btemp+1,w
  6630     0AD4  1D03               	skipz
  6631     0AD5  2AD8               	goto	u4105
  6632     0AD6  300A               	movlw	10
  6633     0AD7  0255               	subwf	download_log@i,w
  6634     0AD8                     u4105:
  6635     0AD8  1C03               	skipc
  6636     0AD9  2ADB               	goto	u4101
  6637     0ADA  2ADC               	goto	u4100
  6638     0ADB                     u4101:
  6639     0ADB  2AAD               	goto	l4828
  6640     0ADC                     u4100:
  6641     0ADC                     l4836:
  6642                           
  6643                           ;car_black_box.c: 476:             putchar(index + '0');
  6644     0ADC  1283               	bcf	3,5	;RP0=0, select bank0
  6645     0ADD  1303               	bcf	3,6	;RP1=0, select bank0
  6646     0ADE  0853               	movf	download_log@index,w
  6647     0ADF  3E30               	addlw	48
  6648     0AE0  160A  118A  2111  120A  158A  	fcall	_putchar
  6649     0AE5                     l4838:
  6650                           
  6651                           ;car_black_box.c: 477:             puts("   ");
  6652     0AE5  3032               	movlw	low ((STR_43+14)| (0+32768))
  6653     0AE6  00F3               	movwf	puts@s
  6654     0AE7  3087               	movlw	high ((STR_43+14)| (0+32768))
  6655     0AE8  00F4               	movwf	puts@s+1
  6656     0AE9  160A  118A  2276  120A  158A  	fcall	_puts
  6657     0AEE                     l4840:
  6658                           
  6659                           ;car_black_box.c: 480:             putchar(log[0]);
  6660     0AEE  1283               	bcf	3,5	;RP0=0, select bank0
  6661     0AEF  1303               	bcf	3,6	;RP1=0, select bank0
  6662     0AF0  0845               	movf	download_log@log,w
  6663     0AF1  160A  118A  2111  120A  158A  	fcall	_putchar
  6664     0AF6                     l4842:
  6665                           
  6666                           ;car_black_box.c: 481:             putchar(log[1]);
  6667     0AF6  1283               	bcf	3,5	;RP0=0, select bank0
  6668     0AF7  1303               	bcf	3,6	;RP1=0, select bank0
  6669     0AF8  0846               	movf	download_log@log+1,w
  6670     0AF9  160A  118A  2111  120A  158A  	fcall	_putchar
  6671     0AFE                     l4844:
  6672                           
  6673                           ;car_black_box.c: 482:             putchar(':');
  6674     0AFE  303A               	movlw	58
  6675     0AFF  160A  118A  2111  120A  158A  	fcall	_putchar
  6676     0B04                     l4846:
  6677                           
  6678                           ;car_black_box.c: 485:             putchar(log[2]);
  6679     0B04  1283               	bcf	3,5	;RP0=0, select bank0
  6680     0B05  1303               	bcf	3,6	;RP1=0, select bank0
  6681     0B06  0847               	movf	download_log@log+2,w
  6682     0B07  160A  118A  2111  120A  158A  	fcall	_putchar
  6683     0B0C                     l4848:
  6684                           
  6685                           ;car_black_box.c: 486:             putchar(log[3]);
  6686     0B0C  1283               	bcf	3,5	;RP0=0, select bank0
  6687     0B0D  1303               	bcf	3,6	;RP1=0, select bank0
  6688     0B0E  0848               	movf	download_log@log+3,w
  6689     0B0F  160A  118A  2111  120A  158A  	fcall	_putchar
  6690     0B14                     l4850:
  6691                           
  6692                           ;car_black_box.c: 487:             putchar(':');
  6693     0B14  303A               	movlw	58
  6694     0B15  160A  118A  2111  120A  158A  	fcall	_putchar
  6695     0B1A                     l4852:
  6696                           
  6697                           ;car_black_box.c: 490:             putchar(log[4]);
  6698     0B1A  1283               	bcf	3,5	;RP0=0, select bank0
  6699     0B1B  1303               	bcf	3,6	;RP1=0, select bank0
  6700     0B1C  0849               	movf	download_log@log+4,w
  6701     0B1D  160A  118A  2111  120A  158A  	fcall	_putchar
  6702     0B22                     l4854:
  6703                           
  6704                           ;car_black_box.c: 491:             putchar(log[5]);
  6705     0B22  1283               	bcf	3,5	;RP0=0, select bank0
  6706     0B23  1303               	bcf	3,6	;RP1=0, select bank0
  6707     0B24  084A               	movf	download_log@log+5,w
  6708     0B25  160A  118A  2111  120A  158A  	fcall	_putchar
  6709     0B2A                     l4856:
  6710                           
  6711                           ;car_black_box.c: 492:             puts("      ");
  6712     0B2A  302F               	movlw	low ((STR_43+11)| (0+32768))
  6713     0B2B  00F3               	movwf	puts@s
  6714     0B2C  3087               	movlw	high ((STR_43+11)| (0+32768))
  6715     0B2D  00F4               	movwf	puts@s+1
  6716     0B2E  160A  118A  2276  120A  158A  	fcall	_puts
  6717                           
  6718                           ;car_black_box.c: 495:             putchar(log[6]);
  6719     0B33  1283               	bcf	3,5	;RP0=0, select bank0
  6720     0B34  1303               	bcf	3,6	;RP1=0, select bank0
  6721     0B35  084B               	movf	download_log@log+6,w
  6722     0B36  160A  118A  2111  120A  158A  	fcall	_putchar
  6723                           
  6724                           ;car_black_box.c: 496:             putchar(log[7]);
  6725     0B3B  1283               	bcf	3,5	;RP0=0, select bank0
  6726     0B3C  1303               	bcf	3,6	;RP1=0, select bank0
  6727     0B3D  084C               	movf	download_log@log+7,w
  6728     0B3E  160A  118A  2111  120A  158A  	fcall	_putchar
  6729     0B43                     l4858:
  6730                           
  6731                           ;car_black_box.c: 497:             puts("            ");
  6732     0B43  3029               	movlw	low ((STR_43+5)| (0+32768))
  6733     0B44  00F3               	movwf	puts@s
  6734     0B45  3087               	movlw	high ((STR_43+5)| (0+32768))
  6735     0B46  00F4               	movwf	puts@s+1
  6736     0B47  160A  118A  2276  120A  158A  	fcall	_puts
  6737     0B4C                     l4860:
  6738                           
  6739                           ;car_black_box.c: 500:             putchar(log[8]);
  6740     0B4C  1283               	bcf	3,5	;RP0=0, select bank0
  6741     0B4D  1303               	bcf	3,6	;RP1=0, select bank0
  6742     0B4E  084D               	movf	download_log@log+8,w
  6743     0B4F  160A  118A  2111  120A  158A  	fcall	_putchar
  6744     0B54                     l4862:
  6745                           
  6746                           ;car_black_box.c: 501:             putchar(log[9]);
  6747     0B54  1283               	bcf	3,5	;RP0=0, select bank0
  6748     0B55  1303               	bcf	3,6	;RP1=0, select bank0
  6749     0B56  084E               	movf	download_log@log+9,w
  6750     0B57  160A  118A  2111  120A  158A  	fcall	_putchar
  6751     0B5C                     l4864:
  6752                           
  6753                           ;car_black_box.c: 502:             putchar('\n');
  6754     0B5C  300A               	movlw	10
  6755     0B5D  160A  118A  2111  120A  158A  	fcall	_putchar
  6756     0B62                     l4866:
  6757                           
  6758                           ;car_black_box.c: 503:             putchar('\r');
  6759     0B62  300D               	movlw	13
  6760     0B63  160A  118A  2111  120A  158A  	fcall	_putchar
  6761     0B68                     l4868:
  6762                           
  6763                           ;car_black_box.c: 461:         while (index < event_count)
  6764     0B68  1283               	bcf	3,5	;RP0=0, select bank0
  6765     0B69  1303               	bcf	3,6	;RP1=0, select bank0
  6766     0B6A  0854               	movf	download_log@index+1,w
  6767     0B6B  3A80               	xorlw	128
  6768     0B6C  00F6               	movwf	??_download_log
  6769     0B6D  0869               	movf	_event_count+1,w
  6770     0B6E  3A80               	xorlw	128
  6771     0B6F  0276               	subwf	??_download_log,w
  6772     0B70  1D03               	skipz
  6773     0B71  2B74               	goto	u4115
  6774     0B72  0868               	movf	_event_count,w
  6775     0B73  0253               	subwf	download_log@index,w
  6776     0B74                     u4115:
  6777     0B74  1C03               	skipc
  6778     0B75  2B77               	goto	u4111
  6779     0B76  2B78               	goto	u4110
  6780     0B77                     u4111:
  6781     0B77  2A9B               	goto	l4818
  6782     0B78                     u4110:
  6783     0B78                     l374:
  6784     0B78  0008               	return
  6785     0B79                     __end_of_download_log:
  6786                           
  6787                           	psect	text21
  6788     1276                     __ptext21:	
  6789 ;; *************** function _puts *****************
  6790 ;; Defined at:
  6791 ;;		line 46 in file "uart.c"
  6792 ;; Parameters:    Size  Location     Type
  6793 ;;  s               2    3[COMMON] PTR const unsigned char 
  6794 ;;		 -> STR_39(13), STR_38(7), STR_37(4), STR_36(36), 
  6795 ;;		 -> STR_35(7), STR_34(18), 
  6796 ;; Auto vars:     Size  Location     Type
  6797 ;;		None
  6798 ;; Return value:  Size  Location     Type
  6799 ;;                  1    wreg      void 
  6800 ;; Registers used:
  6801 ;;		wreg, fsr0l, fsr0h, status,2, status,0, btemp+1, pclath, cstack
  6802 ;; Tracked objects:
  6803 ;;		On entry : 0/0
  6804 ;;		On exit  : 0/0
  6805 ;;		Unchanged: 0/0
  6806 ;; Data sizes:     COMMON   BANK0   BANK1   BANK3   BANK2
  6807 ;;      Params:         2       0       0       0       0
  6808 ;;      Locals:         0       0       0       0       0
  6809 ;;      Temps:          0       0       0       0       0
  6810 ;;      Totals:         2       0       0       0       0
  6811 ;;Total ram usage:        2 bytes
  6812 ;; Hardware stack levels used: 1
  6813 ;; Hardware stack levels required when called: 2
  6814 ;; This function calls:
  6815 ;;		_putchar
  6816 ;; This function is called by:
  6817 ;;		_download_log
  6818 ;; This function uses a non-reentrant model
  6819 ;;
  6820                           
  6821     1276                     _puts:	
  6822                           ;psect for function _puts
  6823                           
  6824     1276                     l4552:	
  6825                           ;incstack = 0
  6826                           ; Regs used in _puts: [wreg-fsr0h+status,2+status,0+btemp+1+pclath+cstack]
  6827                           
  6828                           
  6829                           ;uart.c: 46: void puts(const char *s);uart.c: 47: {;uart.c: 48:     while (*s)
  6830     1276  2A8B               	goto	l4558
  6831     1277                     l4554:
  6832                           
  6833                           ;uart.c: 49:     {;uart.c: 50:         putchar(*s++);
  6834     1277  0874               	movf	puts@s+1,w
  6835     1278  00FF               	movwf	btemp+1
  6836     1279  0873               	movf	puts@s,w
  6837     127A  0084               	movwf	4
  6838     127B  160A  118A  2000  160A  118A  	fcall	stringtab
  6839     1280  160A  118A  2111  160A  118A  	fcall	_putchar
  6840     1285                     l4556:
  6841     1285  3001               	movlw	1
  6842     1286  07F3               	addwf	puts@s,f
  6843     1287  1803               	skipnc
  6844     1288  0AF4               	incf	puts@s+1,f
  6845     1289  3000               	movlw	0
  6846     128A  07F4               	addwf	puts@s+1,f
  6847     128B                     l4558:
  6848                           
  6849                           ;uart.c: 48:     while (*s)
  6850     128B  0874               	movf	puts@s+1,w
  6851     128C  1283               	bcf	3,5	;RP0=0, select bank0
  6852     128D  1303               	bcf	3,6	;RP1=0, select bank0
  6853     128E  00FF               	movwf	btemp+1
  6854     128F  0873               	movf	puts@s,w
  6855     1290  0084               	movwf	4
  6856     1291  160A  118A  2000  160A  118A  	fcall	stringtab
  6857     1296  3A00               	xorlw	0
  6858     1297  1D03               	skipz
  6859     1298  2A9A               	goto	u3571
  6860     1299  2A9B               	goto	u3570
  6861     129A                     u3571:
  6862     129A  2A77               	goto	l4554
  6863     129B                     u3570:
  6864     129B                     l551:
  6865     129B  0008               	return
  6866     129C                     __end_of_puts:
  6867                           
  6868                           	psect	text22
  6869     1111                     __ptext22:	
  6870 ;; *************** function _putchar *****************
  6871 ;; Defined at:
  6872 ;;		line 31 in file "uart.c"
  6873 ;; Parameters:    Size  Location     Type
  6874 ;;  data            1    wreg     unsigned char 
  6875 ;; Auto vars:     Size  Location     Type
  6876 ;;  data            1    2[COMMON] unsigned char 
  6877 ;; Return value:  Size  Location     Type
  6878 ;;                  1    wreg      void 
  6879 ;; Registers used:
  6880 ;;		wreg
  6881 ;; Tracked objects:
  6882 ;;		On entry : 0/0
  6883 ;;		On exit  : 0/0
  6884 ;;		Unchanged: 0/0
  6885 ;; Data sizes:     COMMON   BANK0   BANK1   BANK3   BANK2
  6886 ;;      Params:         0       0       0       0       0
  6887 ;;      Locals:         1       0       0       0       0
  6888 ;;      Temps:          0       0       0       0       0
  6889 ;;      Totals:         1       0       0       0       0
  6890 ;;Total ram usage:        1 bytes
  6891 ;; Hardware stack levels used: 1
  6892 ;; Hardware stack levels required when called: 1
  6893 ;; This function calls:
  6894 ;;		Nothing
  6895 ;; This function is called by:
  6896 ;;		_download_log
  6897 ;;		_puts
  6898 ;; This function uses a non-reentrant model
  6899 ;;
  6900                           
  6901     1111                     _putchar:	
  6902                           ;psect for function _putchar
  6903                           
  6904                           
  6905                           ;incstack = 0
  6906                           ; Regs used in _putchar: [wreg]
  6907                           ;putchar@data stored from wreg
  6908     1111  00F2               	movwf	putchar@data
  6909     1112                     l4396:
  6910                           
  6911                           ;uart.c: 31: void putchar(unsigned char data);uart.c: 32: {;uart.c: 34:     TXREG = data
      +                          ;
  6912     1112  0872               	movf	putchar@data,w
  6913     1113  1283               	bcf	3,5	;RP0=0, select bank0
  6914     1114  1303               	bcf	3,6	;RP1=0, select bank0
  6915     1115  0099               	movwf	25	;volatile
  6916     1116                     l543:	
  6917                           ;uart.c: 40:     } while (TXIF != 1);
  6918                           
  6919     1116  1E0C               	btfss	12,4	;volatile
  6920     1117  2919               	goto	u3361
  6921     1118  291A               	goto	u3360
  6922     1119                     u3361:
  6923     1119  2916               	goto	l543
  6924     111A                     u3360:
  6925     111A                     l544:
  6926                           
  6927                           ;uart.c: 43:     TXIF = 0;
  6928     111A  120C               	bcf	12,4	;volatile
  6929     111B                     l545:
  6930     111B  0008               	return
  6931     111C                     __end_of_putchar:
  6932                           
  6933                           	psect	text23
  6934     12F2                     __ptext23:	
  6935 ;; *************** function _eeprom_at24c04_random_read *****************
  6936 ;; Defined at:
  6937 ;;		line 5 in file "at24c04.c"
  6938 ;; Parameters:    Size  Location     Type
  6939 ;;  memory_loc      1    wreg     unsigned char 
  6940 ;; Auto vars:     Size  Location     Type
  6941 ;;  memory_loc      1    4[COMMON] unsigned char 
  6942 ;;  received_dat    1    5[COMMON] unsigned char 
  6943 ;; Return value:  Size  Location     Type
  6944 ;;                  1    wreg      unsigned char 
  6945 ;; Registers used:
  6946 ;;		wreg, status,2, status,0, pclath, cstack
  6947 ;; Tracked objects:
  6948 ;;		On entry : 0/0
  6949 ;;		On exit  : 0/0
  6950 ;;		Unchanged: 0/0
  6951 ;; Data sizes:     COMMON   BANK0   BANK1   BANK3   BANK2
  6952 ;;      Params:         0       0       0       0       0
  6953 ;;      Locals:         2       0       0       0       0
  6954 ;;      Temps:          0       0       0       0       0
  6955 ;;      Totals:         2       0       0       0       0
  6956 ;;Total ram usage:        2 bytes
  6957 ;; Hardware stack levels used: 1
  6958 ;; Hardware stack levels required when called: 4
  6959 ;; This function calls:
  6960 ;;		_i2c_read
  6961 ;;		_i2c_rep_start
  6962 ;;		_i2c_start
  6963 ;;		_i2c_stop
  6964 ;;		_i2c_write
  6965 ;; This function is called by:
  6966 ;;		_login
  6967 ;;		_view_log
  6968 ;;		_download_log
  6969 ;; This function uses a non-reentrant model
  6970 ;;
  6971                           
  6972     12F2                     _eeprom_at24c04_random_read:	
  6973                           ;psect for function _eeprom_at24c04_random_read
  6974                           
  6975                           
  6976                           ;incstack = 0
  6977                           ; Regs used in _eeprom_at24c04_random_read: [wreg+status,2+status,0+pclath+cstack]
  6978                           ;eeprom_at24c04_random_read@memory_loc stored from wreg
  6979     12F2  00F4               	movwf	eeprom_at24c04_random_read@memory_loc
  6980     12F3                     l4516:
  6981     12F3                     l4518:
  6982                           
  6983                           ;at24c04.c: 9:     i2c_start();
  6984     12F3  160A  118A  20E9  160A  118A  	fcall	_i2c_start
  6985     12F8                     l4520:
  6986                           
  6987                           ;at24c04.c: 10:     i2c_write(0xA0);
  6988     12F8  30A0               	movlw	160
  6989     12F9  160A  118A  20FB  160A  118A  	fcall	_i2c_write
  6990     12FE                     l4522:
  6991                           
  6992                           ;at24c04.c: 11:     i2c_write(memory_loc);
  6993     12FE  0874               	movf	eeprom_at24c04_random_read@memory_loc,w
  6994     12FF  160A  118A  20FB  160A  118A  	fcall	_i2c_write
  6995     1304                     l4524:
  6996                           
  6997                           ;at24c04.c: 12:     i2c_rep_start();
  6998     1304  160A  118A  2106  160A  118A  	fcall	_i2c_rep_start
  6999     1309                     l4526:
  7000                           
  7001                           ;at24c04.c: 13:     i2c_write(0xA1);
  7002     1309  30A1               	movlw	161
  7003     130A  160A  118A  20FB  160A  118A  	fcall	_i2c_write
  7004     130F                     l4528:
  7005                           
  7006                           ;at24c04.c: 14:     received_data = i2c_read(0);
  7007     130F  3000               	movlw	0
  7008     1310  160A  118A  220B  160A  118A  	fcall	_i2c_read
  7009     1315  00F5               	movwf	eeprom_at24c04_random_read@received_data
  7010     1316                     l4530:
  7011                           
  7012                           ;at24c04.c: 15:     i2c_stop();
  7013     1316  160A  118A  20F2  160A  118A  	fcall	_i2c_stop
  7014     131B                     l4532:
  7015                           
  7016                           ;at24c04.c: 17:     return received_data;
  7017     131B  0875               	movf	eeprom_at24c04_random_read@received_data,w
  7018     131C                     l477:
  7019     131C  0008               	return
  7020     131D                     __end_of_eeprom_at24c04_random_read:
  7021                           
  7022                           	psect	text24
  7023     119F                     __ptext24:	
  7024 ;; *************** function ___bmul *****************
  7025 ;; Defined at:
  7026 ;;		line 4 in file "C:\Program Files\Microchip\xc8\v2.40\pic\sources\c90\common\Umul8.c"
  7027 ;; Parameters:    Size  Location     Type
  7028 ;;  multiplier      1    wreg     unsigned char 
  7029 ;;  multiplicand    1    2[COMMON] unsigned char 
  7030 ;; Auto vars:     Size  Location     Type
  7031 ;;  multiplier      1    5[COMMON] unsigned char 
  7032 ;;  product         1    4[COMMON] unsigned char 
  7033 ;; Return value:  Size  Location     Type
  7034 ;;                  1    wreg      unsigned char 
  7035 ;; Registers used:
  7036 ;;		wreg, status,2, status,0
  7037 ;; Tracked objects:
  7038 ;;		On entry : 0/0
  7039 ;;		On exit  : 0/0
  7040 ;;		Unchanged: 0/0
  7041 ;; Data sizes:     COMMON   BANK0   BANK1   BANK3   BANK2
  7042 ;;      Params:         1       0       0       0       0
  7043 ;;      Locals:         2       0       0       0       0
  7044 ;;      Temps:          1       0       0       0       0
  7045 ;;      Totals:         4       0       0       0       0
  7046 ;;Total ram usage:        4 bytes
  7047 ;; Hardware stack levels used: 1
  7048 ;; Hardware stack levels required when called: 1
  7049 ;; This function calls:
  7050 ;;		Nothing
  7051 ;; This function is called by:
  7052 ;;		_log_event
  7053 ;;		_view_log
  7054 ;;		_download_log
  7055 ;; This function uses a non-reentrant model
  7056 ;;
  7057                           
  7058     119F                     ___bmul:	
  7059                           ;psect for function ___bmul
  7060                           
  7061                           
  7062                           ;incstack = 0
  7063                           ; Regs used in ___bmul: [wreg+status,2+status,0]
  7064                           ;___bmul@multiplier stored from wreg
  7065     119F  00F5               	movwf	___bmul@multiplier
  7066     11A0                     l4398:
  7067     11A0  01F4               	clrf	___bmul@product
  7068     11A1                     l4400:
  7069     11A1  1C75               	btfss	___bmul@multiplier,0
  7070     11A2  29A4               	goto	u3371
  7071     11A3  29A5               	goto	u3370
  7072     11A4                     u3371:
  7073     11A4  29A9               	goto	l4404
  7074     11A5                     u3370:
  7075     11A5                     l4402:
  7076     11A5  0872               	movf	___bmul@multiplicand,w
  7077     11A6  00F3               	movwf	??___bmul
  7078     11A7  0873               	movf	??___bmul,w
  7079     11A8  07F4               	addwf	___bmul@product,f
  7080     11A9                     l4404:
  7081     11A9  1003               	clrc
  7082     11AA  0DF2               	rlf	___bmul@multiplicand,f
  7083     11AB                     l4406:
  7084     11AB  1003               	clrc
  7085     11AC  0CF5               	rrf	___bmul@multiplier,f
  7086     11AD  0875               	movf	___bmul@multiplier,w
  7087     11AE  1D03               	btfss	3,2
  7088     11AF  29B1               	goto	u3381
  7089     11B0  29B2               	goto	u3380
  7090     11B1                     u3381:
  7091     11B1  29A1               	goto	l4400
  7092     11B2                     u3380:
  7093     11B2                     l4408:
  7094     11B2  0874               	movf	___bmul@product,w
  7095     11B3                     l663:
  7096     11B3  0008               	return
  7097     11B4                     __end_of___bmul:
  7098                           
  7099                           	psect	text25
  7100     1639                     __ptext25:	
  7101 ;; *************** function _display_dashboard *****************
  7102 ;; Defined at:
  7103 ;;		line 80 in file "car_black_box.c"
  7104 ;; Parameters:    Size  Location     Type
  7105 ;;  event           1    wreg     PTR unsigned char 
  7106 ;;		 -> main@event(3), 
  7107 ;;  speed           1   12[BANK0 ] unsigned char 
  7108 ;; Auto vars:     Size  Location     Type
  7109 ;;  event           1   15[BANK0 ] PTR unsigned char 
  7110 ;;		 -> main@event(3), 
  7111 ;; Return value:  Size  Location     Type
  7112 ;;                  1    wreg      void 
  7113 ;; Registers used:
  7114 ;;		wreg, fsr0l, fsr0h, status,2, status,0, btemp+1, pclath, cstack
  7115 ;; Tracked objects:
  7116 ;;		On entry : 0/0
  7117 ;;		On exit  : 0/0
  7118 ;;		Unchanged: 0/0
  7119 ;; Data sizes:     COMMON   BANK0   BANK1   BANK3   BANK2
  7120 ;;      Params:         0       1       0       0       0
  7121 ;;      Locals:         0       1       0       0       0
  7122 ;;      Temps:          0       2       0       0       0
  7123 ;;      Totals:         0       4       0       0       0
  7124 ;;Total ram usage:        4 bytes
  7125 ;; Hardware stack levels used: 1
  7126 ;; Hardware stack levels required when called: 7
  7127 ;; This function calls:
  7128 ;;		___awdiv
  7129 ;;		___awmod
  7130 ;;		_clcd_print
  7131 ;;		_clcd_putch
  7132 ;;		_display_time
  7133 ;; This function is called by:
  7134 ;;		_main
  7135 ;; This function uses a non-reentrant model
  7136 ;;
  7137                           
  7138     1639                     _display_dashboard:	
  7139                           ;psect for function _display_dashboard
  7140                           
  7141                           
  7142                           ;incstack = 0
  7143                           ; Regs used in _display_dashboard: [wreg-fsr0h+status,2+status,0+btemp+1+pclath+cstack]
  7144                           ;display_dashboard@event stored from wreg
  7145     1639  1283               	bcf	3,5	;RP0=0, select bank0
  7146     163A  1303               	bcf	3,6	;RP1=0, select bank0
  7147     163B  00D4               	movwf	display_dashboard@event
  7148     163C                     l4870:
  7149                           
  7150                           ;car_black_box.c: 80: void display_dashboard(unsigned char event[], unsigned char speed)
      +                          ;car_black_box.c: 81: {;car_black_box.c: 82:     clcd_print("  TIME     E  SP", (0x80 + 
      +                          0));
  7151     163C  307B               	movlw	low (STR_22| (0+32768))
  7152     163D  00F6               	movwf	clcd_print@str
  7153     163E  3087               	movlw	high (STR_22| (0+32768))
  7154     163F  00F7               	movwf	clcd_print@str+1
  7155     1640  3080               	movlw	128
  7156     1641  00F8               	movwf	clcd_print@addr
  7157     1642  160A  118A  231D  160A  118A  	fcall	_clcd_print
  7158     1647                     l4872:
  7159                           
  7160                           ;car_black_box.c: 85:     display_time();
  7161     1647  160A  118A  25E3  160A  118A  	fcall	_display_time
  7162     164C                     l4874:
  7163                           
  7164                           ;car_black_box.c: 88:     clcd_print(event, (0xC0 + 11));
  7165     164C  1283               	bcf	3,5	;RP0=0, select bank0
  7166     164D  1303               	bcf	3,6	;RP1=0, select bank0
  7167     164E  0854               	movf	display_dashboard@event,w
  7168     164F  00F6               	movwf	clcd_print@str
  7169     1650  3000               	movlw	0
  7170     1651  00F7               	movwf	clcd_print@str+1
  7171     1652  30CB               	movlw	203
  7172     1653  00F8               	movwf	clcd_print@addr
  7173     1654  160A  118A  231D  160A  118A  	fcall	_clcd_print
  7174                           
  7175                           ;car_black_box.c: 91:     clcd_putch(speed / 10 + '0', (0xC0 + 14));
  7176     1659  30CE               	movlw	206
  7177     165A  1283               	bcf	3,5	;RP0=0, select bank0
  7178     165B  1303               	bcf	3,6	;RP1=0, select bank0
  7179     165C  00CF               	movwf	clcd_putch@addr
  7180     165D  300A               	movlw	10
  7181     165E  00F2               	movwf	___awdiv@divisor
  7182     165F  3000               	movlw	0
  7183     1660  00F3               	movwf	___awdiv@divisor+1
  7184     1661  0851               	movf	display_dashboard@speed,w
  7185     1662  00D2               	movwf	??_display_dashboard
  7186     1663  01D3               	clrf	??_display_dashboard+1
  7187     1664  0852               	movf	??_display_dashboard,w
  7188     1665  00F4               	movwf	___awdiv@dividend
  7189     1666  0853               	movf	??_display_dashboard+1,w
  7190     1667  00F5               	movwf	___awdiv@dividend+1
  7191     1668  120A  118A  2690  160A  118A  	fcall	___awdiv
  7192     166D  0872               	movf	?___awdiv,w
  7193     166E  3E30               	addlw	48
  7194     166F  160A  118A  218A  160A  118A  	fcall	_clcd_putch
  7195                           
  7196                           ;car_black_box.c: 92:     clcd_putch(speed % 10 + '0', (0xC0 + 15));
  7197     1674  30CF               	movlw	207
  7198     1675  1283               	bcf	3,5	;RP0=0, select bank0
  7199     1676  1303               	bcf	3,6	;RP1=0, select bank0
  7200     1677  00CF               	movwf	clcd_putch@addr
  7201     1678  300A               	movlw	10
  7202     1679  00F2               	movwf	___awmod@divisor
  7203     167A  3000               	movlw	0
  7204     167B  00F3               	movwf	___awmod@divisor+1
  7205     167C  0851               	movf	display_dashboard@speed,w
  7206     167D  00D2               	movwf	??_display_dashboard
  7207     167E  01D3               	clrf	??_display_dashboard+1
  7208     167F  0852               	movf	??_display_dashboard,w
  7209     1680  00F4               	movwf	___awmod@dividend
  7210     1681  0853               	movf	??_display_dashboard+1,w
  7211     1682  00F5               	movwf	___awmod@dividend+1
  7212     1683  160A  118A  273F  160A  118A  	fcall	___awmod
  7213     1688  0872               	movf	?___awmod,w
  7214     1689  3E30               	addlw	48
  7215     168A  160A  118A  218A  160A  118A  	fcall	_clcd_putch
  7216     168F                     l299:
  7217     168F  0008               	return
  7218     1690                     __end_of_display_dashboard:
  7219                           
  7220                           	psect	text26
  7221     15E3                     __ptext26:	
  7222 ;; *************** function _display_time *****************
  7223 ;; Defined at:
  7224 ;;		line 55 in file "car_black_box.c"
  7225 ;; Parameters:    Size  Location     Type
  7226 ;;		None
  7227 ;; Auto vars:     Size  Location     Type
  7228 ;;		None
  7229 ;; Return value:  Size  Location     Type
  7230 ;;                  1    wreg      void 
  7231 ;; Registers used:
  7232 ;;		wreg, status,2, status,0, pclath, cstack
  7233 ;; Tracked objects:
  7234 ;;		On entry : 0/0
  7235 ;;		On exit  : 0/0
  7236 ;;		Unchanged: 0/0
  7237 ;; Data sizes:     COMMON   BANK0   BANK1   BANK3   BANK2
  7238 ;;      Params:         0       0       0       0       0
  7239 ;;      Locals:         0       0       0       0       0
  7240 ;;      Temps:          0       0       0       0       0
  7241 ;;      Totals:         0       0       0       0       0
  7242 ;;Total ram usage:        0 bytes
  7243 ;; Hardware stack levels used: 1
  7244 ;; Hardware stack levels required when called: 6
  7245 ;; This function calls:
  7246 ;;		_clcd_putch
  7247 ;;		_get_time
  7248 ;; This function is called by:
  7249 ;;		_display_dashboard
  7250 ;; This function uses a non-reentrant model
  7251 ;;
  7252                           
  7253     15E3                     _display_time:	
  7254                           ;psect for function _display_time
  7255                           
  7256     15E3                     l4484:	
  7257                           ;incstack = 0
  7258                           ; Regs used in _display_time: [wreg+status,2+status,0+pclath+cstack]
  7259                           
  7260                           
  7261                           ;car_black_box.c: 57:     get_time();
  7262     15E3  160A  118A  2596  160A  118A  	fcall	_get_time
  7263                           
  7264                           ;car_black_box.c: 62:     clcd_putch(time[0], (0xC0 + 2));
  7265     15E8  30C2               	movlw	194
  7266     15E9  1283               	bcf	3,5	;RP0=0, select bank0
  7267     15EA  1303               	bcf	3,6	;RP1=0, select bank0
  7268     15EB  00CF               	movwf	clcd_putch@addr
  7269     15EC  083E               	movf	_time,w
  7270     15ED  160A  118A  218A  160A  118A  	fcall	_clcd_putch
  7271                           
  7272                           ;car_black_box.c: 63:     clcd_putch(time[1], (0xC0 + 3));
  7273     15F2  30C3               	movlw	195
  7274     15F3  1283               	bcf	3,5	;RP0=0, select bank0
  7275     15F4  1303               	bcf	3,6	;RP1=0, select bank0
  7276     15F5  00CF               	movwf	clcd_putch@addr
  7277     15F6  083F               	movf	_time+1,w
  7278     15F7  160A  118A  218A  160A  118A  	fcall	_clcd_putch
  7279                           
  7280                           ;car_black_box.c: 64:     clcd_putch(':', (0xC0 + 4));
  7281     15FC  30C4               	movlw	196
  7282     15FD  1283               	bcf	3,5	;RP0=0, select bank0
  7283     15FE  1303               	bcf	3,6	;RP1=0, select bank0
  7284     15FF  00CF               	movwf	clcd_putch@addr
  7285     1600  303A               	movlw	58
  7286     1601  160A  118A  218A  160A  118A  	fcall	_clcd_putch
  7287                           
  7288                           ;car_black_box.c: 67:     clcd_putch(time[2], (0xC0 + 5));
  7289     1606  30C5               	movlw	197
  7290     1607  1283               	bcf	3,5	;RP0=0, select bank0
  7291     1608  1303               	bcf	3,6	;RP1=0, select bank0
  7292     1609  00CF               	movwf	clcd_putch@addr
  7293     160A  0840               	movf	_time+2,w
  7294     160B  160A  118A  218A  160A  118A  	fcall	_clcd_putch
  7295                           
  7296                           ;car_black_box.c: 68:     clcd_putch(time[3], (0xC0 + 6));
  7297     1610  30C6               	movlw	198
  7298     1611  1283               	bcf	3,5	;RP0=0, select bank0
  7299     1612  1303               	bcf	3,6	;RP1=0, select bank0
  7300     1613  00CF               	movwf	clcd_putch@addr
  7301     1614  0841               	movf	_time+3,w
  7302     1615  160A  118A  218A  160A  118A  	fcall	_clcd_putch
  7303                           
  7304                           ;car_black_box.c: 69:     clcd_putch(':', (0xC0 + 7));
  7305     161A  30C7               	movlw	199
  7306     161B  1283               	bcf	3,5	;RP0=0, select bank0
  7307     161C  1303               	bcf	3,6	;RP1=0, select bank0
  7308     161D  00CF               	movwf	clcd_putch@addr
  7309     161E  303A               	movlw	58
  7310     161F  160A  118A  218A  160A  118A  	fcall	_clcd_putch
  7311                           
  7312                           ;car_black_box.c: 72:     clcd_putch(time[4], (0xC0 + 8));
  7313     1624  30C8               	movlw	200
  7314     1625  1283               	bcf	3,5	;RP0=0, select bank0
  7315     1626  1303               	bcf	3,6	;RP1=0, select bank0
  7316     1627  00CF               	movwf	clcd_putch@addr
  7317     1628  0842               	movf	_time+4,w
  7318     1629  160A  118A  218A  160A  118A  	fcall	_clcd_putch
  7319                           
  7320                           ;car_black_box.c: 73:     clcd_putch(time[5], (0xC0 + 9));
  7321     162E  30C9               	movlw	201
  7322     162F  1283               	bcf	3,5	;RP0=0, select bank0
  7323     1630  1303               	bcf	3,6	;RP1=0, select bank0
  7324     1631  00CF               	movwf	clcd_putch@addr
  7325     1632  0843               	movf	_time+5,w
  7326     1633  160A  118A  218A  160A  118A  	fcall	_clcd_putch
  7327     1638                     l296:
  7328     1638  0008               	return
  7329     1639                     __end_of_display_time:
  7330                           
  7331                           	psect	text27
  7332     173F                     __ptext27:	
  7333 ;; *************** function ___awmod *****************
  7334 ;; Defined at:
  7335 ;;		line 5 in file "C:\Program Files\Microchip\xc8\v2.40\pic\sources\c90\common\awmod.c"
  7336 ;; Parameters:    Size  Location     Type
  7337 ;;  divisor         2    2[COMMON] int 
  7338 ;;  dividend        2    4[COMMON] int 
  7339 ;; Auto vars:     Size  Location     Type
  7340 ;;  sign            1    8[COMMON] unsigned char 
  7341 ;;  counter         1    7[COMMON] unsigned char 
  7342 ;; Return value:  Size  Location     Type
  7343 ;;                  2    2[COMMON] int 
  7344 ;; Registers used:
  7345 ;;		wreg, status,2, status,0
  7346 ;; Tracked objects:
  7347 ;;		On entry : 0/0
  7348 ;;		On exit  : 0/0
  7349 ;;		Unchanged: 0/0
  7350 ;; Data sizes:     COMMON   BANK0   BANK1   BANK3   BANK2
  7351 ;;      Params:         4       0       0       0       0
  7352 ;;      Locals:         2       0       0       0       0
  7353 ;;      Temps:          1       0       0       0       0
  7354 ;;      Totals:         7       0       0       0       0
  7355 ;;Total ram usage:        7 bytes
  7356 ;; Hardware stack levels used: 1
  7357 ;; Hardware stack levels required when called: 1
  7358 ;; This function calls:
  7359 ;;		Nothing
  7360 ;; This function is called by:
  7361 ;;		_display_dashboard
  7362 ;;		_log_car_event
  7363 ;; This function uses a non-reentrant model
  7364 ;;
  7365                           
  7366     173F                     ___awmod:	
  7367                           ;psect for function ___awmod
  7368                           
  7369     173F                     l4618:	
  7370                           ;incstack = 0
  7371                           ; Regs used in ___awmod: [wreg+status,2+status,0]
  7372                           
  7373     173F  01F8               	clrf	___awmod@sign
  7374     1740                     l4620:
  7375     1740  1FF5               	btfss	___awmod@dividend+1,7
  7376     1741  2F43               	goto	u3721
  7377     1742  2F44               	goto	u3720
  7378     1743                     u3721:
  7379     1743  2F4B               	goto	l4626
  7380     1744                     u3720:
  7381     1744                     l4622:
  7382     1744  09F4               	comf	___awmod@dividend,f
  7383     1745  09F5               	comf	___awmod@dividend+1,f
  7384     1746  0AF4               	incf	___awmod@dividend,f
  7385     1747  1903               	skipnz
  7386     1748  0AF5               	incf	___awmod@dividend+1,f
  7387     1749                     l4624:
  7388     1749  01F8               	clrf	___awmod@sign
  7389     174A  0AF8               	incf	___awmod@sign,f
  7390     174B                     l4626:
  7391     174B  1FF3               	btfss	___awmod@divisor+1,7
  7392     174C  2F4E               	goto	u3731
  7393     174D  2F4F               	goto	u3730
  7394     174E                     u3731:
  7395     174E  2F54               	goto	l4630
  7396     174F                     u3730:
  7397     174F                     l4628:
  7398     174F  09F2               	comf	___awmod@divisor,f
  7399     1750  09F3               	comf	___awmod@divisor+1,f
  7400     1751  0AF2               	incf	___awmod@divisor,f
  7401     1752  1903               	skipnz
  7402     1753  0AF3               	incf	___awmod@divisor+1,f
  7403     1754                     l4630:
  7404     1754  0872               	movf	___awmod@divisor,w
  7405     1755  0473               	iorwf	___awmod@divisor+1,w
  7406     1756  1903               	btfsc	3,2
  7407     1757  2F59               	goto	u3741
  7408     1758  2F5A               	goto	u3740
  7409     1759                     u3741:
  7410     1759  2F89               	goto	l4648
  7411     175A                     u3740:
  7412     175A                     l4632:
  7413     175A  01F7               	clrf	___awmod@counter
  7414     175B  0AF7               	incf	___awmod@counter,f
  7415     175C  2F68               	goto	l4638
  7416     175D                     l4634:
  7417     175D  3001               	movlw	1
  7418     175E                     u3755:
  7419     175E  1003               	clrc
  7420     175F  0DF2               	rlf	___awmod@divisor,f
  7421     1760  0DF3               	rlf	___awmod@divisor+1,f
  7422     1761  3EFF               	addlw	-1
  7423     1762  1D03               	skipz
  7424     1763  2F5E               	goto	u3755
  7425     1764                     l4636:
  7426     1764  3001               	movlw	1
  7427     1765  00F6               	movwf	??___awmod
  7428     1766  0876               	movf	??___awmod,w
  7429     1767  07F7               	addwf	___awmod@counter,f
  7430     1768                     l4638:
  7431     1768  1FF3               	btfss	___awmod@divisor+1,7
  7432     1769  2F6B               	goto	u3761
  7433     176A  2F6C               	goto	u3760
  7434     176B                     u3761:
  7435     176B  2F5D               	goto	l4634
  7436     176C                     u3760:
  7437     176C                     l4640:
  7438     176C  0873               	movf	___awmod@divisor+1,w
  7439     176D  0275               	subwf	___awmod@dividend+1,w
  7440     176E  1D03               	skipz
  7441     176F  2F72               	goto	u3775
  7442     1770  0872               	movf	___awmod@divisor,w
  7443     1771  0274               	subwf	___awmod@dividend,w
  7444     1772                     u3775:
  7445     1772  1C03               	skipc
  7446     1773  2F75               	goto	u3771
  7447     1774  2F76               	goto	u3770
  7448     1775                     u3771:
  7449     1775  2F7C               	goto	l4644
  7450     1776                     u3770:
  7451     1776                     l4642:
  7452     1776  0872               	movf	___awmod@divisor,w
  7453     1777  02F4               	subwf	___awmod@dividend,f
  7454     1778  0873               	movf	___awmod@divisor+1,w
  7455     1779  1C03               	skipc
  7456     177A  03F5               	decf	___awmod@dividend+1,f
  7457     177B  02F5               	subwf	___awmod@dividend+1,f
  7458     177C                     l4644:
  7459     177C  3001               	movlw	1
  7460     177D                     u3785:
  7461     177D  1003               	clrc
  7462     177E  0CF3               	rrf	___awmod@divisor+1,f
  7463     177F  0CF2               	rrf	___awmod@divisor,f
  7464     1780  3EFF               	addlw	-1
  7465     1781  1D03               	skipz
  7466     1782  2F7D               	goto	u3785
  7467     1783                     l4646:
  7468     1783  3001               	movlw	1
  7469     1784  02F7               	subwf	___awmod@counter,f
  7470     1785  1D03               	btfss	3,2
  7471     1786  2F88               	goto	u3791
  7472     1787  2F89               	goto	u3790
  7473     1788                     u3791:
  7474     1788  2F6C               	goto	l4640
  7475     1789                     u3790:
  7476     1789                     l4648:
  7477     1789  0878               	movf	___awmod@sign,w
  7478     178A  1903               	btfsc	3,2
  7479     178B  2F8D               	goto	u3801
  7480     178C  2F8E               	goto	u3800
  7481     178D                     u3801:
  7482     178D  2F93               	goto	l4652
  7483     178E                     u3800:
  7484     178E                     l4650:
  7485     178E  09F4               	comf	___awmod@dividend,f
  7486     178F  09F5               	comf	___awmod@dividend+1,f
  7487     1790  0AF4               	incf	___awmod@dividend,f
  7488     1791  1903               	skipnz
  7489     1792  0AF5               	incf	___awmod@dividend+1,f
  7490     1793                     l4652:
  7491     1793  0875               	movf	___awmod@dividend+1,w
  7492     1794  00F3               	movwf	?___awmod+1
  7493     1795  0874               	movf	___awmod@dividend,w
  7494     1796  00F2               	movwf	?___awmod
  7495     1797                     l803:
  7496     1797  0008               	return
  7497     1798                     __end_of___awmod:
  7498                           
  7499                           	psect	text28
  7500     0690                     __ptext28:	
  7501 ;; *************** function ___awdiv *****************
  7502 ;; Defined at:
  7503 ;;		line 5 in file "C:\Program Files\Microchip\xc8\v2.40\pic\sources\c90\common\awdiv.c"
  7504 ;; Parameters:    Size  Location     Type
  7505 ;;  divisor         2    2[COMMON] int 
  7506 ;;  dividend        2    4[COMMON] int 
  7507 ;; Auto vars:     Size  Location     Type
  7508 ;;  quotient        2    2[BANK0 ] int 
  7509 ;;  sign            1    1[BANK0 ] unsigned char 
  7510 ;;  counter         1    0[BANK0 ] unsigned char 
  7511 ;; Return value:  Size  Location     Type
  7512 ;;                  2    2[COMMON] int 
  7513 ;; Registers used:
  7514 ;;		wreg, status,2, status,0
  7515 ;; Tracked objects:
  7516 ;;		On entry : 0/0
  7517 ;;		On exit  : 0/0
  7518 ;;		Unchanged: 0/0
  7519 ;; Data sizes:     COMMON   BANK0   BANK1   BANK3   BANK2
  7520 ;;      Params:         4       0       0       0       0
  7521 ;;      Locals:         0       4       0       0       0
  7522 ;;      Temps:          1       0       0       0       0
  7523 ;;      Totals:         5       4       0       0       0
  7524 ;;Total ram usage:        9 bytes
  7525 ;; Hardware stack levels used: 1
  7526 ;; Hardware stack levels required when called: 1
  7527 ;; This function calls:
  7528 ;;		Nothing
  7529 ;; This function is called by:
  7530 ;;		_display_dashboard
  7531 ;;		_log_car_event
  7532 ;; This function uses a non-reentrant model
  7533 ;;
  7534                           
  7535     0690                     ___awdiv:	
  7536                           ;psect for function ___awdiv
  7537                           
  7538     0690                     l4574:	
  7539                           ;incstack = 0
  7540                           ; Regs used in ___awdiv: [wreg+status,2+status,0]
  7541                           
  7542     0690  1283               	bcf	3,5	;RP0=0, select bank0
  7543     0691  1303               	bcf	3,6	;RP1=0, select bank0
  7544     0692  01C6               	clrf	___awdiv@sign
  7545     0693                     l4576:
  7546     0693  1FF3               	btfss	___awdiv@divisor+1,7
  7547     0694  2E96               	goto	u3621
  7548     0695  2E97               	goto	u3620
  7549     0696                     u3621:
  7550     0696  2E9E               	goto	l4582
  7551     0697                     u3620:
  7552     0697                     l4578:
  7553     0697  09F2               	comf	___awdiv@divisor,f
  7554     0698  09F3               	comf	___awdiv@divisor+1,f
  7555     0699  0AF2               	incf	___awdiv@divisor,f
  7556     069A  1903               	skipnz
  7557     069B  0AF3               	incf	___awdiv@divisor+1,f
  7558     069C                     l4580:
  7559     069C  01C6               	clrf	___awdiv@sign
  7560     069D  0AC6               	incf	___awdiv@sign,f
  7561     069E                     l4582:
  7562     069E  1FF5               	btfss	___awdiv@dividend+1,7
  7563     069F  2EA1               	goto	u3631
  7564     06A0  2EA2               	goto	u3630
  7565     06A1                     u3631:
  7566     06A1  2EAB               	goto	l4588
  7567     06A2                     u3630:
  7568     06A2                     l4584:
  7569     06A2  09F4               	comf	___awdiv@dividend,f
  7570     06A3  09F5               	comf	___awdiv@dividend+1,f
  7571     06A4  0AF4               	incf	___awdiv@dividend,f
  7572     06A5  1903               	skipnz
  7573     06A6  0AF5               	incf	___awdiv@dividend+1,f
  7574     06A7                     l4586:
  7575     06A7  3001               	movlw	1
  7576     06A8  00F6               	movwf	??___awdiv
  7577     06A9  0876               	movf	??___awdiv,w
  7578     06AA  06C6               	xorwf	___awdiv@sign,f
  7579     06AB                     l4588:
  7580     06AB  01C7               	clrf	___awdiv@quotient
  7581     06AC  01C8               	clrf	___awdiv@quotient+1
  7582     06AD                     l4590:
  7583     06AD  0872               	movf	___awdiv@divisor,w
  7584     06AE  0473               	iorwf	___awdiv@divisor+1,w
  7585     06AF  1903               	btfsc	3,2
  7586     06B0  2EB2               	goto	u3641
  7587     06B1  2EB3               	goto	u3640
  7588     06B2                     u3641:
  7589     06B2  2EEA               	goto	l4610
  7590     06B3                     u3640:
  7591     06B3                     l4592:
  7592     06B3  01C5               	clrf	___awdiv@counter
  7593     06B4  0AC5               	incf	___awdiv@counter,f
  7594     06B5  2EC1               	goto	l4598
  7595     06B6                     l4594:
  7596     06B6  3001               	movlw	1
  7597     06B7                     u3655:
  7598     06B7  1003               	clrc
  7599     06B8  0DF2               	rlf	___awdiv@divisor,f
  7600     06B9  0DF3               	rlf	___awdiv@divisor+1,f
  7601     06BA  3EFF               	addlw	-1
  7602     06BB  1D03               	skipz
  7603     06BC  2EB7               	goto	u3655
  7604     06BD                     l4596:
  7605     06BD  3001               	movlw	1
  7606     06BE  00F6               	movwf	??___awdiv
  7607     06BF  0876               	movf	??___awdiv,w
  7608     06C0  07C5               	addwf	___awdiv@counter,f
  7609     06C1                     l4598:
  7610     06C1  1FF3               	btfss	___awdiv@divisor+1,7
  7611     06C2  2EC4               	goto	u3661
  7612     06C3  2EC5               	goto	u3660
  7613     06C4                     u3661:
  7614     06C4  2EB6               	goto	l4594
  7615     06C5                     u3660:
  7616     06C5                     l4600:
  7617     06C5  3001               	movlw	1
  7618     06C6                     u3675:
  7619     06C6  1003               	clrc
  7620     06C7  0DC7               	rlf	___awdiv@quotient,f
  7621     06C8  0DC8               	rlf	___awdiv@quotient+1,f
  7622     06C9  3EFF               	addlw	-1
  7623     06CA  1D03               	skipz
  7624     06CB  2EC6               	goto	u3675
  7625     06CC  0873               	movf	___awdiv@divisor+1,w
  7626     06CD  0275               	subwf	___awdiv@dividend+1,w
  7627     06CE  1D03               	skipz
  7628     06CF  2ED2               	goto	u3685
  7629     06D0  0872               	movf	___awdiv@divisor,w
  7630     06D1  0274               	subwf	___awdiv@dividend,w
  7631     06D2                     u3685:
  7632     06D2  1C03               	skipc
  7633     06D3  2ED5               	goto	u3681
  7634     06D4  2ED6               	goto	u3680
  7635     06D5                     u3681:
  7636     06D5  2EDD               	goto	l4606
  7637     06D6                     u3680:
  7638     06D6                     l4602:
  7639     06D6  0872               	movf	___awdiv@divisor,w
  7640     06D7  02F4               	subwf	___awdiv@dividend,f
  7641     06D8  0873               	movf	___awdiv@divisor+1,w
  7642     06D9  1C03               	skipc
  7643     06DA  03F5               	decf	___awdiv@dividend+1,f
  7644     06DB  02F5               	subwf	___awdiv@dividend+1,f
  7645     06DC                     l4604:
  7646     06DC  1447               	bsf	___awdiv@quotient,0
  7647     06DD                     l4606:
  7648     06DD  3001               	movlw	1
  7649     06DE                     u3695:
  7650     06DE  1003               	clrc
  7651     06DF  0CF3               	rrf	___awdiv@divisor+1,f
  7652     06E0  0CF2               	rrf	___awdiv@divisor,f
  7653     06E1  3EFF               	addlw	-1
  7654     06E2  1D03               	skipz
  7655     06E3  2EDE               	goto	u3695
  7656     06E4                     l4608:
  7657     06E4  3001               	movlw	1
  7658     06E5  02C5               	subwf	___awdiv@counter,f
  7659     06E6  1D03               	btfss	3,2
  7660     06E7  2EE9               	goto	u3701
  7661     06E8  2EEA               	goto	u3700
  7662     06E9                     u3701:
  7663     06E9  2EC5               	goto	l4600
  7664     06EA                     u3700:
  7665     06EA                     l4610:
  7666     06EA  0846               	movf	___awdiv@sign,w
  7667     06EB  1903               	btfsc	3,2
  7668     06EC  2EEE               	goto	u3711
  7669     06ED  2EEF               	goto	u3710
  7670     06EE                     u3711:
  7671     06EE  2EF4               	goto	l4614
  7672     06EF                     u3710:
  7673     06EF                     l4612:
  7674     06EF  09C7               	comf	___awdiv@quotient,f
  7675     06F0  09C8               	comf	___awdiv@quotient+1,f
  7676     06F1  0AC7               	incf	___awdiv@quotient,f
  7677     06F2  1903               	skipnz
  7678     06F3  0AC8               	incf	___awdiv@quotient+1,f
  7679     06F4                     l4614:
  7680     06F4  0848               	movf	___awdiv@quotient+1,w
  7681     06F5  00F3               	movwf	?___awdiv+1
  7682     06F6  0847               	movf	___awdiv@quotient,w
  7683     06F7  00F2               	movwf	?___awdiv
  7684     06F8                     l790:
  7685     06F8  0008               	return
  7686     06F9                     __end_of___awdiv:
  7687                           
  7688                           	psect	text29
  7689     12C7                     __ptext29:	
  7690 ;; *************** function _clear_log *****************
  7691 ;; Defined at:
  7692 ;;		line 419 in file "car_black_box.c"
  7693 ;; Parameters:    Size  Location     Type
  7694 ;;  reset_memory    1    wreg     unsigned char 
  7695 ;; Auto vars:     Size  Location     Type
  7696 ;;  reset_memory    1    9[COMMON] unsigned char 
  7697 ;; Return value:  Size  Location     Type
  7698 ;;                  1    wreg      unsigned char 
  7699 ;; Registers used:
  7700 ;;		wreg, fsr0l, fsr0h, status,2, status,0, btemp+1, pclath, cstack
  7701 ;; Tracked objects:
  7702 ;;		On entry : 0/0
  7703 ;;		On exit  : 0/0
  7704 ;;		Unchanged: 0/0
  7705 ;; Data sizes:     COMMON   BANK0   BANK1   BANK3   BANK2
  7706 ;;      Params:         0       0       0       0       0
  7707 ;;      Locals:         1       0       0       0       0
  7708 ;;      Temps:          0       0       0       0       0
  7709 ;;      Totals:         1       0       0       0       0
  7710 ;;Total ram usage:        1 bytes
  7711 ;; Hardware stack levels used: 1
  7712 ;; Hardware stack levels required when called: 3
  7713 ;; This function calls:
  7714 ;;		_clcd_print
  7715 ;; This function is called by:
  7716 ;;		_main
  7717 ;; This function uses a non-reentrant model
  7718 ;;
  7719                           
  7720     12C7                     _clear_log:	
  7721                           ;psect for function _clear_log
  7722                           
  7723                           
  7724                           ;incstack = 0
  7725                           ; Regs used in _clear_log: [wreg-fsr0h+status,2+status,0+btemp+1+pclath+cstack]
  7726                           ;clear_log@reset_memory stored from wreg
  7727     12C7  00F9               	movwf	clear_log@reset_memory
  7728     12C8                     l5090:
  7729                           
  7730                           ;car_black_box.c: 419: char clear_log(char reset_memory);car_black_box.c: 420: {;car_bla
      +                          ck_box.c: 421:     clcd_print("Logs cleared", (0x80 + 2));
  7731     12C8  306F               	movlw	low (STR_32| (0+32768))
  7732     12C9  00F6               	movwf	clcd_print@str
  7733     12CA  3088               	movlw	high (STR_32| (0+32768))
  7734     12CB  00F7               	movwf	clcd_print@str+1
  7735     12CC  3082               	movlw	130
  7736     12CD  00F8               	movwf	clcd_print@addr
  7737     12CE  160A  118A  231D  160A  118A  	fcall	_clcd_print
  7738                           
  7739                           ;car_black_box.c: 422:     clcd_print("successfully", (0xC0 + 2));
  7740     12D3  3096               	movlw	low (STR_33| (0+32768))
  7741     12D4  00F6               	movwf	clcd_print@str
  7742     12D5  3088               	movlw	high (STR_33| (0+32768))
  7743     12D6  00F7               	movwf	clcd_print@str+1
  7744     12D7  30C2               	movlw	194
  7745     12D8  00F8               	movwf	clcd_print@addr
  7746     12D9  160A  118A  231D  160A  118A  	fcall	_clcd_print
  7747     12DE                     l5092:
  7748                           
  7749                           ;car_black_box.c: 425:     if (reset_memory == 0x40)
  7750     12DE  3040               	movlw	64
  7751     12DF  0679               	xorwf	clear_log@reset_memory,w
  7752     12E0  1D03               	btfss	3,2
  7753     12E1  2AE3               	goto	u4381
  7754     12E2  2AE4               	goto	u4380
  7755     12E3                     u4381:
  7756     12E3  2AF0               	goto	l5098
  7757     12E4                     u4380:
  7758     12E4                     l5094:
  7759                           
  7760                           ;car_black_box.c: 426:     {;car_black_box.c: 428:         pos = -1;
  7761     12E4  30FF               	movlw	255
  7762     12E5  1283               	bcf	3,5	;RP0=0, select bank0
  7763     12E6  1303               	bcf	3,6	;RP1=0, select bank0
  7764     12E7  00EA               	movwf	_pos
  7765     12E8  30FF               	movlw	255
  7766     12E9  00EB               	movwf	_pos+1
  7767                           
  7768                           ;car_black_box.c: 429:         event_count = -1;
  7769     12EA  30FF               	movlw	255
  7770     12EB  00E8               	movwf	_event_count
  7771     12EC  30FF               	movlw	255
  7772     12ED  00E9               	movwf	_event_count+1
  7773                           
  7774                           ;car_black_box.c: 431:         return 0x0C;
  7775     12EE  300C               	movlw	12
  7776     12EF  2AF1               	goto	l364
  7777     12F0                     l5098:
  7778                           
  7779                           ;car_black_box.c: 434:     return 0x0D;
  7780     12F0  300D               	movlw	13
  7781     12F1                     l364:
  7782     12F1  0008               	return
  7783     12F2                     __end_of_clear_log:
  7784                           
  7785                           	psect	text30
  7786     03BE                     __ptext30:	
  7787 ;; *************** function _change_time *****************
  7788 ;; Defined at:
  7789 ;;		line 640 in file "car_black_box.c"
  7790 ;; Parameters:    Size  Location     Type
  7791 ;;  key             1    wreg     unsigned char 
  7792 ;;  reset_time      1   12[BANK0 ] unsigned char 
  7793 ;; Auto vars:     Size  Location     Type
  7794 ;;  key             1   16[BANK0 ] unsigned char 
  7795 ;;  buffer          1   17[BANK0 ] unsigned char 
  7796 ;; Return value:  Size  Location     Type
  7797 ;;                  1    wreg      unsigned char 
  7798 ;; Registers used:
  7799 ;;		wreg, fsr0l, fsr0h, status,2, status,0, btemp+1, pclath, cstack
  7800 ;; Tracked objects:
  7801 ;;		On entry : 0/0
  7802 ;;		On exit  : 0/0
  7803 ;;		Unchanged: 0/0
  7804 ;; Data sizes:     COMMON   BANK0   BANK1   BANK3   BANK2
  7805 ;;      Params:         0       1       0       0       0
  7806 ;;      Locals:         0       2       0       0       0
  7807 ;;      Temps:          0       3       0       0       0
  7808 ;;      Totals:         0       6       0       0       0
  7809 ;;Total ram usage:        6 bytes
  7810 ;; Hardware stack levels used: 1
  7811 ;; Hardware stack levels required when called: 6
  7812 ;; This function calls:
  7813 ;;		___lwdiv
  7814 ;;		___lwmod
  7815 ;;		___wmul
  7816 ;;		_clcd_print
  7817 ;;		_clcd_putch
  7818 ;;		_clcd_write
  7819 ;;		_get_time
  7820 ;;		_write_ds1307
  7821 ;; This function is called by:
  7822 ;;		_main
  7823 ;; This function uses a non-reentrant model
  7824 ;;
  7825                           
  7826     03BE                     _change_time:	
  7827                           ;psect for function _change_time
  7828                           
  7829                           
  7830                           ;incstack = 0
  7831                           ; Regs used in _change_time: [wreg-fsr0h+status,2+status,0+btemp+1+pclath+cstack]
  7832                           ;change_time@key stored from wreg
  7833     03BE  1283               	bcf	3,5	;RP0=0, select bank0
  7834     03BF  1303               	bcf	3,6	;RP1=0, select bank0
  7835     03C0  00D5               	movwf	change_time@key
  7836     03C1                     l5228:
  7837                           
  7838                           ;car_black_box.c: 640: char change_time(unsigned char key, unsigned char reset_time);car
      +                          _black_box.c: 641: {;car_black_box.c: 642:     static unsigned int new_time[3];;car_blac
      +                          k_box.c: 643:     static unsigned int blink_pos;;car_black_box.c: 644:     static unsign
      +                          ed char wait;;car_black_box.c: 645:     static unsigned char blink;;car_black_box.c: 646
      +                          :     static char t_done = 0;;car_black_box.c: 647:     char buffer;;car_black_box.c: 65
      +                          1:     if (reset_time == 0x30)
  7839     03C1  3030               	movlw	48
  7840     03C2  0651               	xorwf	change_time@reset_time,w
  7841     03C3  1D03               	btfss	3,2
  7842     03C4  2BC6               	goto	u4541
  7843     03C5  2BC7               	goto	u4540
  7844     03C6                     u4541:
  7845     03C6  2C3E               	goto	l5244
  7846     03C7                     u4540:
  7847     03C7                     l5230:
  7848                           
  7849                           ;car_black_box.c: 652:     {;car_black_box.c: 653:         get_time();
  7850     03C7  160A  118A  2596  120A  118A  	fcall	_get_time
  7851                           
  7852                           ;car_black_box.c: 656:         new_time[0] = (time[0] & 0x0F) * 10 + (time[1] & 0x0F);
  7853     03CC  300F               	movlw	15
  7854     03CD  1283               	bcf	3,5	;RP0=0, select bank0
  7855     03CE  1303               	bcf	3,6	;RP1=0, select bank0
  7856     03CF  053F               	andwf	_time+1,w
  7857     03D0  00D2               	movwf	??_change_time
  7858     03D1  083E               	movf	_time,w
  7859     03D2  390F               	andlw	15
  7860     03D3  00D3               	movwf	??_change_time+1
  7861     03D4  01D4               	clrf	??_change_time+2
  7862     03D5  0853               	movf	??_change_time+1,w
  7863     03D6  00F2               	movwf	___wmul@multiplier
  7864     03D7  0854               	movf	??_change_time+2,w
  7865     03D8  00F3               	movwf	___wmul@multiplier+1
  7866     03D9  300A               	movlw	10
  7867     03DA  00F4               	movwf	___wmul@multiplicand
  7868     03DB  3000               	movlw	0
  7869     03DC  00F5               	movwf	___wmul@multiplicand+1
  7870     03DD  160A  118A  222C  120A  118A  	fcall	___wmul
  7871     03E2  1283               	bcf	3,5	;RP0=0, select bank0
  7872     03E3  1303               	bcf	3,6	;RP1=0, select bank0
  7873     03E4  0852               	movf	??_change_time,w
  7874     03E5  0772               	addwf	?___wmul,w
  7875     03E6  00A0               	movwf	change_time@new_time
  7876     03E7  3000               	movlw	0
  7877     03E8  1803               	skipnc
  7878     03E9  3001               	movlw	1
  7879     03EA  0773               	addwf	?___wmul+1,w
  7880     03EB  00A1               	movwf	change_time@new_time+1
  7881                           
  7882                           ;car_black_box.c: 659:         new_time[1] = (time[2] & 0x0F) * 10 + (time[3] & 0x0F);
  7883     03EC  300F               	movlw	15
  7884     03ED  0541               	andwf	_time+3,w
  7885     03EE  00D2               	movwf	??_change_time
  7886     03EF  0840               	movf	_time+2,w
  7887     03F0  390F               	andlw	15
  7888     03F1  00D3               	movwf	??_change_time+1
  7889     03F2  01D4               	clrf	??_change_time+2
  7890     03F3  0853               	movf	??_change_time+1,w
  7891     03F4  00F2               	movwf	___wmul@multiplier
  7892     03F5  0854               	movf	??_change_time+2,w
  7893     03F6  00F3               	movwf	___wmul@multiplier+1
  7894     03F7  300A               	movlw	10
  7895     03F8  00F4               	movwf	___wmul@multiplicand
  7896     03F9  3000               	movlw	0
  7897     03FA  00F5               	movwf	___wmul@multiplicand+1
  7898     03FB  160A  118A  222C  120A  118A  	fcall	___wmul
  7899     0400  1283               	bcf	3,5	;RP0=0, select bank0
  7900     0401  1303               	bcf	3,6	;RP1=0, select bank0
  7901     0402  0852               	movf	??_change_time,w
  7902     0403  0772               	addwf	?___wmul,w
  7903     0404  00A2               	movwf	change_time@new_time+2
  7904     0405  3000               	movlw	0
  7905     0406  1803               	skipnc
  7906     0407  3001               	movlw	1
  7907     0408  0773               	addwf	?___wmul+1,w
  7908     0409  00A3               	movwf	change_time@new_time+3
  7909                           
  7910                           ;car_black_box.c: 662:         new_time[2] = (time[4] & 0x0F) * 10 + (time[5] & 0x0F);
  7911     040A  300F               	movlw	15
  7912     040B  0543               	andwf	_time+5,w
  7913     040C  00D2               	movwf	??_change_time
  7914     040D  0842               	movf	_time+4,w
  7915     040E  390F               	andlw	15
  7916     040F  00D3               	movwf	??_change_time+1
  7917     0410  01D4               	clrf	??_change_time+2
  7918     0411  0853               	movf	??_change_time+1,w
  7919     0412  00F2               	movwf	___wmul@multiplier
  7920     0413  0854               	movf	??_change_time+2,w
  7921     0414  00F3               	movwf	___wmul@multiplier+1
  7922     0415  300A               	movlw	10
  7923     0416  00F4               	movwf	___wmul@multiplicand
  7924     0417  3000               	movlw	0
  7925     0418  00F5               	movwf	___wmul@multiplicand+1
  7926     0419  160A  118A  222C  120A  118A  	fcall	___wmul
  7927     041E  1283               	bcf	3,5	;RP0=0, select bank0
  7928     041F  1303               	bcf	3,6	;RP1=0, select bank0
  7929     0420  0852               	movf	??_change_time,w
  7930     0421  0772               	addwf	?___wmul,w
  7931     0422  00A4               	movwf	change_time@new_time+4
  7932     0423  3000               	movlw	0
  7933     0424  1803               	skipnc
  7934     0425  3001               	movlw	1
  7935     0426  0773               	addwf	?___wmul+1,w
  7936     0427  00A5               	movwf	change_time@new_time+5
  7937     0428                     l5232:
  7938                           
  7939                           ;car_black_box.c: 664:         clcd_print("Time (HH:MM:SS)", (0x80 + 0));
  7940     0428  3025               	movlw	low (STR_49| (0+32768))
  7941     0429  00F6               	movwf	clcd_print@str
  7942     042A  3088               	movlw	high (STR_49| (0+32768))
  7943     042B  00F7               	movwf	clcd_print@str+1
  7944     042C  3080               	movlw	128
  7945     042D  00F8               	movwf	clcd_print@addr
  7946     042E  160A  118A  231D  120A  118A  	fcall	_clcd_print
  7947     0433                     l5234:
  7948                           
  7949                           ;car_black_box.c: 667:         blink_pos = 2;
  7950     0433  3002               	movlw	2
  7951     0434  1283               	bcf	3,5	;RP0=0, select bank0
  7952     0435  1303               	bcf	3,6	;RP1=0, select bank0
  7953     0436  00AD               	movwf	change_time@blink_pos
  7954     0437  3000               	movlw	0
  7955     0438  00AE               	movwf	change_time@blink_pos+1
  7956     0439                     l5236:
  7957                           
  7958                           ;car_black_box.c: 668:         wait = 0;
  7959     0439  01B9               	clrf	change_time@wait
  7960     043A                     l5238:
  7961                           
  7962                           ;car_black_box.c: 669:         blink = 0;
  7963     043A  01B8               	clrf	change_time@blink
  7964     043B                     l5240:
  7965                           
  7966                           ;car_black_box.c: 670:         t_done = 0;
  7967     043B  01B7               	clrf	change_time@t_done
  7968     043C                     l5242:
  7969                           
  7970                           ;car_black_box.c: 671:         key = 0x3F;
  7971     043C  303F               	movlw	63
  7972     043D  00D5               	movwf	change_time@key
  7973     043E                     l5244:
  7974                           
  7975                           ;car_black_box.c: 676:     if (t_done)
  7976     043E  0837               	movf	change_time@t_done,w
  7977     043F  1903               	btfsc	3,2
  7978     0440  2C42               	goto	u4551
  7979     0441  2C43               	goto	u4550
  7980     0442                     u4551:
  7981     0442  2D54               	goto	l5284
  7982     0443                     u4550:
  7983     0443                     l5246:
  7984                           
  7985                           ;car_black_box.c: 677:         return 0x0D;
  7986     0443  300D               	movlw	13
  7987     0444  2E8F               	goto	l422
  7988     0445                     l5250:
  7989                           
  7990                           ;car_black_box.c: 684:             new_time[blink_pos]++;
  7991     0445  082D               	movf	change_time@blink_pos,w
  7992     0446  00D2               	movwf	??_change_time
  7993     0447  0752               	addwf	??_change_time,w
  7994     0448  3E20               	addlw	(low (change_time@new_time| 0))& (0+255)
  7995     0449  0084               	movwf	4
  7996     044A  3001               	movlw	1
  7997     044B  1383               	bcf	3,7	;select IRP bank0
  7998     044C  0780               	addwf	0,f
  7999     044D  0A84               	incf	4,f
  8000     044E  1803               	skipnc
  8001     044F  0A80               	incf	0,f
  8002                           
  8003                           ;car_black_box.c: 685:             break;
  8004     0450  2D67               	goto	l5286
  8005     0451                     l5252:
  8006                           
  8007                           ;car_black_box.c: 688:             blink_pos = (blink_pos + 1) % 3;
  8008     0451  3003               	movlw	3
  8009     0452  00C9               	movwf	___lwmod@divisor
  8010     0453  3000               	movlw	0
  8011     0454  00CA               	movwf	___lwmod@divisor+1
  8012     0455  082D               	movf	change_time@blink_pos,w
  8013     0456  3E01               	addlw	1
  8014     0457  00CB               	movwf	___lwmod@dividend
  8015     0458  082E               	movf	change_time@blink_pos+1,w
  8016     0459  1803               	skipnc
  8017     045A  3E01               	addlw	1
  8018     045B  3E00               	addlw	0
  8019     045C  00CC               	movwf	___lwmod@dividend+1
  8020     045D  160A  118A  244F  120A  118A  	fcall	___lwmod
  8021     0462  1283               	bcf	3,5	;RP0=0, select bank0
  8022     0463  1303               	bcf	3,6	;RP1=0, select bank0
  8023     0464  084A               	movf	?___lwmod+1,w
  8024     0465  00AE               	movwf	change_time@blink_pos+1
  8025     0466  0849               	movf	?___lwmod,w
  8026     0467  00AD               	movwf	change_time@blink_pos
  8027                           
  8028                           ;car_black_box.c: 689:             break;
  8029     0468  2D67               	goto	l5286
  8030     0469                     l5254:
  8031                           
  8032                           ;car_black_box.c: 693:             get_time();
  8033     0469  160A  118A  2596  120A  118A  	fcall	_get_time
  8034                           
  8035                           ;car_black_box.c: 695:             buffer = ((new_time[0] / 10) << 4) | new_time[0] % 10
      +                          ;
  8036     046E  300A               	movlw	10
  8037     046F  1283               	bcf	3,5	;RP0=0, select bank0
  8038     0470  1303               	bcf	3,6	;RP1=0, select bank0
  8039     0471  00C9               	movwf	___lwmod@divisor
  8040     0472  3000               	movlw	0
  8041     0473  00CA               	movwf	___lwmod@divisor+1
  8042     0474  0821               	movf	change_time@new_time+1,w
  8043     0475  00CC               	movwf	___lwmod@dividend+1
  8044     0476  0820               	movf	change_time@new_time,w
  8045     0477  00CB               	movwf	___lwmod@dividend
  8046     0478  160A  118A  244F  120A  118A  	fcall	___lwmod
  8047     047D  1283               	bcf	3,5	;RP0=0, select bank0
  8048     047E  1303               	bcf	3,6	;RP1=0, select bank0
  8049     047F  0849               	movf	?___lwmod,w
  8050     0480  00D2               	movwf	??_change_time
  8051     0481  084A               	movf	?___lwmod+1,w
  8052     0482  00D3               	movwf	??_change_time+1
  8053     0483  300A               	movlw	10
  8054     0484  00F6               	movwf	___lwdiv@divisor
  8055     0485  3000               	movlw	0
  8056     0486  00F7               	movwf	___lwdiv@divisor+1
  8057     0487  0821               	movf	change_time@new_time+1,w
  8058     0488  00F9               	movwf	___lwdiv@dividend+1
  8059     0489  0820               	movf	change_time@new_time,w
  8060     048A  00F8               	movwf	___lwdiv@dividend
  8061     048B  160A  118A  2508  120A  118A  	fcall	___lwdiv
  8062     0490  0876               	movf	?___lwdiv,w
  8063     0491  1283               	bcf	3,5	;RP0=0, select bank0
  8064     0492  1303               	bcf	3,6	;RP1=0, select bank0
  8065     0493  00D4               	movwf	??_change_time+2
  8066     0494  3003               	movlw	3
  8067     0495                     u4565:
  8068     0495  1003               	clrc
  8069     0496  0DD4               	rlf	??_change_time+2,f
  8070     0497  3EFF               	addlw	-1
  8071     0498  1D03               	skipz
  8072     0499  2C95               	goto	u4565
  8073     049A  1003               	clrc
  8074     049B  0D54               	rlf	??_change_time+2,w
  8075     049C  0452               	iorwf	??_change_time,w
  8076     049D  00D6               	movwf	change_time@buffer
  8077     049E                     l5256:
  8078                           
  8079                           ;car_black_box.c: 696:             clock_reg[0] = (clock_reg[0] & 0xC0) | buffer;
  8080     049E  0826               	movf	_clock_reg,w
  8081     049F  39C0               	andlw	192
  8082     04A0  0456               	iorwf	change_time@buffer,w
  8083     04A1  00A6               	movwf	_clock_reg
  8084     04A2                     l5258:
  8085                           
  8086                           ;car_black_box.c: 697:             write_ds1307(0x02, clock_reg[0]);
  8087     04A2  0826               	movf	_clock_reg,w
  8088     04A3  00F3               	movwf	write_ds1307@data
  8089     04A4  3002               	movlw	2
  8090     04A5  160A  118A  21CD  120A  118A  	fcall	_write_ds1307
  8091     04AA                     l5260:
  8092                           
  8093                           ;car_black_box.c: 700:             buffer = ((new_time[1] / 10) << 4) | new_time[1] % 10
      +                          ;
  8094     04AA  300A               	movlw	10
  8095     04AB  1283               	bcf	3,5	;RP0=0, select bank0
  8096     04AC  1303               	bcf	3,6	;RP1=0, select bank0
  8097     04AD  00C9               	movwf	___lwmod@divisor
  8098     04AE  3000               	movlw	0
  8099     04AF  00CA               	movwf	___lwmod@divisor+1
  8100     04B0  0823               	movf	change_time@new_time+3,w
  8101     04B1  00CC               	movwf	___lwmod@dividend+1
  8102     04B2  0822               	movf	change_time@new_time+2,w
  8103     04B3  00CB               	movwf	___lwmod@dividend
  8104     04B4  160A  118A  244F  120A  118A  	fcall	___lwmod
  8105     04B9  1283               	bcf	3,5	;RP0=0, select bank0
  8106     04BA  1303               	bcf	3,6	;RP1=0, select bank0
  8107     04BB  0849               	movf	?___lwmod,w
  8108     04BC  00D2               	movwf	??_change_time
  8109     04BD  084A               	movf	?___lwmod+1,w
  8110     04BE  00D3               	movwf	??_change_time+1
  8111     04BF  300A               	movlw	10
  8112     04C0  00F6               	movwf	___lwdiv@divisor
  8113     04C1  3000               	movlw	0
  8114     04C2  00F7               	movwf	___lwdiv@divisor+1
  8115     04C3  0823               	movf	change_time@new_time+3,w
  8116     04C4  00F9               	movwf	___lwdiv@dividend+1
  8117     04C5  0822               	movf	change_time@new_time+2,w
  8118     04C6  00F8               	movwf	___lwdiv@dividend
  8119     04C7  160A  118A  2508  120A  118A  	fcall	___lwdiv
  8120     04CC  0876               	movf	?___lwdiv,w
  8121     04CD  1283               	bcf	3,5	;RP0=0, select bank0
  8122     04CE  1303               	bcf	3,6	;RP1=0, select bank0
  8123     04CF  00D4               	movwf	??_change_time+2
  8124     04D0  3003               	movlw	3
  8125     04D1                     u4575:
  8126     04D1  1003               	clrc
  8127     04D2  0DD4               	rlf	??_change_time+2,f
  8128     04D3  3EFF               	addlw	-1
  8129     04D4  1D03               	skipz
  8130     04D5  2CD1               	goto	u4575
  8131     04D6  1003               	clrc
  8132     04D7  0D54               	rlf	??_change_time+2,w
  8133     04D8  0452               	iorwf	??_change_time,w
  8134     04D9  00D6               	movwf	change_time@buffer
  8135     04DA                     l5262:
  8136                           
  8137                           ;car_black_box.c: 701:             clock_reg[1] = (clock_reg[1] & 0x80) | buffer;
  8138     04DA  0827               	movf	_clock_reg+1,w
  8139     04DB  3980               	andlw	128
  8140     04DC  0456               	iorwf	change_time@buffer,w
  8141     04DD  00A7               	movwf	_clock_reg+1
  8142                           
  8143                           ;car_black_box.c: 702:             write_ds1307(0x01, clock_reg[1]);
  8144     04DE  0827               	movf	_clock_reg+1,w
  8145     04DF  00F3               	movwf	write_ds1307@data
  8146     04E0  3001               	movlw	1
  8147     04E1  160A  118A  21CD  120A  118A  	fcall	_write_ds1307
  8148                           
  8149                           ;car_black_box.c: 705:             buffer = ((new_time[2] / 10) << 4) | new_time[2] % 10
      +                          ;
  8150     04E6  300A               	movlw	10
  8151     04E7  1283               	bcf	3,5	;RP0=0, select bank0
  8152     04E8  1303               	bcf	3,6	;RP1=0, select bank0
  8153     04E9  00C9               	movwf	___lwmod@divisor
  8154     04EA  3000               	movlw	0
  8155     04EB  00CA               	movwf	___lwmod@divisor+1
  8156     04EC  0825               	movf	change_time@new_time+5,w
  8157     04ED  00CC               	movwf	___lwmod@dividend+1
  8158     04EE  0824               	movf	change_time@new_time+4,w
  8159     04EF  00CB               	movwf	___lwmod@dividend
  8160     04F0  160A  118A  244F  120A  118A  	fcall	___lwmod
  8161     04F5  1283               	bcf	3,5	;RP0=0, select bank0
  8162     04F6  1303               	bcf	3,6	;RP1=0, select bank0
  8163     04F7  0849               	movf	?___lwmod,w
  8164     04F8  00D2               	movwf	??_change_time
  8165     04F9  084A               	movf	?___lwmod+1,w
  8166     04FA  00D3               	movwf	??_change_time+1
  8167     04FB  300A               	movlw	10
  8168     04FC  00F6               	movwf	___lwdiv@divisor
  8169     04FD  3000               	movlw	0
  8170     04FE  00F7               	movwf	___lwdiv@divisor+1
  8171     04FF  0825               	movf	change_time@new_time+5,w
  8172     0500  00F9               	movwf	___lwdiv@dividend+1
  8173     0501  0824               	movf	change_time@new_time+4,w
  8174     0502  00F8               	movwf	___lwdiv@dividend
  8175     0503  160A  118A  2508  120A  118A  	fcall	___lwdiv
  8176     0508  0876               	movf	?___lwdiv,w
  8177     0509  1283               	bcf	3,5	;RP0=0, select bank0
  8178     050A  1303               	bcf	3,6	;RP1=0, select bank0
  8179     050B  00D4               	movwf	??_change_time+2
  8180     050C  3003               	movlw	3
  8181     050D                     u4585:
  8182     050D  1003               	clrc
  8183     050E  0DD4               	rlf	??_change_time+2,f
  8184     050F  3EFF               	addlw	-1
  8185     0510  1D03               	skipz
  8186     0511  2D0D               	goto	u4585
  8187     0512  1003               	clrc
  8188     0513  0D54               	rlf	??_change_time+2,w
  8189     0514  0452               	iorwf	??_change_time,w
  8190     0515  00D6               	movwf	change_time@buffer
  8191     0516                     l5264:
  8192                           
  8193                           ;car_black_box.c: 706:             clock_reg[2] = (clock_reg[2] & 0x80) | buffer;
  8194     0516  0828               	movf	_clock_reg+2,w
  8195     0517  3980               	andlw	128
  8196     0518  0456               	iorwf	change_time@buffer,w
  8197     0519  00A8               	movwf	_clock_reg+2
  8198     051A                     l5266:
  8199                           
  8200                           ;car_black_box.c: 707:             write_ds1307(0x00, clock_reg[2]);
  8201     051A  0828               	movf	_clock_reg+2,w
  8202     051B  00F3               	movwf	write_ds1307@data
  8203     051C  3000               	movlw	0
  8204     051D  160A  118A  21CD  120A  118A  	fcall	_write_ds1307
  8205     0522                     l5268:
  8206                           
  8207                           ;car_black_box.c: 710:             clcd_write(0x01, 0);
  8208     0522  01F2               	clrf	clcd_write@mode
  8209     0523  3001               	movlw	1
  8210     0524  160A  118A  21EB  120A  118A  	fcall	_clcd_write
  8211     0529                     l5270:
  8212                           
  8213                           ;car_black_box.c: 711:             clcd_print("Time changed", (0x80 + 2));
  8214     0529  3062               	movlw	low (STR_50| (0+32768))
  8215     052A  00F6               	movwf	clcd_print@str
  8216     052B  3088               	movlw	high (STR_50| (0+32768))
  8217     052C  00F7               	movwf	clcd_print@str+1
  8218     052D  3082               	movlw	130
  8219     052E  00F8               	movwf	clcd_print@addr
  8220     052F  160A  118A  231D  120A  118A  	fcall	_clcd_print
  8221     0534                     l5272:
  8222                           
  8223                           ;car_black_box.c: 712:             clcd_print("Successfully", (0xC0 + 2));
  8224     0534  3089               	movlw	low (STR_51| (0+32768))
  8225     0535  00F6               	movwf	clcd_print@str
  8226     0536  3088               	movlw	high (STR_51| (0+32768))
  8227     0537  00F7               	movwf	clcd_print@str+1
  8228     0538  30C2               	movlw	194
  8229     0539  00F8               	movwf	clcd_print@addr
  8230     053A  160A  118A  231D  120A  118A  	fcall	_clcd_print
  8231     053F                     l5274:
  8232                           
  8233                           ;car_black_box.c: 714:             t_done = 1;
  8234     053F  1283               	bcf	3,5	;RP0=0, select bank0
  8235     0540  1303               	bcf	3,6	;RP1=0, select bank0
  8236     0541  01B7               	clrf	change_time@t_done
  8237     0542  0AB7               	incf	change_time@t_done,f
  8238     0543                     l5276:
  8239                           
  8240                           ;car_black_box.c: 715:             _delay((unsigned long)((1000)*(20000000/4000.0)));
  8241     0543  301A               	movlw	26
  8242     0544  1283               	bcf	3,5	;RP0=0, select bank0
  8243     0545  1303               	bcf	3,6	;RP1=0, select bank0
  8244     0546  00D4               	movwf	??_change_time+2
  8245     0547  305E               	movlw	94
  8246     0548  00D3               	movwf	??_change_time+1
  8247     0549  306D               	movlw	109
  8248     054A  00D2               	movwf	??_change_time
  8249     054B                     u5047:
  8250     054B  0BD2               	decfsz	??_change_time,f
  8251     054C  2D4B               	goto	u5047
  8252     054D  0BD3               	decfsz	??_change_time+1,f
  8253     054E  2D4B               	goto	u5047
  8254     054F  0BD4               	decfsz	??_change_time+2,f
  8255     0550  2D4B               	goto	u5047
  8256     0551  2D52               	nop2
  8257     0552                     l5278:
  8258                           
  8259                           ;car_black_box.c: 716:             return 0x0C;
  8260     0552  300C               	movlw	12
  8261     0553  2E8F               	goto	l422
  8262     0554                     l5284:
  8263     0554  0855               	movf	change_time@key,w
  8264     0555  00D2               	movwf	??_change_time
  8265     0556  01D3               	clrf	??_change_time+1
  8266                           
  8267                           ; Switch on 2 bytes has been partitioned into a top level switch of size 1, and 1 sub-sw
      +                          itches
  8268                           ; Switch size 1, requested type "simple"
  8269                           ; Number of cases is 1, Range of values is 0 to 0
  8270                           ; switch strategies available:
  8271                           ; Name         Instructions Cycles
  8272                           ; simple_byte            4     3 (average)
  8273                           ; direct_byte           11     8 (fixed)
  8274                           ; jumptable            260     6 (fixed)
  8275                           ;	Chosen strategy is simple_byte
  8276     0557  0853               	movf	??_change_time+1,w
  8277     0558  3A00               	xorlw	0	; case 0
  8278     0559  1903               	skipnz
  8279     055A  2D5C               	goto	l5840
  8280     055B  2D67               	goto	l5286
  8281     055C                     l5840:
  8282                           
  8283                           ; Switch size 1, requested type "simple"
  8284                           ; Number of cases is 3, Range of values is 47 to 128
  8285                           ; switch strategies available:
  8286                           ; Name         Instructions Cycles
  8287                           ; simple_byte           10     6 (average)
  8288                           ; direct_byte          257    11 (fixed)
  8289                           ; jumptable            263     9 (fixed)
  8290                           ;	Chosen strategy is simple_byte
  8291     055C  0852               	movf	??_change_time,w
  8292     055D  3A2F               	xorlw	47	; case 47
  8293     055E  1903               	skipnz
  8294     055F  2C51               	goto	l5252
  8295     0560  3A18               	xorlw	24	; case 55
  8296     0561  1903               	skipnz
  8297     0562  2C45               	goto	l5250
  8298     0563  3AB7               	xorlw	183	; case 128
  8299     0564  1903               	skipnz
  8300     0565  2C69               	goto	l5254
  8301     0566  2D67               	goto	l5286
  8302     0567                     l5286:
  8303                           
  8304                           ;car_black_box.c: 722:     if (new_time[0] > 23)
  8305     0567  3000               	movlw	0
  8306     0568  0221               	subwf	change_time@new_time+1,w
  8307     0569  3018               	movlw	24
  8308     056A  1903               	skipnz
  8309     056B  0220               	subwf	change_time@new_time,w
  8310     056C  1C03               	skipc
  8311     056D  2D6F               	goto	u4591
  8312     056E  2D70               	goto	u4590
  8313     056F                     u4591:
  8314     056F  2D72               	goto	l5290
  8315     0570                     u4590:
  8316     0570                     l5288:
  8317                           
  8318                           ;car_black_box.c: 723:         new_time[0] = 0;
  8319     0570  01A0               	clrf	change_time@new_time
  8320     0571  01A1               	clrf	change_time@new_time+1
  8321     0572                     l5290:
  8322                           
  8323                           ;car_black_box.c: 724:     if (new_time[1] > 59)
  8324     0572  3000               	movlw	0
  8325     0573  0223               	subwf	change_time@new_time+3,w
  8326     0574  303C               	movlw	60
  8327     0575  1903               	skipnz
  8328     0576  0222               	subwf	change_time@new_time+2,w
  8329     0577  1C03               	skipc
  8330     0578  2D7A               	goto	u4601
  8331     0579  2D7B               	goto	u4600
  8332     057A                     u4601:
  8333     057A  2D7D               	goto	l5294
  8334     057B                     u4600:
  8335     057B                     l5292:
  8336                           
  8337                           ;car_black_box.c: 725:         new_time[1] = 0;
  8338     057B  01A2               	clrf	change_time@new_time+2
  8339     057C  01A3               	clrf	change_time@new_time+3
  8340     057D                     l5294:
  8341                           
  8342                           ;car_black_box.c: 726:     if (new_time[2] > 59)
  8343     057D  3000               	movlw	0
  8344     057E  0225               	subwf	change_time@new_time+5,w
  8345     057F  303C               	movlw	60
  8346     0580  1903               	skipnz
  8347     0581  0224               	subwf	change_time@new_time+4,w
  8348     0582  1C03               	skipc
  8349     0583  2D85               	goto	u4611
  8350     0584  2D86               	goto	u4610
  8351     0585                     u4611:
  8352     0585  2D88               	goto	l5298
  8353     0586                     u4610:
  8354     0586                     l5296:
  8355                           
  8356                           ;car_black_box.c: 727:         new_time[2] = 0;
  8357     0586  01A4               	clrf	change_time@new_time+4
  8358     0587  01A5               	clrf	change_time@new_time+5
  8359     0588                     l5298:
  8360                           
  8361                           ;car_black_box.c: 731:     if (wait++ == 1)
  8362     0588  3001               	movlw	1
  8363     0589  00D2               	movwf	??_change_time
  8364     058A  0852               	movf	??_change_time,w
  8365     058B  07B9               	addwf	change_time@wait,f
  8366     058C  3002               	movlw	2
  8367     058D  0639               	xorwf	change_time@wait,w
  8368     058E  1D03               	btfss	3,2
  8369     058F  2D91               	goto	u4621
  8370     0590  2D92               	goto	u4620
  8371     0591                     u4621:
  8372     0591  2DE4               	goto	l5324
  8373     0592                     u4620:
  8374     0592                     l5300:
  8375                           
  8376                           ;car_black_box.c: 732:     {;car_black_box.c: 733:         wait = 0;
  8377     0592  01B9               	clrf	change_time@wait
  8378     0593                     l5302:
  8379                           
  8380                           ;car_black_box.c: 734:         blink = !blink;
  8381     0593  0838               	movf	change_time@blink,w
  8382     0594  1903               	btfsc	3,2
  8383     0595  2D97               	goto	u4631
  8384     0596  2D99               	goto	u4630
  8385     0597                     u4631:
  8386     0597  3001               	movlw	1
  8387     0598  2D9A               	goto	u4640
  8388     0599                     u4630:
  8389     0599  3000               	movlw	0
  8390     059A                     u4640:
  8391     059A  00B8               	movwf	change_time@blink
  8392     059B                     l5304:
  8393                           
  8394                           ;car_black_box.c: 737:         if (blink)
  8395     059B  0838               	movf	change_time@blink,w
  8396     059C  1903               	btfsc	3,2
  8397     059D  2D9F               	goto	u4651
  8398     059E  2DA0               	goto	u4650
  8399     059F                     u4651:
  8400     059F  2DE4               	goto	l5324
  8401     05A0                     u4650:
  8402     05A0  2DD4               	goto	l5322
  8403     05A1                     l5308:
  8404                           
  8405                           ;car_black_box.c: 742:                     clcd_print("  ", (0xC0 + 0));
  8406     05A1  3033               	movlw	low ((STR_43+15)| (0+32768))
  8407     05A2  00F6               	movwf	clcd_print@str
  8408     05A3  3087               	movlw	high ((STR_43+15)| (0+32768))
  8409     05A4  00F7               	movwf	clcd_print@str+1
  8410     05A5  30C0               	movlw	192
  8411     05A6  00F8               	movwf	clcd_print@addr
  8412     05A7  160A  118A  231D  120A  118A  	fcall	_clcd_print
  8413     05AC                     l5310:
  8414                           
  8415                           ;car_black_box.c: 743:                     _delay((unsigned long)((160)*(20000000/4000.0
      +                          )));
  8416     05AC  3005               	movlw	5
  8417     05AD  1283               	bcf	3,5	;RP0=0, select bank0
  8418     05AE  1303               	bcf	3,6	;RP1=0, select bank0
  8419     05AF  00D4               	movwf	??_change_time+2
  8420     05B0  300F               	movlw	15
  8421     05B1  00D3               	movwf	??_change_time+1
  8422     05B2  30F0               	movlw	240
  8423     05B3  00D2               	movwf	??_change_time
  8424     05B4                     u5057:
  8425     05B4  0BD2               	decfsz	??_change_time,f
  8426     05B5  2DB4               	goto	u5057
  8427     05B6  0BD3               	decfsz	??_change_time+1,f
  8428     05B7  2DB4               	goto	u5057
  8429     05B8  0BD4               	decfsz	??_change_time+2,f
  8430     05B9  2DB4               	goto	u5057
  8431     05BA  0000               	nop
  8432                           
  8433                           ;car_black_box.c: 744:                     break;
  8434     05BB  2DE4               	goto	l5324
  8435     05BC                     l5312:
  8436                           
  8437                           ;car_black_box.c: 746:                     clcd_print("  ", (0xC0 + 3));
  8438     05BC  3033               	movlw	low ((STR_43+15)| (0+32768))
  8439     05BD  00F6               	movwf	clcd_print@str
  8440     05BE  3087               	movlw	high ((STR_43+15)| (0+32768))
  8441     05BF  00F7               	movwf	clcd_print@str+1
  8442     05C0  30C3               	movlw	195
  8443     05C1  00F8               	movwf	clcd_print@addr
  8444     05C2  160A  118A  231D  120A  118A  	fcall	_clcd_print
  8445     05C7  2DAC               	goto	l5310
  8446     05C8                     l5316:
  8447                           
  8448                           ;car_black_box.c: 750:                     clcd_print("  ", (0xC0 + 6));
  8449     05C8  3033               	movlw	low ((STR_43+15)| (0+32768))
  8450     05C9  00F6               	movwf	clcd_print@str
  8451     05CA  3087               	movlw	high ((STR_43+15)| (0+32768))
  8452     05CB  00F7               	movwf	clcd_print@str+1
  8453     05CC  30C6               	movlw	198
  8454     05CD  00F8               	movwf	clcd_print@addr
  8455     05CE  160A  118A  231D  120A  118A  	fcall	_clcd_print
  8456     05D3  2DAC               	goto	l5310
  8457     05D4                     l5322:
  8458                           
  8459                           ; Switch on 2 bytes has been partitioned into a top level switch of size 1, and 1 sub-sw
      +                          itches
  8460                           ; Switch size 1, requested type "simple"
  8461                           ; Number of cases is 1, Range of values is 0 to 0
  8462                           ; switch strategies available:
  8463                           ; Name         Instructions Cycles
  8464                           ; simple_byte            4     3 (average)
  8465                           ; direct_byte           11     8 (fixed)
  8466                           ; jumptable            260     6 (fixed)
  8467                           ;	Chosen strategy is simple_byte
  8468     05D4  082E               	movf	change_time@blink_pos+1,w
  8469     05D5  3A00               	xorlw	0	; case 0
  8470     05D6  1903               	skipnz
  8471     05D7  2DD9               	goto	l5842
  8472     05D8  2DE4               	goto	l5324
  8473     05D9                     l5842:
  8474                           
  8475                           ; Switch size 1, requested type "simple"
  8476                           ; Number of cases is 3, Range of values is 0 to 2
  8477                           ; switch strategies available:
  8478                           ; Name         Instructions Cycles
  8479                           ; simple_byte           10     6 (average)
  8480                           ; direct_byte           17     8 (fixed)
  8481                           ; jumptable            260     6 (fixed)
  8482                           ;	Chosen strategy is simple_byte
  8483     05D9  082D               	movf	change_time@blink_pos,w
  8484     05DA  3A00               	xorlw	0	; case 0
  8485     05DB  1903               	skipnz
  8486     05DC  2DA1               	goto	l5308
  8487     05DD  3A01               	xorlw	1	; case 1
  8488     05DE  1903               	skipnz
  8489     05DF  2DBC               	goto	l5312
  8490     05E0  3A03               	xorlw	3	; case 2
  8491     05E1  1903               	skipnz
  8492     05E2  2DC8               	goto	l5316
  8493     05E3  2DE4               	goto	l5324
  8494     05E4                     l5324:
  8495                           
  8496                           ;car_black_box.c: 760:     clcd_putch(new_time[0] / 10 + '0', (0xC0 + 0));
  8497     05E4  30C0               	movlw	192
  8498     05E5  1283               	bcf	3,5	;RP0=0, select bank0
  8499     05E6  1303               	bcf	3,6	;RP1=0, select bank0
  8500     05E7  00CF               	movwf	clcd_putch@addr
  8501     05E8  300A               	movlw	10
  8502     05E9  00F6               	movwf	___lwdiv@divisor
  8503     05EA  3000               	movlw	0
  8504     05EB  00F7               	movwf	___lwdiv@divisor+1
  8505     05EC  0821               	movf	change_time@new_time+1,w
  8506     05ED  00F9               	movwf	___lwdiv@dividend+1
  8507     05EE  0820               	movf	change_time@new_time,w
  8508     05EF  00F8               	movwf	___lwdiv@dividend
  8509     05F0  160A  118A  2508  120A  118A  	fcall	___lwdiv
  8510     05F5  0876               	movf	?___lwdiv,w
  8511     05F6  3E30               	addlw	48
  8512     05F7  160A  118A  218A  120A  118A  	fcall	_clcd_putch
  8513                           
  8514                           ;car_black_box.c: 761:     clcd_putch(new_time[0] % 10 + '0', (0xC0 + 1));
  8515     05FC  30C1               	movlw	193
  8516     05FD  1283               	bcf	3,5	;RP0=0, select bank0
  8517     05FE  1303               	bcf	3,6	;RP1=0, select bank0
  8518     05FF  00CF               	movwf	clcd_putch@addr
  8519     0600  300A               	movlw	10
  8520     0601  00C9               	movwf	___lwmod@divisor
  8521     0602  3000               	movlw	0
  8522     0603  00CA               	movwf	___lwmod@divisor+1
  8523     0604  0821               	movf	change_time@new_time+1,w
  8524     0605  00CC               	movwf	___lwmod@dividend+1
  8525     0606  0820               	movf	change_time@new_time,w
  8526     0607  00CB               	movwf	___lwmod@dividend
  8527     0608  160A  118A  244F  120A  118A  	fcall	___lwmod
  8528     060D  1283               	bcf	3,5	;RP0=0, select bank0
  8529     060E  1303               	bcf	3,6	;RP1=0, select bank0
  8530     060F  0849               	movf	?___lwmod,w
  8531     0610  3E30               	addlw	48
  8532     0611  160A  118A  218A  120A  118A  	fcall	_clcd_putch
  8533                           
  8534                           ;car_black_box.c: 762:     clcd_putch(':', (0xC0 + 2));
  8535     0616  30C2               	movlw	194
  8536     0617  1283               	bcf	3,5	;RP0=0, select bank0
  8537     0618  1303               	bcf	3,6	;RP1=0, select bank0
  8538     0619  00CF               	movwf	clcd_putch@addr
  8539     061A  303A               	movlw	58
  8540     061B  160A  118A  218A  120A  118A  	fcall	_clcd_putch
  8541                           
  8542                           ;car_black_box.c: 765:     clcd_putch(new_time[1] / 10 + '0', (0xC0 + 3));
  8543     0620  30C3               	movlw	195
  8544     0621  1283               	bcf	3,5	;RP0=0, select bank0
  8545     0622  1303               	bcf	3,6	;RP1=0, select bank0
  8546     0623  00CF               	movwf	clcd_putch@addr
  8547     0624  300A               	movlw	10
  8548     0625  00F6               	movwf	___lwdiv@divisor
  8549     0626  3000               	movlw	0
  8550     0627  00F7               	movwf	___lwdiv@divisor+1
  8551     0628  0823               	movf	change_time@new_time+3,w
  8552     0629  00F9               	movwf	___lwdiv@dividend+1
  8553     062A  0822               	movf	change_time@new_time+2,w
  8554     062B  00F8               	movwf	___lwdiv@dividend
  8555     062C  160A  118A  2508  120A  118A  	fcall	___lwdiv
  8556     0631  0876               	movf	?___lwdiv,w
  8557     0632  3E30               	addlw	48
  8558     0633  160A  118A  218A  120A  118A  	fcall	_clcd_putch
  8559                           
  8560                           ;car_black_box.c: 766:     clcd_putch(new_time[1] % 10 + '0', (0xC0 + 4));
  8561     0638  30C4               	movlw	196
  8562     0639  1283               	bcf	3,5	;RP0=0, select bank0
  8563     063A  1303               	bcf	3,6	;RP1=0, select bank0
  8564     063B  00CF               	movwf	clcd_putch@addr
  8565     063C  300A               	movlw	10
  8566     063D  00C9               	movwf	___lwmod@divisor
  8567     063E  3000               	movlw	0
  8568     063F  00CA               	movwf	___lwmod@divisor+1
  8569     0640  0823               	movf	change_time@new_time+3,w
  8570     0641  00CC               	movwf	___lwmod@dividend+1
  8571     0642  0822               	movf	change_time@new_time+2,w
  8572     0643  00CB               	movwf	___lwmod@dividend
  8573     0644  160A  118A  244F  120A  118A  	fcall	___lwmod
  8574     0649  1283               	bcf	3,5	;RP0=0, select bank0
  8575     064A  1303               	bcf	3,6	;RP1=0, select bank0
  8576     064B  0849               	movf	?___lwmod,w
  8577     064C  3E30               	addlw	48
  8578     064D  160A  118A  218A  120A  118A  	fcall	_clcd_putch
  8579                           
  8580                           ;car_black_box.c: 767:     clcd_putch(':', (0xC0 + 5));
  8581     0652  30C5               	movlw	197
  8582     0653  1283               	bcf	3,5	;RP0=0, select bank0
  8583     0654  1303               	bcf	3,6	;RP1=0, select bank0
  8584     0655  00CF               	movwf	clcd_putch@addr
  8585     0656  303A               	movlw	58
  8586     0657  160A  118A  218A  120A  118A  	fcall	_clcd_putch
  8587                           
  8588                           ;car_black_box.c: 770:     clcd_putch(new_time[2] / 10 + '0', (0xC0 + 6));
  8589     065C  30C6               	movlw	198
  8590     065D  1283               	bcf	3,5	;RP0=0, select bank0
  8591     065E  1303               	bcf	3,6	;RP1=0, select bank0
  8592     065F  00CF               	movwf	clcd_putch@addr
  8593     0660  300A               	movlw	10
  8594     0661  00F6               	movwf	___lwdiv@divisor
  8595     0662  3000               	movlw	0
  8596     0663  00F7               	movwf	___lwdiv@divisor+1
  8597     0664  0825               	movf	change_time@new_time+5,w
  8598     0665  00F9               	movwf	___lwdiv@dividend+1
  8599     0666  0824               	movf	change_time@new_time+4,w
  8600     0667  00F8               	movwf	___lwdiv@dividend
  8601     0668  160A  118A  2508  120A  118A  	fcall	___lwdiv
  8602     066D  0876               	movf	?___lwdiv,w
  8603     066E  3E30               	addlw	48
  8604     066F  160A  118A  218A  120A  118A  	fcall	_clcd_putch
  8605                           
  8606                           ;car_black_box.c: 771:     clcd_putch(new_time[2] % 10 + '0', (0xC0 + 7));
  8607     0674  30C7               	movlw	199
  8608     0675  1283               	bcf	3,5	;RP0=0, select bank0
  8609     0676  1303               	bcf	3,6	;RP1=0, select bank0
  8610     0677  00CF               	movwf	clcd_putch@addr
  8611     0678  300A               	movlw	10
  8612     0679  00C9               	movwf	___lwmod@divisor
  8613     067A  3000               	movlw	0
  8614     067B  00CA               	movwf	___lwmod@divisor+1
  8615     067C  0825               	movf	change_time@new_time+5,w
  8616     067D  00CC               	movwf	___lwmod@dividend+1
  8617     067E  0824               	movf	change_time@new_time+4,w
  8618     067F  00CB               	movwf	___lwmod@dividend
  8619     0680  160A  118A  244F  120A  118A  	fcall	___lwmod
  8620     0685  1283               	bcf	3,5	;RP0=0, select bank0
  8621     0686  1303               	bcf	3,6	;RP1=0, select bank0
  8622     0687  0849               	movf	?___lwmod,w
  8623     0688  3E30               	addlw	48
  8624     0689  160A  118A  218A  120A  118A  	fcall	_clcd_putch
  8625     068E  2C43               	goto	l5246
  8626     068F                     l422:
  8627     068F  0008               	return
  8628     0690                     __end_of_change_time:
  8629                           
  8630                           	psect	text31
  8631     11CD                     __ptext31:	
  8632 ;; *************** function _write_ds1307 *****************
  8633 ;; Defined at:
  8634 ;;		line 29 in file "ds1307.c"
  8635 ;; Parameters:    Size  Location     Type
  8636 ;;  addr            1    wreg     unsigned char 
  8637 ;;  data            1    3[COMMON] unsigned char 
  8638 ;; Auto vars:     Size  Location     Type
  8639 ;;  addr            1    4[COMMON] unsigned char 
  8640 ;; Return value:  Size  Location     Type
  8641 ;;                  1    wreg      void 
  8642 ;; Registers used:
  8643 ;;		wreg, status,2, status,0, pclath, cstack
  8644 ;; Tracked objects:
  8645 ;;		On entry : 0/0
  8646 ;;		On exit  : 0/0
  8647 ;;		Unchanged: 0/0
  8648 ;; Data sizes:     COMMON   BANK0   BANK1   BANK3   BANK2
  8649 ;;      Params:         1       0       0       0       0
  8650 ;;      Locals:         1       0       0       0       0
  8651 ;;      Temps:          0       0       0       0       0
  8652 ;;      Totals:         2       0       0       0       0
  8653 ;;Total ram usage:        2 bytes
  8654 ;; Hardware stack levels used: 1
  8655 ;; Hardware stack levels required when called: 3
  8656 ;; This function calls:
  8657 ;;		_i2c_start
  8658 ;;		_i2c_stop
  8659 ;;		_i2c_write
  8660 ;; This function is called by:
  8661 ;;		_init_ds1307
  8662 ;;		_change_time
  8663 ;; This function uses a non-reentrant model
  8664 ;;
  8665                           
  8666     11CD                     _write_ds1307:	
  8667                           ;psect for function _write_ds1307
  8668                           
  8669                           
  8670                           ;incstack = 0
  8671                           ; Regs used in _write_ds1307: [wreg+status,2+status,0+pclath+cstack]
  8672                           ;write_ds1307@addr stored from wreg
  8673     11CD  00F4               	movwf	write_ds1307@addr
  8674     11CE                     l4368:
  8675                           
  8676                           ;ds1307.c: 29: void write_ds1307(unsigned char addr, unsigned char data);ds1307.c: 30: {
      +                          ;ds1307.c: 31:     i2c_start();
  8677     11CE  160A  118A  20E9  160A  118A  	fcall	_i2c_start
  8678                           
  8679                           ;ds1307.c: 32:     i2c_write(0b11010000);
  8680     11D3  30D0               	movlw	208
  8681     11D4  160A  118A  20FB  160A  118A  	fcall	_i2c_write
  8682                           
  8683                           ;ds1307.c: 33:     i2c_write(addr);
  8684     11D9  0874               	movf	write_ds1307@addr,w
  8685     11DA  160A  118A  20FB  160A  118A  	fcall	_i2c_write
  8686                           
  8687                           ;ds1307.c: 34:     i2c_write(data);
  8688     11DF  0873               	movf	write_ds1307@data,w
  8689     11E0  160A  118A  20FB  160A  118A  	fcall	_i2c_write
  8690                           
  8691                           ;ds1307.c: 35:     i2c_stop();
  8692     11E5  160A  118A  20F2  160A  118A  	fcall	_i2c_stop
  8693     11EA                     l55:
  8694     11EA  0008               	return
  8695     11EB                     __end_of_write_ds1307:
  8696                           
  8697                           	psect	text32
  8698     1596                     __ptext32:	
  8699 ;; *************** function _get_time *****************
  8700 ;; Defined at:
  8701 ;;		line 26 in file "car_black_box.c"
  8702 ;; Parameters:    Size  Location     Type
  8703 ;;		None
  8704 ;; Auto vars:     Size  Location     Type
  8705 ;;		None
  8706 ;; Return value:  Size  Location     Type
  8707 ;;                  1    wreg      void 
  8708 ;; Registers used:
  8709 ;;		wreg, status,2, status,0, pclath, cstack
  8710 ;; Tracked objects:
  8711 ;;		On entry : 0/0
  8712 ;;		On exit  : 0/0
  8713 ;;		Unchanged: 0/0
  8714 ;; Data sizes:     COMMON   BANK0   BANK1   BANK3   BANK2
  8715 ;;      Params:         0       0       0       0       0
  8716 ;;      Locals:         0       0       0       0       0
  8717 ;;      Temps:          1       0       0       0       0
  8718 ;;      Totals:         1       0       0       0       0
  8719 ;;Total ram usage:        1 bytes
  8720 ;; Hardware stack levels used: 1
  8721 ;; Hardware stack levels required when called: 5
  8722 ;; This function calls:
  8723 ;;		_read_ds1307
  8724 ;; This function is called by:
  8725 ;;		_display_time
  8726 ;;		_log_car_event
  8727 ;;		_change_time
  8728 ;; This function uses a non-reentrant model
  8729 ;;
  8730                           
  8731     1596                     _get_time:	
  8732                           ;psect for function _get_time
  8733                           
  8734     1596                     l4380:	
  8735                           ;incstack = 0
  8736                           ; Regs used in _get_time: [wreg+status,2+status,0+pclath+cstack]
  8737                           
  8738                           
  8739                           ;car_black_box.c: 29:     clock_reg[0] = read_ds1307(0x02);
  8740     1596  3002               	movlw	2
  8741     1597  160A  118A  229C  160A  118A  	fcall	_read_ds1307
  8742     159C  1283               	bcf	3,5	;RP0=0, select bank0
  8743     159D  1303               	bcf	3,6	;RP1=0, select bank0
  8744     159E  00A6               	movwf	_clock_reg
  8745                           
  8746                           ;car_black_box.c: 32:     clock_reg[1] = read_ds1307(0x01);
  8747     159F  3001               	movlw	1
  8748     15A0  160A  118A  229C  160A  118A  	fcall	_read_ds1307
  8749     15A5  1283               	bcf	3,5	;RP0=0, select bank0
  8750     15A6  1303               	bcf	3,6	;RP1=0, select bank0
  8751     15A7  00A7               	movwf	_clock_reg+1
  8752                           
  8753                           ;car_black_box.c: 35:     clock_reg[2] = read_ds1307(0x00);
  8754     15A8  3000               	movlw	0
  8755     15A9  160A  118A  229C  160A  118A  	fcall	_read_ds1307
  8756     15AE  1283               	bcf	3,5	;RP0=0, select bank0
  8757     15AF  1303               	bcf	3,6	;RP1=0, select bank0
  8758     15B0  00A8               	movwf	_clock_reg+2
  8759     15B1                     l4382:
  8760                           
  8761                           ;car_black_box.c: 38:     time[0] = ((clock_reg[0] >> 4) & 0x03) + '0';
  8762     15B1  0826               	movf	_clock_reg,w
  8763     15B2  00F6               	movwf	??_get_time
  8764     15B3  3004               	movlw	4
  8765     15B4                     u3335:
  8766     15B4  1003               	clrc
  8767     15B5  0CF6               	rrf	??_get_time,f
  8768     15B6  3EFF               	addlw	-1
  8769     15B7  1D03               	skipz
  8770     15B8  2DB4               	goto	u3335
  8771     15B9  0876               	movf	??_get_time,w
  8772     15BA  3903               	andlw	3
  8773     15BB  3E30               	addlw	48
  8774     15BC  00BE               	movwf	_time
  8775     15BD                     l4384:
  8776                           
  8777                           ;car_black_box.c: 39:     time[1] = (clock_reg[0] & 0x0F) + '0';
  8778     15BD  0826               	movf	_clock_reg,w
  8779     15BE  390F               	andlw	15
  8780     15BF  3E30               	addlw	48
  8781     15C0  00BF               	movwf	_time+1
  8782     15C1                     l4386:
  8783                           
  8784                           ;car_black_box.c: 42:     time[2] = ((clock_reg[1] >> 4) & 0x07) + '0';
  8785     15C1  0827               	movf	_clock_reg+1,w
  8786     15C2  00F6               	movwf	??_get_time
  8787     15C3  3004               	movlw	4
  8788     15C4                     u3345:
  8789     15C4  1003               	clrc
  8790     15C5  0CF6               	rrf	??_get_time,f
  8791     15C6  3EFF               	addlw	-1
  8792     15C7  1D03               	skipz
  8793     15C8  2DC4               	goto	u3345
  8794     15C9  0876               	movf	??_get_time,w
  8795     15CA  3907               	andlw	7
  8796     15CB  3E30               	addlw	48
  8797     15CC  00C0               	movwf	_time+2
  8798     15CD                     l4388:
  8799                           
  8800                           ;car_black_box.c: 43:     time[3] = (clock_reg[1] & 0x0F) + '0';
  8801     15CD  0827               	movf	_clock_reg+1,w
  8802     15CE  390F               	andlw	15
  8803     15CF  3E30               	addlw	48
  8804     15D0  00C1               	movwf	_time+3
  8805     15D1                     l4390:
  8806                           
  8807                           ;car_black_box.c: 46:     time[4] = ((clock_reg[2] >> 4) & 0x07) + '0';
  8808     15D1  0828               	movf	_clock_reg+2,w
  8809     15D2  00F6               	movwf	??_get_time
  8810     15D3  3004               	movlw	4
  8811     15D4                     u3355:
  8812     15D4  1003               	clrc
  8813     15D5  0CF6               	rrf	??_get_time,f
  8814     15D6  3EFF               	addlw	-1
  8815     15D7  1D03               	skipz
  8816     15D8  2DD4               	goto	u3355
  8817     15D9  0876               	movf	??_get_time,w
  8818     15DA  3907               	andlw	7
  8819     15DB  3E30               	addlw	48
  8820     15DC  00C2               	movwf	_time+4
  8821     15DD                     l4392:
  8822                           
  8823                           ;car_black_box.c: 47:     time[5] = (clock_reg[2] & 0x0F) + '0';
  8824     15DD  0828               	movf	_clock_reg+2,w
  8825     15DE  390F               	andlw	15
  8826     15DF  3E30               	addlw	48
  8827     15E0  00C3               	movwf	_time+5
  8828     15E1                     l4394:
  8829                           
  8830                           ;car_black_box.c: 48:     time[6] = '\0';
  8831     15E1  01C4               	clrf	_time+6
  8832     15E2                     l293:
  8833     15E2  0008               	return
  8834     15E3                     __end_of_get_time:
  8835                           
  8836                           	psect	text33
  8837     129C                     __ptext33:	
  8838 ;; *************** function _read_ds1307 *****************
  8839 ;; Defined at:
  8840 ;;		line 14 in file "ds1307.c"
  8841 ;; Parameters:    Size  Location     Type
  8842 ;;  addr            1    wreg     unsigned char 
  8843 ;; Auto vars:     Size  Location     Type
  8844 ;;  addr            1    4[COMMON] unsigned char 
  8845 ;;  data            1    5[COMMON] unsigned char 
  8846 ;; Return value:  Size  Location     Type
  8847 ;;                  1    wreg      unsigned char 
  8848 ;; Registers used:
  8849 ;;		wreg, status,2, status,0, pclath, cstack
  8850 ;; Tracked objects:
  8851 ;;		On entry : 0/0
  8852 ;;		On exit  : 0/0
  8853 ;;		Unchanged: 0/0
  8854 ;; Data sizes:     COMMON   BANK0   BANK1   BANK3   BANK2
  8855 ;;      Params:         0       0       0       0       0
  8856 ;;      Locals:         2       0       0       0       0
  8857 ;;      Temps:          0       0       0       0       0
  8858 ;;      Totals:         2       0       0       0       0
  8859 ;;Total ram usage:        2 bytes
  8860 ;; Hardware stack levels used: 1
  8861 ;; Hardware stack levels required when called: 4
  8862 ;; This function calls:
  8863 ;;		_i2c_read
  8864 ;;		_i2c_rep_start
  8865 ;;		_i2c_start
  8866 ;;		_i2c_stop
  8867 ;;		_i2c_write
  8868 ;; This function is called by:
  8869 ;;		_init_ds1307
  8870 ;;		_get_time
  8871 ;; This function uses a non-reentrant model
  8872 ;;
  8873                           
  8874     129C                     _read_ds1307:	
  8875                           ;psect for function _read_ds1307
  8876                           
  8877                           
  8878                           ;incstack = 0
  8879                           ; Regs used in _read_ds1307: [wreg+status,2+status,0+pclath+cstack]
  8880                           ;read_ds1307@addr stored from wreg
  8881     129C  00F4               	movwf	read_ds1307@addr
  8882     129D                     l4336:
  8883                           
  8884                           ;ds1307.c: 14: unsigned char read_ds1307(unsigned char addr);ds1307.c: 15: {;ds1307.c: 1
      +                          6:     unsigned char data;;ds1307.c: 18:     i2c_start();
  8885     129D  160A  118A  20E9  160A  118A  	fcall	_i2c_start
  8886                           
  8887                           ;ds1307.c: 19:     i2c_write(0b11010000);
  8888     12A2  30D0               	movlw	208
  8889     12A3  160A  118A  20FB  160A  118A  	fcall	_i2c_write
  8890                           
  8891                           ;ds1307.c: 20:     i2c_write(addr);
  8892     12A8  0874               	movf	read_ds1307@addr,w
  8893     12A9  160A  118A  20FB  160A  118A  	fcall	_i2c_write
  8894                           
  8895                           ;ds1307.c: 21:     i2c_rep_start();
  8896     12AE  160A  118A  2106  160A  118A  	fcall	_i2c_rep_start
  8897                           
  8898                           ;ds1307.c: 22:     i2c_write(0b11010001);
  8899     12B3  30D1               	movlw	209
  8900     12B4  160A  118A  20FB  160A  118A  	fcall	_i2c_write
  8901                           
  8902                           ;ds1307.c: 23:     data = i2c_read(0);
  8903     12B9  3000               	movlw	0
  8904     12BA  160A  118A  220B  160A  118A  	fcall	_i2c_read
  8905     12BF  00F5               	movwf	read_ds1307@data
  8906                           
  8907                           ;ds1307.c: 24:     i2c_stop();
  8908     12C0  160A  118A  20F2  160A  118A  	fcall	_i2c_stop
  8909     12C5                     l4338:
  8910                           
  8911                           ;ds1307.c: 26:     return data;
  8912     12C5  0875               	movf	read_ds1307@data,w
  8913     12C6                     l52:
  8914     12C6  0008               	return
  8915     12C7                     __end_of_read_ds1307:
  8916                           
  8917                           	psect	text34
  8918     1106                     __ptext34:	
  8919 ;; *************** function _i2c_rep_start *****************
  8920 ;; Defined at:
  8921 ;;		line 28 in file "i2c.c"
  8922 ;; Parameters:    Size  Location     Type
  8923 ;;		None
  8924 ;; Auto vars:     Size  Location     Type
  8925 ;;		None
  8926 ;; Return value:  Size  Location     Type
  8927 ;;                  1    wreg      void 
  8928 ;; Registers used:
  8929 ;;		wreg, status,2, status,0, pclath, cstack
  8930 ;; Tracked objects:
  8931 ;;		On entry : 0/0
  8932 ;;		On exit  : 0/0
  8933 ;;		Unchanged: 0/0
  8934 ;; Data sizes:     COMMON   BANK0   BANK1   BANK3   BANK2
  8935 ;;      Params:         0       0       0       0       0
  8936 ;;      Locals:         0       0       0       0       0
  8937 ;;      Temps:          0       0       0       0       0
  8938 ;;      Totals:         0       0       0       0       0
  8939 ;;Total ram usage:        0 bytes
  8940 ;; Hardware stack levels used: 1
  8941 ;; Hardware stack levels required when called: 3
  8942 ;; This function calls:
  8943 ;;		_i2c_start
  8944 ;;		_i2c_stop
  8945 ;; This function is called by:
  8946 ;;		_read_ds1307
  8947 ;;		_eeprom_at24c04_random_read
  8948 ;; This function uses a non-reentrant model
  8949 ;;
  8950                           
  8951     1106                     _i2c_rep_start:	
  8952                           ;psect for function _i2c_rep_start
  8953                           
  8954     1106                     l4312:	
  8955                           ;incstack = 0
  8956                           ; Regs used in _i2c_rep_start: [wreg+status,2+status,0+pclath+cstack]
  8957                           
  8958                           
  8959                           ;i2c.c: 30:     i2c_stop();
  8960     1106  160A  118A  20F2  160A  118A  	fcall	_i2c_stop
  8961                           
  8962                           ;i2c.c: 31:     i2c_start();
  8963     110B  160A  118A  20E9  160A  118A  	fcall	_i2c_start
  8964     1110                     l96:
  8965     1110  0008               	return
  8966     1111                     __end_of_i2c_rep_start:
  8967                           
  8968                           	psect	text35
  8969     120B                     __ptext35:	
  8970 ;; *************** function _i2c_read *****************
  8971 ;; Defined at:
  8972 ;;		line 41 in file "i2c.c"
  8973 ;; Parameters:    Size  Location     Type
  8974 ;;  ack             1    wreg     unsigned char 
  8975 ;; Auto vars:     Size  Location     Type
  8976 ;;  ack             1    2[COMMON] unsigned char 
  8977 ;;  data            1    3[COMMON] unsigned char 
  8978 ;; Return value:  Size  Location     Type
  8979 ;;                  1    wreg      unsigned char 
  8980 ;; Registers used:
  8981 ;;		wreg, status,2, status,0, pclath, cstack
  8982 ;; Tracked objects:
  8983 ;;		On entry : 0/0
  8984 ;;		On exit  : 0/0
  8985 ;;		Unchanged: 0/0
  8986 ;; Data sizes:     COMMON   BANK0   BANK1   BANK3   BANK2
  8987 ;;      Params:         0       0       0       0       0
  8988 ;;      Locals:         2       0       0       0       0
  8989 ;;      Temps:          0       0       0       0       0
  8990 ;;      Totals:         2       0       0       0       0
  8991 ;;Total ram usage:        2 bytes
  8992 ;; Hardware stack levels used: 1
  8993 ;; Hardware stack levels required when called: 2
  8994 ;; This function calls:
  8995 ;;		_i2c_wait_for_idle
  8996 ;; This function is called by:
  8997 ;;		_read_ds1307
  8998 ;;		_eeprom_at24c04_random_read
  8999 ;; This function uses a non-reentrant model
  9000 ;;
  9001                           
  9002     120B                     _i2c_read:	
  9003                           ;psect for function _i2c_read
  9004                           
  9005                           
  9006                           ;incstack = 0
  9007                           ; Regs used in _i2c_read: [wreg+status,2+status,0+pclath+cstack]
  9008                           ;i2c_read@ack stored from wreg
  9009     120B  00F2               	movwf	i2c_read@ack
  9010     120C                     l4314:
  9011                           
  9012                           ;i2c.c: 41: unsigned char i2c_read(unsigned char ack);i2c.c: 42: {;i2c.c: 43:     unsign
      +                          ed char data;;i2c.c: 45:     i2c_wait_for_idle();
  9013     120C  160A  118A  2127  160A  118A  	fcall	_i2c_wait_for_idle
  9014     1211                     l4316:
  9015                           
  9016                           ;i2c.c: 46:     RCEN = 1;
  9017     1211  1683               	bsf	3,5	;RP0=1, select bank1
  9018     1212  1303               	bcf	3,6	;RP1=0, select bank1
  9019     1213  1591               	bsf	17,3	;volatile
  9020                           
  9021                           ;i2c.c: 48:     i2c_wait_for_idle();
  9022     1214  160A  118A  2127  160A  118A  	fcall	_i2c_wait_for_idle
  9023     1219                     l4318:
  9024                           
  9025                           ;i2c.c: 49:     data = SSPBUF;
  9026     1219  1283               	bcf	3,5	;RP0=0, select bank0
  9027     121A  1303               	bcf	3,6	;RP1=0, select bank0
  9028     121B  0813               	movf	19,w	;volatile
  9029     121C  00F3               	movwf	i2c_read@data
  9030     121D                     l4320:
  9031                           
  9032                           ;i2c.c: 51:     if (ack == 1)
  9033     121D  0372               	decf	i2c_read@ack,w
  9034     121E  1D03               	btfss	3,2
  9035     121F  2A21               	goto	u3291
  9036     1220  2A22               	goto	u3290
  9037     1221                     u3291:
  9038     1221  2A26               	goto	l102
  9039     1222                     u3290:
  9040     1222                     l4322:
  9041                           
  9042                           ;i2c.c: 52:     {;i2c.c: 53:         ACKDT = 1;
  9043     1222  1683               	bsf	3,5	;RP0=1, select bank1
  9044     1223  1303               	bcf	3,6	;RP1=0, select bank1
  9045     1224  1691               	bsf	17,5	;volatile
  9046                           
  9047                           ;i2c.c: 54:     }
  9048     1225  2A29               	goto	l103
  9049     1226                     l102:	
  9050                           ;i2c.c: 55:     else
  9051                           
  9052                           
  9053                           ;i2c.c: 56:     {;i2c.c: 57:         ACKDT = 0;
  9054     1226  1683               	bsf	3,5	;RP0=1, select bank1
  9055     1227  1303               	bcf	3,6	;RP1=0, select bank1
  9056     1228  1291               	bcf	17,5	;volatile
  9057     1229                     l103:	
  9058                           ;i2c.c: 58:     }
  9059                           
  9060                           
  9061                           ;i2c.c: 60:     ACKEN = 1;
  9062     1229  1611               	bsf	17,4	;volatile
  9063     122A                     l4324:
  9064                           
  9065                           ;i2c.c: 62:     return data;
  9066     122A  0873               	movf	i2c_read@data,w
  9067     122B                     l104:
  9068     122B  0008               	return
  9069     122C                     __end_of_i2c_read:
  9070                           
  9071                           	psect	text36
  9072     122C                     __ptext36:	
  9073 ;; *************** function ___wmul *****************
  9074 ;; Defined at:
  9075 ;;		line 15 in file "C:\Program Files\Microchip\xc8\v2.40\pic\sources\c90\common\Umul16.c"
  9076 ;; Parameters:    Size  Location     Type
  9077 ;;  multiplier      2    2[COMMON] unsigned int 
  9078 ;;  multiplicand    2    4[COMMON] unsigned int 
  9079 ;; Auto vars:     Size  Location     Type
  9080 ;;  product         2    6[COMMON] unsigned int 
  9081 ;; Return value:  Size  Location     Type
  9082 ;;                  2    2[COMMON] unsigned int 
  9083 ;; Registers used:
  9084 ;;		wreg, status,2, status,0
  9085 ;; Tracked objects:
  9086 ;;		On entry : 0/0
  9087 ;;		On exit  : 0/0
  9088 ;;		Unchanged: 0/0
  9089 ;; Data sizes:     COMMON   BANK0   BANK1   BANK3   BANK2
  9090 ;;      Params:         4       0       0       0       0
  9091 ;;      Locals:         2       0       0       0       0
  9092 ;;      Temps:          0       0       0       0       0
  9093 ;;      Totals:         6       0       0       0       0
  9094 ;;Total ram usage:        6 bytes
  9095 ;; Hardware stack levels used: 1
  9096 ;; Hardware stack levels required when called: 1
  9097 ;; This function calls:
  9098 ;;		Nothing
  9099 ;; This function is called by:
  9100 ;;		_change_time
  9101 ;; This function uses a non-reentrant model
  9102 ;;
  9103                           
  9104     122C                     ___wmul:	
  9105                           ;psect for function ___wmul
  9106                           
  9107     122C                     l4560:	
  9108                           ;incstack = 0
  9109                           ; Regs used in ___wmul: [wreg+status,2+status,0]
  9110                           
  9111     122C  01F6               	clrf	___wmul@product
  9112     122D  01F7               	clrf	___wmul@product+1
  9113     122E                     l4562:
  9114     122E  1C72               	btfss	___wmul@multiplier,0
  9115     122F  2A31               	goto	u3581
  9116     1230  2A32               	goto	u3580
  9117     1231                     u3581:
  9118     1231  2A38               	goto	l637
  9119     1232                     u3580:
  9120     1232                     l4564:
  9121     1232  0874               	movf	___wmul@multiplicand,w
  9122     1233  07F6               	addwf	___wmul@product,f
  9123     1234  1803               	skipnc
  9124     1235  0AF7               	incf	___wmul@product+1,f
  9125     1236  0875               	movf	___wmul@multiplicand+1,w
  9126     1237  07F7               	addwf	___wmul@product+1,f
  9127     1238                     l637:
  9128     1238  3001               	movlw	1
  9129     1239                     u3595:
  9130     1239  1003               	clrc
  9131     123A  0DF4               	rlf	___wmul@multiplicand,f
  9132     123B  0DF5               	rlf	___wmul@multiplicand+1,f
  9133     123C  3EFF               	addlw	-1
  9134     123D  1D03               	skipz
  9135     123E  2A39               	goto	u3595
  9136     123F                     l4566:
  9137     123F  3001               	movlw	1
  9138     1240                     u3605:
  9139     1240  1003               	clrc
  9140     1241  0CF3               	rrf	___wmul@multiplier+1,f
  9141     1242  0CF2               	rrf	___wmul@multiplier,f
  9142     1243  3EFF               	addlw	-1
  9143     1244  1D03               	skipz
  9144     1245  2A40               	goto	u3605
  9145     1246                     l4568:
  9146     1246  0872               	movf	___wmul@multiplier,w
  9147     1247  0473               	iorwf	___wmul@multiplier+1,w
  9148     1248  1D03               	btfss	3,2
  9149     1249  2A4B               	goto	u3611
  9150     124A  2A4C               	goto	u3610
  9151     124B                     u3611:
  9152     124B  2A2E               	goto	l4562
  9153     124C                     u3610:
  9154     124C                     l4570:
  9155     124C  0877               	movf	___wmul@product+1,w
  9156     124D  00F3               	movwf	?___wmul+1
  9157     124E  0876               	movf	___wmul@product,w
  9158     124F  00F2               	movwf	?___wmul
  9159     1250                     l639:
  9160     1250  0008               	return
  9161     1251                     __end_of___wmul:
  9162                           
  9163                           	psect	text37
  9164     144F                     __ptext37:	
  9165 ;; *************** function ___lwmod *****************
  9166 ;; Defined at:
  9167 ;;		line 5 in file "C:\Program Files\Microchip\xc8\v2.40\pic\sources\c90\common\lwmod.c"
  9168 ;; Parameters:    Size  Location     Type
  9169 ;;  divisor         2    4[BANK0 ] unsigned int 
  9170 ;;  dividend        2    6[BANK0 ] unsigned int 
  9171 ;; Auto vars:     Size  Location     Type
  9172 ;;  counter         1    9[BANK0 ] unsigned char 
  9173 ;; Return value:  Size  Location     Type
  9174 ;;                  2    4[BANK0 ] unsigned int 
  9175 ;; Registers used:
  9176 ;;		wreg, status,2, status,0
  9177 ;; Tracked objects:
  9178 ;;		On entry : 0/0
  9179 ;;		On exit  : 0/0
  9180 ;;		Unchanged: 0/0
  9181 ;; Data sizes:     COMMON   BANK0   BANK1   BANK3   BANK2
  9182 ;;      Params:         0       4       0       0       0
  9183 ;;      Locals:         0       1       0       0       0
  9184 ;;      Temps:          0       1       0       0       0
  9185 ;;      Totals:         0       6       0       0       0
  9186 ;;Total ram usage:        6 bytes
  9187 ;; Hardware stack levels used: 1
  9188 ;; Hardware stack levels required when called: 1
  9189 ;; This function calls:
  9190 ;;		Nothing
  9191 ;; This function is called by:
  9192 ;;		_login
  9193 ;;		_change_time
  9194 ;; This function uses a non-reentrant model
  9195 ;;
  9196                           
  9197     144F                     ___lwmod:	
  9198                           ;psect for function ___lwmod
  9199                           
  9200     144F                     l4682:	
  9201                           ;incstack = 0
  9202                           ; Regs used in ___lwmod: [wreg+status,2+status,0]
  9203                           
  9204     144F  1283               	bcf	3,5	;RP0=0, select bank0
  9205     1450  1303               	bcf	3,6	;RP1=0, select bank0
  9206     1451  0849               	movf	___lwmod@divisor,w
  9207     1452  044A               	iorwf	___lwmod@divisor+1,w
  9208     1453  1903               	btfsc	3,2
  9209     1454  2C56               	goto	u3881
  9210     1455  2C57               	goto	u3880
  9211     1456                     u3881:
  9212     1456  2C86               	goto	l4700
  9213     1457                     u3880:
  9214     1457                     l4684:
  9215     1457  01CE               	clrf	___lwmod@counter
  9216     1458  0ACE               	incf	___lwmod@counter,f
  9217     1459  2C65               	goto	l4690
  9218     145A                     l4686:
  9219     145A  3001               	movlw	1
  9220     145B                     u3895:
  9221     145B  1003               	clrc
  9222     145C  0DC9               	rlf	___lwmod@divisor,f
  9223     145D  0DCA               	rlf	___lwmod@divisor+1,f
  9224     145E  3EFF               	addlw	-1
  9225     145F  1D03               	skipz
  9226     1460  2C5B               	goto	u3895
  9227     1461                     l4688:
  9228     1461  3001               	movlw	1
  9229     1462  00CD               	movwf	??___lwmod
  9230     1463  084D               	movf	??___lwmod,w
  9231     1464  07CE               	addwf	___lwmod@counter,f
  9232     1465                     l4690:
  9233     1465  1FCA               	btfss	___lwmod@divisor+1,7
  9234     1466  2C68               	goto	u3901
  9235     1467  2C69               	goto	u3900
  9236     1468                     u3901:
  9237     1468  2C5A               	goto	l4686
  9238     1469                     u3900:
  9239     1469                     l4692:
  9240     1469  084A               	movf	___lwmod@divisor+1,w
  9241     146A  024C               	subwf	___lwmod@dividend+1,w
  9242     146B  1D03               	skipz
  9243     146C  2C6F               	goto	u3915
  9244     146D  0849               	movf	___lwmod@divisor,w
  9245     146E  024B               	subwf	___lwmod@dividend,w
  9246     146F                     u3915:
  9247     146F  1C03               	skipc
  9248     1470  2C72               	goto	u3911
  9249     1471  2C73               	goto	u3910
  9250     1472                     u3911:
  9251     1472  2C79               	goto	l4696
  9252     1473                     u3910:
  9253     1473                     l4694:
  9254     1473  0849               	movf	___lwmod@divisor,w
  9255     1474  02CB               	subwf	___lwmod@dividend,f
  9256     1475  084A               	movf	___lwmod@divisor+1,w
  9257     1476  1C03               	skipc
  9258     1477  03CC               	decf	___lwmod@dividend+1,f
  9259     1478  02CC               	subwf	___lwmod@dividend+1,f
  9260     1479                     l4696:
  9261     1479  3001               	movlw	1
  9262     147A                     u3925:
  9263     147A  1003               	clrc
  9264     147B  0CCA               	rrf	___lwmod@divisor+1,f
  9265     147C  0CC9               	rrf	___lwmod@divisor,f
  9266     147D  3EFF               	addlw	-1
  9267     147E  1D03               	skipz
  9268     147F  2C7A               	goto	u3925
  9269     1480                     l4698:
  9270     1480  3001               	movlw	1
  9271     1481  02CE               	subwf	___lwmod@counter,f
  9272     1482  1D03               	btfss	3,2
  9273     1483  2C85               	goto	u3931
  9274     1484  2C86               	goto	u3930
  9275     1485                     u3931:
  9276     1485  2C69               	goto	l4692
  9277     1486                     u3930:
  9278     1486                     l4700:
  9279     1486  084C               	movf	___lwmod@dividend+1,w
  9280     1487  00CA               	movwf	?___lwmod+1
  9281     1488  084B               	movf	___lwmod@dividend,w
  9282     1489  00C9               	movwf	?___lwmod
  9283     148A                     l919:
  9284     148A  0008               	return
  9285     148B                     __end_of___lwmod:
  9286                           
  9287                           	psect	text38
  9288     1508                     __ptext38:	
  9289 ;; *************** function ___lwdiv *****************
  9290 ;; Defined at:
  9291 ;;		line 5 in file "C:\Program Files\Microchip\xc8\v2.40\pic\sources\c90\common\lwdiv.c"
  9292 ;; Parameters:    Size  Location     Type
  9293 ;;  divisor         2    6[COMMON] unsigned int 
  9294 ;;  dividend        2    8[COMMON] unsigned int 
  9295 ;; Auto vars:     Size  Location     Type
  9296 ;;  quotient        2    2[BANK0 ] unsigned int 
  9297 ;;  counter         1    1[BANK0 ] unsigned char 
  9298 ;; Return value:  Size  Location     Type
  9299 ;;                  2    6[COMMON] unsigned int 
  9300 ;; Registers used:
  9301 ;;		wreg, status,2, status,0
  9302 ;; Tracked objects:
  9303 ;;		On entry : 0/0
  9304 ;;		On exit  : 0/0
  9305 ;;		Unchanged: 0/0
  9306 ;; Data sizes:     COMMON   BANK0   BANK1   BANK3   BANK2
  9307 ;;      Params:         4       0       0       0       0
  9308 ;;      Locals:         0       3       0       0       0
  9309 ;;      Temps:          0       1       0       0       0
  9310 ;;      Totals:         4       4       0       0       0
  9311 ;;Total ram usage:        8 bytes
  9312 ;; Hardware stack levels used: 1
  9313 ;; Hardware stack levels required when called: 1
  9314 ;; This function calls:
  9315 ;;		Nothing
  9316 ;; This function is called by:
  9317 ;;		_main
  9318 ;;		_login
  9319 ;;		_change_time
  9320 ;; This function uses a non-reentrant model
  9321 ;;
  9322                           
  9323     1508                     ___lwdiv:	
  9324                           ;psect for function ___lwdiv
  9325                           
  9326     1508                     l4656:	
  9327                           ;incstack = 0
  9328                           ; Regs used in ___lwdiv: [wreg+status,2+status,0]
  9329                           
  9330     1508  1283               	bcf	3,5	;RP0=0, select bank0
  9331     1509  1303               	bcf	3,6	;RP1=0, select bank0
  9332     150A  01C7               	clrf	___lwdiv@quotient
  9333     150B  01C8               	clrf	___lwdiv@quotient+1
  9334     150C                     l4658:
  9335     150C  0876               	movf	___lwdiv@divisor,w
  9336     150D  0477               	iorwf	___lwdiv@divisor+1,w
  9337     150E  1903               	btfsc	3,2
  9338     150F  2D11               	goto	u3811
  9339     1510  2D12               	goto	u3810
  9340     1511                     u3811:
  9341     1511  2D49               	goto	l4678
  9342     1512                     u3810:
  9343     1512                     l4660:
  9344     1512  01C6               	clrf	___lwdiv@counter
  9345     1513  0AC6               	incf	___lwdiv@counter,f
  9346     1514  2D20               	goto	l4666
  9347     1515                     l4662:
  9348     1515  3001               	movlw	1
  9349     1516                     u3825:
  9350     1516  1003               	clrc
  9351     1517  0DF6               	rlf	___lwdiv@divisor,f
  9352     1518  0DF7               	rlf	___lwdiv@divisor+1,f
  9353     1519  3EFF               	addlw	-1
  9354     151A  1D03               	skipz
  9355     151B  2D16               	goto	u3825
  9356     151C                     l4664:
  9357     151C  3001               	movlw	1
  9358     151D  00C5               	movwf	??___lwdiv
  9359     151E  0845               	movf	??___lwdiv,w
  9360     151F  07C6               	addwf	___lwdiv@counter,f
  9361     1520                     l4666:
  9362     1520  1FF7               	btfss	___lwdiv@divisor+1,7
  9363     1521  2D23               	goto	u3831
  9364     1522  2D24               	goto	u3830
  9365     1523                     u3831:
  9366     1523  2D15               	goto	l4662
  9367     1524                     u3830:
  9368     1524                     l4668:
  9369     1524  3001               	movlw	1
  9370     1525                     u3845:
  9371     1525  1003               	clrc
  9372     1526  0DC7               	rlf	___lwdiv@quotient,f
  9373     1527  0DC8               	rlf	___lwdiv@quotient+1,f
  9374     1528  3EFF               	addlw	-1
  9375     1529  1D03               	skipz
  9376     152A  2D25               	goto	u3845
  9377     152B  0877               	movf	___lwdiv@divisor+1,w
  9378     152C  0279               	subwf	___lwdiv@dividend+1,w
  9379     152D  1D03               	skipz
  9380     152E  2D31               	goto	u3855
  9381     152F  0876               	movf	___lwdiv@divisor,w
  9382     1530  0278               	subwf	___lwdiv@dividend,w
  9383     1531                     u3855:
  9384     1531  1C03               	skipc
  9385     1532  2D34               	goto	u3851
  9386     1533  2D35               	goto	u3850
  9387     1534                     u3851:
  9388     1534  2D3C               	goto	l4674
  9389     1535                     u3850:
  9390     1535                     l4670:
  9391     1535  0876               	movf	___lwdiv@divisor,w
  9392     1536  02F8               	subwf	___lwdiv@dividend,f
  9393     1537  0877               	movf	___lwdiv@divisor+1,w
  9394     1538  1C03               	skipc
  9395     1539  03F9               	decf	___lwdiv@dividend+1,f
  9396     153A  02F9               	subwf	___lwdiv@dividend+1,f
  9397     153B                     l4672:
  9398     153B  1447               	bsf	___lwdiv@quotient,0
  9399     153C                     l4674:
  9400     153C  3001               	movlw	1
  9401     153D                     u3865:
  9402     153D  1003               	clrc
  9403     153E  0CF7               	rrf	___lwdiv@divisor+1,f
  9404     153F  0CF6               	rrf	___lwdiv@divisor,f
  9405     1540  3EFF               	addlw	-1
  9406     1541  1D03               	skipz
  9407     1542  2D3D               	goto	u3865
  9408     1543                     l4676:
  9409     1543  3001               	movlw	1
  9410     1544  02C6               	subwf	___lwdiv@counter,f
  9411     1545  1D03               	btfss	3,2
  9412     1546  2D48               	goto	u3871
  9413     1547  2D49               	goto	u3870
  9414     1548                     u3871:
  9415     1548  2D24               	goto	l4668
  9416     1549                     u3870:
  9417     1549                     l4678:
  9418     1549  0848               	movf	___lwdiv@quotient+1,w
  9419     154A  00F7               	movwf	?___lwdiv+1
  9420     154B  0847               	movf	___lwdiv@quotient,w
  9421     154C  00F6               	movwf	?___lwdiv
  9422     154D                     l909:
  9423     154D  0008               	return
  9424     154E                     __end_of___lwdiv:
  9425                           
  9426                           	psect	text39
  9427     0E5B                     __ptext39:	
  9428 ;; *************** function _change_password *****************
  9429 ;; Defined at:
  9430 ;;		line 512 in file "car_black_box.c"
  9431 ;; Parameters:    Size  Location     Type
  9432 ;;  key             1    wreg     unsigned char 
  9433 ;;  reset_pwd       1   12[BANK0 ] unsigned char 
  9434 ;; Auto vars:     Size  Location     Type
  9435 ;;  key             1   16[BANK0 ] unsigned char 
  9436 ;; Return value:  Size  Location     Type
  9437 ;;                  1    wreg      unsigned char 
  9438 ;; Registers used:
  9439 ;;		wreg, fsr0l, fsr0h, status,2, status,0, btemp+1, pclath, cstack
  9440 ;; Tracked objects:
  9441 ;;		On entry : 0/0
  9442 ;;		On exit  : 0/0
  9443 ;;		Unchanged: 0/0
  9444 ;; Data sizes:     COMMON   BANK0   BANK1   BANK3   BANK2
  9445 ;;      Params:         0       1       0       0       0
  9446 ;;      Locals:         0       1       0       0       0
  9447 ;;      Temps:          0       3       0       0       0
  9448 ;;      Totals:         0       5       0       0       0
  9449 ;;Total ram usage:        5 bytes
  9450 ;; Hardware stack levels used: 1
  9451 ;; Hardware stack levels required when called: 5
  9452 ;; This function calls:
  9453 ;;		_clcd_print
  9454 ;;		_clcd_putch
  9455 ;;		_clcd_write
  9456 ;;		_eeprom_at24c04_str_write
  9457 ;;		_strncmp
  9458 ;;		_strncpy
  9459 ;; This function is called by:
  9460 ;;		_main
  9461 ;; This function uses a non-reentrant model
  9462 ;;
  9463                           
  9464     0E5B                     _change_password:	
  9465                           ;psect for function _change_password
  9466                           
  9467                           
  9468                           ;incstack = 0
  9469                           ; Regs used in _change_password: [wreg-fsr0h+status,2+status,0+btemp+1+pclath+cstack]
  9470                           ;change_password@key stored from wreg
  9471     0E5B  1283               	bcf	3,5	;RP0=0, select bank0
  9472     0E5C  1303               	bcf	3,6	;RP1=0, select bank0
  9473     0E5D  00D5               	movwf	change_password@key
  9474     0E5E                     l5102:
  9475                           
  9476                           ;car_black_box.c: 512: char change_password(unsigned char key, char reset_pwd);car_black
      +                          _box.c: 513: {;car_black_box.c: 514:     static char new_pwd[9];;car_black_box.c: 515:  
      +                             static int pwd_pos = 0;;car_black_box.c: 516:     static char pwd_changed = 0;;car_bl
      +                          ack_box.c: 517:     static unsigned char toggle_cursor = 0;;car_black_box.c: 518:     st
      +                          atic unsigned int blink_delay = 0;;car_black_box.c: 522:     if (blink_delay++ == 5)
  9477     0E5E  3001               	movlw	1
  9478     0E5F  07AF               	addwf	change_password@blink_delay,f
  9479     0E60  1803               	skipnc
  9480     0E61  0AB0               	incf	change_password@blink_delay+1,f
  9481     0E62  3000               	movlw	0
  9482     0E63  07B0               	addwf	change_password@blink_delay+1,f
  9483     0E64  3006               	movlw	6
  9484     0E65  062F               	xorwf	change_password@blink_delay,w
  9485     0E66  0430               	iorwf	change_password@blink_delay+1,w
  9486     0E67  1D03               	btfss	3,2
  9487     0E68  2E6A               	goto	u4391
  9488     0E69  2E6B               	goto	u4390
  9489     0E6A                     u4391:
  9490     0E6A  2E75               	goto	l5108
  9491     0E6B                     u4390:
  9492     0E6B                     l5104:
  9493                           
  9494                           ;car_black_box.c: 523:     {;car_black_box.c: 524:         blink_delay = 0;
  9495     0E6B  01AF               	clrf	change_password@blink_delay
  9496     0E6C  01B0               	clrf	change_password@blink_delay+1
  9497     0E6D                     l5106:
  9498                           
  9499                           ;car_black_box.c: 525:         toggle_cursor = !toggle_cursor;
  9500     0E6D  083A               	movf	change_password@toggle_cursor,w
  9501     0E6E  1903               	btfsc	3,2
  9502     0E6F  2E71               	goto	u4401
  9503     0E70  2E73               	goto	u4400
  9504     0E71                     u4401:
  9505     0E71  3001               	movlw	1
  9506     0E72  2E74               	goto	u4410
  9507     0E73                     u4400:
  9508     0E73  3000               	movlw	0
  9509     0E74                     u4410:
  9510     0E74  00BA               	movwf	change_password@toggle_cursor
  9511     0E75                     l5108:
  9512                           
  9513                           ;car_black_box.c: 531:     if (reset_pwd == 0x60)
  9514     0E75  3060               	movlw	96
  9515     0E76  0651               	xorwf	change_password@reset_pwd,w
  9516     0E77  1D03               	btfss	3,2
  9517     0E78  2E7A               	goto	u4421
  9518     0E79  2E7B               	goto	u4420
  9519     0E7A                     u4421:
  9520     0E7A  2E90               	goto	l5118
  9521     0E7B                     u4420:
  9522     0E7B                     l5110:
  9523                           
  9524                           ;car_black_box.c: 532:     {;car_black_box.c: 533:         strncpy(new_pwd, "    ", 4);
  9525     0E7B  3031               	movlw	low ((STR_43+13)| (0+32768))
  9526     0E7C  00F2               	movwf	strncpy@from
  9527     0E7D  3087               	movlw	high ((STR_43+13)| (0+32768))
  9528     0E7E  00F3               	movwf	strncpy@from+1
  9529     0E7F  3004               	movlw	4
  9530     0E80  00F4               	movwf	strncpy@size
  9531     0E81  3000               	movlw	0
  9532     0E82  00F5               	movwf	strncpy@size+1
  9533     0E83  30C4               	movlw	(low (change_password@new_pwd| 0))& (0+255)
  9534     0E84  160A  118A  254E  120A  158A  	fcall	_strncpy
  9535     0E89                     l5112:
  9536                           
  9537                           ;car_black_box.c: 534:         pwd_pos = 0;
  9538     0E89  1283               	bcf	3,5	;RP0=0, select bank0
  9539     0E8A  1303               	bcf	3,6	;RP1=0, select bank0
  9540     0E8B  01B1               	clrf	change_password@pwd_pos
  9541     0E8C  01B2               	clrf	change_password@pwd_pos+1
  9542     0E8D                     l5114:
  9543                           
  9544                           ;car_black_box.c: 535:         pwd_changed = 0;
  9545     0E8D  01BB               	clrf	change_password@pwd_changed
  9546     0E8E                     l5116:
  9547                           
  9548                           ;car_black_box.c: 536:         return_time = 5;
  9549     0E8E  3005               	movlw	5
  9550     0E8F  00ED               	movwf	_return_time
  9551     0E90                     l5118:
  9552                           
  9553                           ;car_black_box.c: 541:     if (!return_time)
  9554     0E90  086D               	movf	_return_time,w
  9555     0E91  1D03               	btfss	3,2
  9556     0E92  2E94               	goto	u4431
  9557     0E93  2E95               	goto	u4430
  9558     0E94                     u4431:
  9559     0E94  2E97               	goto	l5124
  9560     0E95                     u4430:
  9561     0E95                     l5120:
  9562                           
  9563                           ;car_black_box.c: 542:         return 0x0A;
  9564     0E95  300A               	movlw	10
  9565     0E96  2FFF               	goto	l390
  9566     0E97                     l5124:
  9567                           
  9568                           ;car_black_box.c: 546:     if (pwd_changed)
  9569     0E97  083B               	movf	change_password@pwd_changed,w
  9570     0E98  1903               	btfsc	3,2
  9571     0E99  2E9B               	goto	u4441
  9572     0E9A  2E9C               	goto	u4440
  9573     0E9B                     u4441:
  9574     0E9B  2E9E               	goto	l5130
  9575     0E9C                     u4440:
  9576     0E9C                     l5126:
  9577                           
  9578                           ;car_black_box.c: 547:         return 0x0D;
  9579     0E9C  300D               	movlw	13
  9580     0E9D  2FFF               	goto	l390
  9581     0E9E                     l5130:
  9582                           
  9583                           ;car_black_box.c: 551:     if (pwd_pos < 4)
  9584     0E9E  0832               	movf	change_password@pwd_pos+1,w
  9585     0E9F  3A80               	xorlw	128
  9586     0EA0  00FF               	movwf	btemp+1
  9587     0EA1  3080               	movlw	128
  9588     0EA2  027F               	subwf	btemp+1,w
  9589     0EA3  1D03               	skipz
  9590     0EA4  2EA7               	goto	u4455
  9591     0EA5  3004               	movlw	4
  9592     0EA6  0231               	subwf	change_password@pwd_pos,w
  9593     0EA7                     u4455:
  9594     0EA7  1803               	skipnc
  9595     0EA8  2EAA               	goto	u4451
  9596     0EA9  2EAB               	goto	u4450
  9597     0EAA                     u4451:
  9598     0EAA  2ED1               	goto	l5140
  9599     0EAB                     u4450:
  9600     0EAB                     l5132:
  9601                           
  9602                           ;car_black_box.c: 552:     {;car_black_box.c: 553:         clcd_print("Enter new pwd:  "
      +                          , (0x80 + 0));
  9603     0EAB  3059               	movlw	low (STR_41| (0+32768))
  9604     0EAC  00F6               	movwf	clcd_print@str
  9605     0EAD  3087               	movlw	high (STR_41| (0+32768))
  9606     0EAE  00F7               	movwf	clcd_print@str+1
  9607     0EAF  3080               	movlw	128
  9608     0EB0  00F8               	movwf	clcd_print@addr
  9609     0EB1  160A  118A  231D  120A  158A  	fcall	_clcd_print
  9610     0EB6                     l5134:
  9611                           
  9612                           ;car_black_box.c: 556:         if (toggle_cursor == 0)
  9613     0EB6  1283               	bcf	3,5	;RP0=0, select bank0
  9614     0EB7  1303               	bcf	3,6	;RP1=0, select bank0
  9615     0EB8  083A               	movf	change_password@toggle_cursor,w
  9616     0EB9  1D03               	btfss	3,2
  9617     0EBA  2EBC               	goto	u4461
  9618     0EBB  2EBD               	goto	u4460
  9619     0EBC                     u4461:
  9620     0EBC  2EC7               	goto	l5138
  9621     0EBD                     u4460:
  9622     0EBD                     l5136:
  9623                           
  9624                           ;car_black_box.c: 557:         {;car_black_box.c: 558:             clcd_putch((unsigned 
      +                          char) 0xFF, (0xC0 + pwd_pos));
  9625     0EBD  0831               	movf	change_password@pwd_pos,w
  9626     0EBE  3EC0               	addlw	192
  9627     0EBF  00CF               	movwf	clcd_putch@addr
  9628     0EC0  30FF               	movlw	255
  9629     0EC1  160A  118A  218A  120A  158A  	fcall	_clcd_putch
  9630                           
  9631                           ;car_black_box.c: 559:         }
  9632     0EC6  2F6D               	goto	l5178
  9633     0EC7                     l5138:
  9634                           
  9635                           ;car_black_box.c: 561:         {;car_black_box.c: 562:             clcd_putch(' ', (0xC0
      +                           + pwd_pos));
  9636     0EC7  0831               	movf	change_password@pwd_pos,w
  9637     0EC8  3EC0               	addlw	192
  9638     0EC9  00CF               	movwf	clcd_putch@addr
  9639     0ECA  3020               	movlw	32
  9640     0ECB  160A  118A  218A  120A  158A  	fcall	_clcd_putch
  9641     0ED0  2F6D               	goto	l5178
  9642     0ED1                     l5140:
  9643     0ED1  1283               	bcf	3,5	;RP0=0, select bank0
  9644     0ED2  1303               	bcf	3,6	;RP1=0, select bank0
  9645     0ED3  0832               	movf	change_password@pwd_pos+1,w
  9646     0ED4  3A80               	xorlw	128
  9647     0ED5  00FF               	movwf	btemp+1
  9648     0ED6  3080               	movlw	128
  9649     0ED7  027F               	subwf	btemp+1,w
  9650     0ED8  1D03               	skipz
  9651     0ED9  2EDC               	goto	u4475
  9652     0EDA  3004               	movlw	4
  9653     0EDB  0231               	subwf	change_password@pwd_pos,w
  9654     0EDC                     u4475:
  9655     0EDC  1C03               	skipc
  9656     0EDD  2EDF               	goto	u4471
  9657     0EDE  2EE0               	goto	u4470
  9658     0EDF                     u4471:
  9659     0EDF  2F6D               	goto	l5178
  9660     0EE0                     u4470:
  9661     0EE0                     l5142:
  9662     0EE0  1283               	bcf	3,5	;RP0=0, select bank0
  9663     0EE1  1303               	bcf	3,6	;RP1=0, select bank0
  9664     0EE2  0832               	movf	change_password@pwd_pos+1,w
  9665     0EE3  3A80               	xorlw	128
  9666     0EE4  00FF               	movwf	btemp+1
  9667     0EE5  3080               	movlw	128
  9668     0EE6  027F               	subwf	btemp+1,w
  9669     0EE7  1D03               	skipz
  9670     0EE8  2EEB               	goto	u4485
  9671     0EE9  3008               	movlw	8
  9672     0EEA  0231               	subwf	change_password@pwd_pos,w
  9673     0EEB                     u4485:
  9674     0EEB  1803               	skipnc
  9675     0EEC  2EEE               	goto	u4481
  9676     0EED  2EEF               	goto	u4480
  9677     0EEE                     u4481:
  9678     0EEE  2F6D               	goto	l5178
  9679     0EEF                     u4480:
  9680     0EEF                     l5144:
  9681                           
  9682                           ;car_black_box.c: 566:     {;car_black_box.c: 567:         clcd_print("Re-enter new pwd"
      +                          , (0x80 + 0));
  9683     0EEF  30AE               	movlw	low (STR_42| (0+32768))
  9684     0EF0  00F6               	movwf	clcd_print@str
  9685     0EF1  3087               	movlw	high (STR_42| (0+32768))
  9686     0EF2  00F7               	movwf	clcd_print@str+1
  9687     0EF3  3080               	movlw	128
  9688     0EF4  00F8               	movwf	clcd_print@addr
  9689     0EF5  160A  118A  231D  120A  158A  	fcall	_clcd_print
  9690     0EFA                     l5146:
  9691                           
  9692                           ;car_black_box.c: 570:         if (toggle_cursor == 0)
  9693     0EFA  1283               	bcf	3,5	;RP0=0, select bank0
  9694     0EFB  1303               	bcf	3,6	;RP1=0, select bank0
  9695     0EFC  083A               	movf	change_password@toggle_cursor,w
  9696     0EFD  1D03               	btfss	3,2
  9697     0EFE  2F00               	goto	u4491
  9698     0EFF  2F01               	goto	u4490
  9699     0F00                     u4491:
  9700     0F00  2F0B               	goto	l5150
  9701     0F01                     u4490:
  9702     0F01                     l5148:
  9703                           
  9704                           ;car_black_box.c: 571:         {;car_black_box.c: 572:             clcd_putch((unsigned 
      +                          char) 0xFF, (0xC0 + pwd_pos));
  9705     0F01  0831               	movf	change_password@pwd_pos,w
  9706     0F02  3EC0               	addlw	192
  9707     0F03  00CF               	movwf	clcd_putch@addr
  9708     0F04  30FF               	movlw	255
  9709     0F05  160A  118A  218A  120A  158A  	fcall	_clcd_putch
  9710                           
  9711                           ;car_black_box.c: 573:         }
  9712     0F0A  2F6D               	goto	l5178
  9713     0F0B                     l5150:
  9714                           
  9715                           ;car_black_box.c: 575:         {;car_black_box.c: 576:             clcd_putch(' ', (0xC0
      +                           + pwd_pos));
  9716     0F0B  0831               	movf	change_password@pwd_pos,w
  9717     0F0C  3EC0               	addlw	192
  9718     0F0D  00CF               	movwf	clcd_putch@addr
  9719     0F0E  3020               	movlw	32
  9720     0F0F  160A  118A  218A  120A  158A  	fcall	_clcd_putch
  9721     0F14  2F6D               	goto	l5178
  9722     0F15                     l5152:
  9723                           
  9724                           ;car_black_box.c: 585:             new_pwd[pwd_pos] = '0';
  9725     0F15  0831               	movf	change_password@pwd_pos,w
  9726     0F16  3EC4               	addlw	(low (change_password@new_pwd| 0))& (0+255)
  9727     0F17  0084               	movwf	4
  9728     0F18  3030               	movlw	48
  9729     0F19  1383               	bcf	3,7	;select IRP bank1
  9730     0F1A  0080               	movwf	0
  9731     0F1B                     l5154:
  9732                           
  9733                           ;car_black_box.c: 586:             clcd_putch('*', (0xC0 + pwd_pos));
  9734     0F1B  0831               	movf	change_password@pwd_pos,w
  9735     0F1C  3EC0               	addlw	192
  9736     0F1D  00CF               	movwf	clcd_putch@addr
  9737     0F1E  302A               	movlw	42
  9738     0F1F  160A  118A  218A  120A  158A  	fcall	_clcd_putch
  9739     0F24                     l5156:
  9740                           
  9741                           ;car_black_box.c: 587:             pwd_pos++;
  9742     0F24  3001               	movlw	1
  9743     0F25  1283               	bcf	3,5	;RP0=0, select bank0
  9744     0F26  1303               	bcf	3,6	;RP1=0, select bank0
  9745     0F27  07B1               	addwf	change_password@pwd_pos,f
  9746     0F28  1803               	skipnc
  9747     0F29  0AB2               	incf	change_password@pwd_pos+1,f
  9748     0F2A  3000               	movlw	0
  9749     0F2B  07B2               	addwf	change_password@pwd_pos+1,f
  9750     0F2C                     l5158:
  9751                           
  9752                           ;car_black_box.c: 588:             return_time = 5;
  9753     0F2C  3005               	movlw	5
  9754     0F2D  00ED               	movwf	_return_time
  9755     0F2E                     l5160:
  9756                           
  9757                           ;car_black_box.c: 589:             if (pwd_pos == 4)
  9758     0F2E  3004               	movlw	4
  9759     0F2F  0631               	xorwf	change_password@pwd_pos,w
  9760     0F30  0432               	iorwf	change_password@pwd_pos+1,w
  9761     0F31  1D03               	btfss	3,2
  9762     0F32  2F34               	goto	u4501
  9763     0F33  2F35               	goto	u4500
  9764     0F34                     u4501:
  9765     0F34  2F7F               	goto	l5180
  9766     0F35                     u4500:
  9767     0F35                     l5162:
  9768                           
  9769                           ;car_black_box.c: 590:                 clcd_print("                 ", (0xC0 + 0));
  9770     0F35  3024               	movlw	low (STR_43| (0+32768))
  9771     0F36  00F6               	movwf	clcd_print@str
  9772     0F37  3087               	movlw	high (STR_43| (0+32768))
  9773     0F38  00F7               	movwf	clcd_print@str+1
  9774     0F39  30C0               	movlw	192
  9775     0F3A  00F8               	movwf	clcd_print@addr
  9776     0F3B  160A  118A  231D  120A  158A  	fcall	_clcd_print
  9777     0F40  2F7F               	goto	l5180
  9778     0F41                     l5164:
  9779                           
  9780                           ;car_black_box.c: 594:             new_pwd[pwd_pos] = '1';
  9781     0F41  0831               	movf	change_password@pwd_pos,w
  9782     0F42  3EC4               	addlw	(low (change_password@new_pwd| 0))& (0+255)
  9783     0F43  0084               	movwf	4
  9784     0F44  3031               	movlw	49
  9785     0F45  1383               	bcf	3,7	;select IRP bank1
  9786     0F46  0080               	movwf	0
  9787     0F47                     l5166:
  9788                           
  9789                           ;car_black_box.c: 595:             clcd_putch('*', (0xC0 + pwd_pos));
  9790     0F47  0831               	movf	change_password@pwd_pos,w
  9791     0F48  3EC0               	addlw	192
  9792     0F49  00CF               	movwf	clcd_putch@addr
  9793     0F4A  302A               	movlw	42
  9794     0F4B  160A  118A  218A  120A  158A  	fcall	_clcd_putch
  9795     0F50                     l5168:
  9796                           
  9797                           ;car_black_box.c: 596:             pwd_pos++;
  9798     0F50  3001               	movlw	1
  9799     0F51  1283               	bcf	3,5	;RP0=0, select bank0
  9800     0F52  1303               	bcf	3,6	;RP1=0, select bank0
  9801     0F53  07B1               	addwf	change_password@pwd_pos,f
  9802     0F54  1803               	skipnc
  9803     0F55  0AB2               	incf	change_password@pwd_pos+1,f
  9804     0F56  3000               	movlw	0
  9805     0F57  07B2               	addwf	change_password@pwd_pos+1,f
  9806     0F58                     l5170:
  9807                           
  9808                           ;car_black_box.c: 597:             return_time = 5;
  9809     0F58  3005               	movlw	5
  9810     0F59  00ED               	movwf	_return_time
  9811     0F5A                     l5172:
  9812                           
  9813                           ;car_black_box.c: 598:             if (pwd_pos == 4)
  9814     0F5A  3004               	movlw	4
  9815     0F5B  0631               	xorwf	change_password@pwd_pos,w
  9816     0F5C  0432               	iorwf	change_password@pwd_pos+1,w
  9817     0F5D  1D03               	btfss	3,2
  9818     0F5E  2F60               	goto	u4511
  9819     0F5F  2F61               	goto	u4510
  9820     0F60                     u4511:
  9821     0F60  2F7F               	goto	l5180
  9822     0F61                     u4510:
  9823     0F61                     l5174:
  9824                           
  9825                           ;car_black_box.c: 599:                 clcd_print("                 ", (0xC0 + 0));
  9826     0F61  3024               	movlw	low (STR_43| (0+32768))
  9827     0F62  00F6               	movwf	clcd_print@str
  9828     0F63  3087               	movlw	high (STR_43| (0+32768))
  9829     0F64  00F7               	movwf	clcd_print@str+1
  9830     0F65  30C0               	movlw	192
  9831     0F66  00F8               	movwf	clcd_print@addr
  9832     0F67  160A  118A  231D  120A  158A  	fcall	_clcd_print
  9833     0F6C  2F7F               	goto	l5180
  9834     0F6D                     l5178:
  9835     0F6D  1283               	bcf	3,5	;RP0=0, select bank0
  9836     0F6E  1303               	bcf	3,6	;RP1=0, select bank0
  9837     0F6F  0855               	movf	change_password@key,w
  9838     0F70  00D2               	movwf	??_change_password
  9839     0F71  01D3               	clrf	??_change_password+1
  9840                           
  9841                           ; Switch on 2 bytes has been partitioned into a top level switch of size 1, and 1 sub-sw
      +                          itches
  9842                           ; Switch size 1, requested type "simple"
  9843                           ; Number of cases is 1, Range of values is 0 to 0
  9844                           ; switch strategies available:
  9845                           ; Name         Instructions Cycles
  9846                           ; simple_byte            4     3 (average)
  9847                           ; direct_byte           11     8 (fixed)
  9848                           ; jumptable            260     6 (fixed)
  9849                           ;	Chosen strategy is simple_byte
  9850     0F72  0853               	movf	??_change_password+1,w
  9851     0F73  3A00               	xorlw	0	; case 0
  9852     0F74  1903               	skipnz
  9853     0F75  2F77               	goto	l5844
  9854     0F76  2F7F               	goto	l5180
  9855     0F77                     l5844:
  9856                           
  9857                           ; Switch size 1, requested type "simple"
  9858                           ; Number of cases is 2, Range of values is 47 to 55
  9859                           ; switch strategies available:
  9860                           ; Name         Instructions Cycles
  9861                           ; simple_byte            7     4 (average)
  9862                           ; direct_byte           38    11 (fixed)
  9863                           ; jumptable            263     9 (fixed)
  9864                           ;	Chosen strategy is simple_byte
  9865     0F77  0852               	movf	??_change_password,w
  9866     0F78  3A2F               	xorlw	47	; case 47
  9867     0F79  1903               	skipnz
  9868     0F7A  2F15               	goto	l5152
  9869     0F7B  3A18               	xorlw	24	; case 55
  9870     0F7C  1903               	skipnz
  9871     0F7D  2F41               	goto	l5164
  9872     0F7E  2F7F               	goto	l5180
  9873     0F7F                     l5180:
  9874                           
  9875                           ;car_black_box.c: 605:     if (pwd_pos == 8)
  9876     0F7F  3008               	movlw	8
  9877     0F80  1283               	bcf	3,5	;RP0=0, select bank0
  9878     0F81  1303               	bcf	3,6	;RP1=0, select bank0
  9879     0F82  0631               	xorwf	change_password@pwd_pos,w
  9880     0F83  0432               	iorwf	change_password@pwd_pos+1,w
  9881     0F84  1D03               	btfss	3,2
  9882     0F85  2F87               	goto	u4521
  9883     0F86  2F88               	goto	u4520
  9884     0F87                     u4521:
  9885     0F87  2E9C               	goto	l5126
  9886     0F88                     u4520:
  9887     0F88                     l5182:
  9888                           
  9889                           ;car_black_box.c: 606:     {;car_black_box.c: 607:         if (strncmp(new_pwd, &new_pwd
      +                          [4], 4) == 0)
  9890     0F88  30C8               	movlw	(low ((change_password@new_pwd| 0+4)))& (0+255)
  9891     0F89  00F2               	movwf	strncmp@s2
  9892     0F8A  3004               	movlw	4
  9893     0F8B  00F3               	movwf	strncmp@len
  9894     0F8C  3000               	movlw	0
  9895     0F8D  00F4               	movwf	strncmp@len+1
  9896     0F8E  30C4               	movlw	(low (change_password@new_pwd| 0))& (0+255)
  9897     0F8F  160A  118A  248B  120A  158A  	fcall	_strncmp
  9898     0F94  0872               	movf	?_strncmp,w
  9899     0F95  0473               	iorwf	?_strncmp+1,w
  9900     0F96  1D03               	btfss	3,2
  9901     0F97  2F99               	goto	u4531
  9902     0F98  2F9A               	goto	u4530
  9903     0F99                     u4531:
  9904     0F99  2FE1               	goto	l5206
  9905     0F9A                     u4530:
  9906     0F9A                     l5184:
  9907                           
  9908                           ;car_black_box.c: 608:         {;car_black_box.c: 610:             new_pwd[8] = 0;
  9909     0F9A  1683               	bsf	3,5	;RP0=1, select bank1
  9910     0F9B  1303               	bcf	3,6	;RP1=0, select bank1
  9911     0F9C  01CC               	clrf	(change_password@new_pwd^(0+128)+8)
  9912     0F9D                     l5186:
  9913                           
  9914                           ;car_black_box.c: 611:             eeprom_at24c04_str_write(0x00, &new_pwd[4]);
  9915     0F9D  30C8               	movlw	(low ((change_password@new_pwd| 0+4)))& (0+255)
  9916     0F9E  00F7               	movwf	eeprom_at24c04_str_write@data
  9917     0F9F  3000               	movlw	0
  9918     0FA0  00F8               	movwf	eeprom_at24c04_str_write@data+1
  9919     0FA1  3000               	movlw	0
  9920     0FA2  160A  118A  234C  120A  158A  	fcall	_eeprom_at24c04_str_write
  9921     0FA7                     l5188:
  9922                           
  9923                           ;car_black_box.c: 612:             pwd_pos++;
  9924     0FA7  3001               	movlw	1
  9925     0FA8  1283               	bcf	3,5	;RP0=0, select bank0
  9926     0FA9  1303               	bcf	3,6	;RP1=0, select bank0
  9927     0FAA  07B1               	addwf	change_password@pwd_pos,f
  9928     0FAB  1803               	skipnc
  9929     0FAC  0AB2               	incf	change_password@pwd_pos+1,f
  9930     0FAD  3000               	movlw	0
  9931     0FAE  07B2               	addwf	change_password@pwd_pos+1,f
  9932     0FAF                     l5190:
  9933                           
  9934                           ;car_black_box.c: 613:             clcd_write(0x01, 0);
  9935     0FAF  01F2               	clrf	clcd_write@mode
  9936     0FB0  3001               	movlw	1
  9937     0FB1  160A  118A  21EB  120A  158A  	fcall	_clcd_write
  9938     0FB6                     l5192:
  9939                           
  9940                           ;car_black_box.c: 614:             clcd_print("Password changed", (0x80 + 0));
  9941     0FB6  308C               	movlw	low (STR_45| (0+32768))
  9942     0FB7  00F6               	movwf	clcd_print@str
  9943     0FB8  3087               	movlw	high (STR_45| (0+32768))
  9944     0FB9  00F7               	movwf	clcd_print@str+1
  9945     0FBA  3080               	movlw	128
  9946     0FBB  00F8               	movwf	clcd_print@addr
  9947     0FBC  160A  118A  231D  120A  158A  	fcall	_clcd_print
  9948     0FC1                     l5194:
  9949                           
  9950                           ;car_black_box.c: 615:             clcd_print("successfully ", (0xC0 + 2));
  9951     0FC1  3054               	movlw	low (STR_46| (0+32768))
  9952     0FC2  00F6               	movwf	clcd_print@str
  9953     0FC3  3088               	movlw	high (STR_46| (0+32768))
  9954     0FC4  00F7               	movwf	clcd_print@str+1
  9955     0FC5  30C2               	movlw	194
  9956     0FC6  00F8               	movwf	clcd_print@addr
  9957     0FC7  160A  118A  231D  120A  158A  	fcall	_clcd_print
  9958     0FCC                     l5196:
  9959                           
  9960                           ;car_black_box.c: 616:             pwd_changed = 1;
  9961     0FCC  1283               	bcf	3,5	;RP0=0, select bank0
  9962     0FCD  1303               	bcf	3,6	;RP1=0, select bank0
  9963     0FCE  01BB               	clrf	change_password@pwd_changed
  9964     0FCF  0ABB               	incf	change_password@pwd_changed,f
  9965     0FD0                     l5198:
  9966                           
  9967                           ;car_black_box.c: 617:             _delay((unsigned long)((1000)*(20000000/4000.0)));
  9968     0FD0  301A               	movlw	26
  9969     0FD1  1283               	bcf	3,5	;RP0=0, select bank0
  9970     0FD2  1303               	bcf	3,6	;RP1=0, select bank0
  9971     0FD3  00D4               	movwf	??_change_password+2
  9972     0FD4  305E               	movlw	94
  9973     0FD5  00D3               	movwf	??_change_password+1
  9974     0FD6  306D               	movlw	109
  9975     0FD7  00D2               	movwf	??_change_password
  9976     0FD8                     u5067:
  9977     0FD8  0BD2               	decfsz	??_change_password,f
  9978     0FD9  2FD8               	goto	u5067
  9979     0FDA  0BD3               	decfsz	??_change_password+1,f
  9980     0FDB  2FD8               	goto	u5067
  9981     0FDC  0BD4               	decfsz	??_change_password+2,f
  9982     0FDD  2FD8               	goto	u5067
  9983     0FDE  2FDF               	nop2
  9984     0FDF                     l5200:
  9985                           
  9986                           ;car_black_box.c: 618:             return 0x0C;
  9987     0FDF  300C               	movlw	12
  9988     0FE0  2FFF               	goto	l390
  9989     0FE1                     l5206:
  9990                           
  9991                           ;car_black_box.c: 621:         {;car_black_box.c: 623:             clcd_write(0x01, 0);
  9992     0FE1  01F2               	clrf	clcd_write@mode
  9993     0FE2  3001               	movlw	1
  9994     0FE3  160A  118A  21EB  120A  158A  	fcall	_clcd_write
  9995     0FE8                     l5208:
  9996                           
  9997                           ;car_black_box.c: 624:             clcd_print("Password  change", (0x80 + 0));
  9998     0FE8  30BF               	movlw	low (STR_47| (0+32768))
  9999     0FE9  00F6               	movwf	clcd_print@str
 10000     0FEA  3087               	movlw	high (STR_47| (0+32768))
 10001     0FEB  00F7               	movwf	clcd_print@str+1
 10002     0FEC  3080               	movlw	128
 10003     0FED  00F8               	movwf	clcd_print@addr
 10004     0FEE  160A  118A  231D  120A  158A  	fcall	_clcd_print
 10005     0FF3                     l5210:
 10006                           
 10007                           ;car_black_box.c: 625:             clcd_print("failed", (0xC0 + 5));
 10008     0FF3  30C6               	movlw	low (STR_48| (0+32768))
 10009     0FF4  00F6               	movwf	clcd_print@str
 10010     0FF5  3088               	movlw	high (STR_48| (0+32768))
 10011     0FF6  00F7               	movwf	clcd_print@str+1
 10012     0FF7  30C5               	movlw	197
 10013     0FF8  00F8               	movwf	clcd_print@addr
 10014     0FF9  160A  118A  231D  120A  158A  	fcall	_clcd_print
 10015     0FFE  2FCC               	goto	l5196
 10016     0FFF                     l390:
 10017     0FFF  0008               	return
 10018     1000                     __end_of_change_password:
 10019                           
 10020                           	psect	text40
 10021     154E                     __ptext40:	
 10022 ;; *************** function _strncpy *****************
 10023 ;; Defined at:
 10024 ;;		line 8 in file "C:\Program Files\Microchip\xc8\v2.40\pic\sources\c90\common\strncpy.c"
 10025 ;; Parameters:    Size  Location     Type
 10026 ;;  to              1    wreg     PTR unsigned char 
 10027 ;;		 -> change_password@new_pwd(9), log(11), 
 10028 ;;  from            2    2[COMMON] PTR const unsigned char 
 10029 ;;		 -> STR_40(5), time(7), STR_16(3), STR_15(3), 
 10030 ;;		 -> STR_14(3), STR_11(3), main@event(3), 
 10031 ;;  size            2    4[COMMON] unsigned int 
 10032 ;; Auto vars:     Size  Location     Type
 10033 ;;  to              1    0[BANK0 ] PTR unsigned char 
 10034 ;;		 -> change_password@new_pwd(9), log(11), 
 10035 ;;  cp              1    1[BANK0 ] PTR unsigned char 
 10036 ;;		 -> change_password@new_pwd(9), log(11), 
 10037 ;; Return value:  Size  Location     Type
 10038 ;;                  1    wreg      PTR unsigned char 
 10039 ;; Registers used:
 10040 ;;		wreg, fsr0l, fsr0h, status,2, status,0, btemp+1, pclath
 10041 ;; Tracked objects:
 10042 ;;		On entry : 0/0
 10043 ;;		On exit  : 0/0
 10044 ;;		Unchanged: 0/0
 10045 ;; Data sizes:     COMMON   BANK0   BANK1   BANK3   BANK2
 10046 ;;      Params:         4       0       0       0       0
 10047 ;;      Locals:         0       2       0       0       0
 10048 ;;      Temps:          3       0       0       0       0
 10049 ;;      Totals:         7       2       0       0       0
 10050 ;;Total ram usage:        9 bytes
 10051 ;; Hardware stack levels used: 2
 10052 ;; Hardware stack levels required when called: 1
 10053 ;; This function calls:
 10054 ;;		Nothing
 10055 ;; This function is called by:
 10056 ;;		_log_car_event
 10057 ;;		_change_password
 10058 ;; This function uses a non-reentrant model
 10059 ;;
 10060                           
 10061     154E                     _strncpy:	
 10062                           ;psect for function _strncpy
 10063                           
 10064                           
 10065                           ;incstack = 0
 10066                           ; Regs used in _strncpy: [wreg-fsr0h+status,2+status,0+btemp+1+pclath]
 10067                           ;strncpy@to stored from wreg
 10068     154E  1283               	bcf	3,5	;RP0=0, select bank0
 10069     154F  1303               	bcf	3,6	;RP1=0, select bank0
 10070     1550  00C5               	movwf	strncpy@to
 10071     1551                     l4500:
 10072     1551  0845               	movf	strncpy@to,w
 10073     1552  00C6               	movwf	strncpy@cp
 10074     1553  2D78               	goto	l4508
 10075     1554                     l4502:
 10076     1554  3001               	movlw	1
 10077     1555  02F4               	subwf	strncpy@size,f
 10078     1556  3000               	movlw	0
 10079     1557  1C03               	skipc
 10080     1558  03F5               	decf	strncpy@size+1,f
 10081     1559  02F5               	subwf	strncpy@size+1,f
 10082     155A                     l4504:
 10083     155A  0873               	movf	strncpy@from+1,w
 10084     155B  00F7               	movwf	??_strncpy+1
 10085     155C  0872               	movf	strncpy@from,w
 10086     155D  00F6               	movwf	??_strncpy
 10087     155E  0AF2               	incf	strncpy@from,f
 10088     155F  1903               	skipnz
 10089     1560  0AF3               	incf	strncpy@from+1,f
 10090     1561  0877               	movf	??_strncpy+1,w
 10091     1562  00FF               	movwf	btemp+1
 10092     1563  0876               	movf	??_strncpy,w
 10093     1564  0084               	movwf	4
 10094     1565  160A  118A  2000  160A  118A  	fcall	stringtab
 10095     156A  00F8               	movwf	??_strncpy+2
 10096     156B  0846               	movf	strncpy@cp,w
 10097     156C  0084               	movwf	4
 10098     156D  3001               	movlw	1
 10099     156E  07C6               	addwf	strncpy@cp,f
 10100     156F  0878               	movf	??_strncpy+2,w
 10101     1570  1383               	bcf	3,7	;select IRP bank0
 10102     1571  0080               	movwf	0
 10103     1572  0800               	movf	0,w
 10104     1573  1D03               	btfss	3,2
 10105     1574  2D76               	goto	u3511
 10106     1575  2D77               	goto	u3510
 10107     1576                     u3511:
 10108     1576  2D78               	goto	l4508
 10109     1577                     u3510:
 10110     1577  2D87               	goto	l4514
 10111     1578                     l4508:
 10112     1578  0874               	movf	strncpy@size,w
 10113     1579  0475               	iorwf	strncpy@size+1,w
 10114     157A  1D03               	btfss	3,2
 10115     157B  2D7D               	goto	u3521
 10116     157C  2D7E               	goto	u3520
 10117     157D                     u3521:
 10118     157D  2D54               	goto	l4502
 10119     157E                     u3520:
 10120     157E  2D87               	goto	l4514
 10121     157F                     l4510:
 10122     157F  0846               	movf	strncpy@cp,w
 10123     1580  0084               	movwf	4
 10124     1581  1383               	bcf	3,7	;select IRP bank0
 10125     1582  0180               	clrf	0
 10126     1583                     l4512:
 10127     1583  3001               	movlw	1
 10128     1584  00F6               	movwf	??_strncpy
 10129     1585  0876               	movf	??_strncpy,w
 10130     1586  07C6               	addwf	strncpy@cp,f
 10131     1587                     l4514:
 10132     1587  3001               	movlw	1
 10133     1588  02F4               	subwf	strncpy@size,f
 10134     1589  3000               	movlw	0
 10135     158A  1C03               	skipc
 10136     158B  03F5               	decf	strncpy@size+1,f
 10137     158C  02F5               	subwf	strncpy@size+1,f
 10138     158D  0A74               	incf	strncpy@size,w
 10139     158E  1D03               	skipz
 10140     158F  2D94               	goto	u3531
 10141     1590  0A75               	incf	strncpy@size+1,w
 10142     1591  1D03               	btfss	3,2
 10143     1592  2D94               	goto	u3531
 10144     1593  2D95               	goto	u3530
 10145     1594                     u3531:
 10146     1594  2D7F               	goto	l4510
 10147     1595                     u3530:
 10148     1595                     l1110:
 10149     1595  0008               	return
 10150     1596                     __end_of_strncpy:
 10151                           
 10152                           	psect	text41
 10153     148B                     __ptext41:	
 10154 ;; *************** function _strncmp *****************
 10155 ;; Defined at:
 10156 ;;		line 4 in file "C:\Program Files\Microchip\xc8\v2.40\pic\sources\c90\common\strncmp.c"
 10157 ;; Parameters:    Size  Location     Type
 10158 ;;  s1              1    wreg     PTR const unsigned char 
 10159 ;;		 -> change_password@new_pwd(9), login@spassword(4), 
 10160 ;;  s2              1    2[COMMON] PTR const unsigned char 
 10161 ;;		 -> change_password@new_pwd(9), login@npassword(4), 
 10162 ;;  len             2    3[COMMON] unsigned int 
 10163 ;; Auto vars:     Size  Location     Type
 10164 ;;  s1              1    7[COMMON] PTR const unsigned char 
 10165 ;;		 -> change_password@new_pwd(9), login@spassword(4), 
 10166 ;; Return value:  Size  Location     Type
 10167 ;;                  2    2[COMMON] int 
 10168 ;; Registers used:
 10169 ;;		wreg, fsr0l, fsr0h, status,2, status,0
 10170 ;; Tracked objects:
 10171 ;;		On entry : 0/0
 10172 ;;		On exit  : 0/0
 10173 ;;		Unchanged: 0/0
 10174 ;; Data sizes:     COMMON   BANK0   BANK1   BANK3   BANK2
 10175 ;;      Params:         3       0       0       0       0
 10176 ;;      Locals:         1       0       0       0       0
 10177 ;;      Temps:          2       0       0       0       0
 10178 ;;      Totals:         6       0       0       0       0
 10179 ;;Total ram usage:        6 bytes
 10180 ;; Hardware stack levels used: 1
 10181 ;; Hardware stack levels required when called: 1
 10182 ;; This function calls:
 10183 ;;		Nothing
 10184 ;; This function is called by:
 10185 ;;		_login
 10186 ;;		_change_password
 10187 ;; This function uses a non-reentrant model
 10188 ;;
 10189                           
 10190     148B                     _strncmp:	
 10191                           ;psect for function _strncmp
 10192                           
 10193                           
 10194                           ;incstack = 0
 10195                           ; Regs used in _strncmp: [wreg-fsr0h+status,2+status,0]
 10196                           ;strncmp@s1 stored from wreg
 10197     148B  00F7               	movwf	strncmp@s1
 10198     148C                     l4536:
 10199     148C  2CB8               	goto	l1094
 10200     148D                     l4538:
 10201     148D  0877               	movf	strncmp@s1,w
 10202     148E  0084               	movwf	4
 10203     148F  1383               	bcf	3,7	;select IRP bank0
 10204     1490  0800               	movf	0,w
 10205     1491  1903               	btfsc	3,2
 10206     1492  2C94               	goto	u3541
 10207     1493  2C95               	goto	u3540
 10208     1494                     u3541:
 10209     1494  2CA1               	goto	l4542
 10210     1495                     u3540:
 10211     1495                     l4540:
 10212     1495  0872               	movf	strncmp@s2,w
 10213     1496  0084               	movwf	4
 10214     1497  0800               	movf	0,w
 10215     1498  00F5               	movwf	??_strncmp
 10216     1499  0877               	movf	strncmp@s1,w
 10217     149A  0084               	movwf	4
 10218     149B  0800               	movf	0,w
 10219     149C  0675               	xorwf	??_strncmp,w
 10220     149D  1903               	skipnz
 10221     149E  2CA0               	goto	u3551
 10222     149F  2CA1               	goto	u3550
 10223     14A0                     u3551:
 10224     14A0  2CB0               	goto	l4546
 10225     14A1                     u3550:
 10226     14A1                     l4542:
 10227     14A1  0872               	movf	strncmp@s2,w
 10228     14A2  0084               	movwf	4
 10229     14A3  0800               	movf	0,w
 10230     14A4  00F5               	movwf	??_strncmp
 10231     14A5  0877               	movf	strncmp@s1,w
 10232     14A6  0084               	movwf	4
 10233     14A7  0800               	movf	0,w
 10234     14A8  00F6               	movwf	??_strncmp+1
 10235     14A9  0875               	movf	??_strncmp,w
 10236     14AA  0276               	subwf	??_strncmp+1,w
 10237     14AB  00F2               	movwf	?_strncmp
 10238     14AC  01F3               	clrf	?_strncmp+1
 10239     14AD  1C03               	skipc
 10240     14AE  03F3               	decf	?_strncmp+1,f
 10241     14AF  2CC8               	goto	l1099
 10242     14B0                     l4546:
 10243     14B0  3001               	movlw	1
 10244     14B1  00F5               	movwf	??_strncmp
 10245     14B2  0875               	movf	??_strncmp,w
 10246     14B3  07F7               	addwf	strncmp@s1,f
 10247     14B4  3001               	movlw	1
 10248     14B5  00F5               	movwf	??_strncmp
 10249     14B6  0875               	movf	??_strncmp,w
 10250     14B7  07F2               	addwf	strncmp@s2,f
 10251     14B8                     l1094:
 10252     14B8  3001               	movlw	1
 10253     14B9  02F3               	subwf	strncmp@len,f
 10254     14BA  3000               	movlw	0
 10255     14BB  1C03               	skipc
 10256     14BC  03F4               	decf	strncmp@len+1,f
 10257     14BD  02F4               	subwf	strncmp@len+1,f
 10258     14BE  0A73               	incf	strncmp@len,w
 10259     14BF  1D03               	skipz
 10260     14C0  2CC5               	goto	u3561
 10261     14C1  0A74               	incf	strncmp@len+1,w
 10262     14C2  1D03               	btfss	3,2
 10263     14C3  2CC5               	goto	u3561
 10264     14C4  2CC6               	goto	u3560
 10265     14C5                     u3561:
 10266     14C5  2C8D               	goto	l4538
 10267     14C6                     u3560:
 10268     14C6                     l4548:
 10269     14C6  01F2               	clrf	?_strncmp
 10270     14C7  01F3               	clrf	?_strncmp+1
 10271     14C8                     l1099:
 10272     14C8  0008               	return
 10273     14C9                     __end_of_strncmp:
 10274                           
 10275                           	psect	text42
 10276     134C                     __ptext42:	
 10277 ;; *************** function _eeprom_at24c04_str_write *****************
 10278 ;; Defined at:
 10279 ;;		line 31 in file "at24c04.c"
 10280 ;; Parameters:    Size  Location     Type
 10281 ;;  memory_loc      1    wreg     unsigned char 
 10282 ;;  data            2    7[COMMON] PTR unsigned char 
 10283 ;;		 -> change_password@new_pwd(9), log(11), STR_7(5), 
 10284 ;; Auto vars:     Size  Location     Type
 10285 ;;  memory_loc      1    0[BANK0 ] unsigned char 
 10286 ;; Return value:  Size  Location     Type
 10287 ;;                  1    wreg      void 
 10288 ;; Registers used:
 10289 ;;		wreg, fsr0l, fsr0h, status,2, status,0, btemp+1, pclath, cstack
 10290 ;; Tracked objects:
 10291 ;;		On entry : 0/0
 10292 ;;		On exit  : 0/0
 10293 ;;		Unchanged: 0/0
 10294 ;; Data sizes:     COMMON   BANK0   BANK1   BANK3   BANK2
 10295 ;;      Params:         2       0       0       0       0
 10296 ;;      Locals:         0       1       0       0       0
 10297 ;;      Temps:          1       0       0       0       0
 10298 ;;      Totals:         3       1       0       0       0
 10299 ;;Total ram usage:        4 bytes
 10300 ;; Hardware stack levels used: 1
 10301 ;; Hardware stack levels required when called: 4
 10302 ;; This function calls:
 10303 ;;		_eeprom_at24c04_byte_write
 10304 ;; This function is called by:
 10305 ;;		_main
 10306 ;;		_log_event
 10307 ;;		_change_password
 10308 ;; This function uses a non-reentrant model
 10309 ;;
 10310                           
 10311     134C                     _eeprom_at24c04_str_write:	
 10312                           ;psect for function _eeprom_at24c04_str_write
 10313                           
 10314                           
 10315                           ;incstack = 0
 10316                           ; Regs used in _eeprom_at24c04_str_write: [wreg-fsr0h+status,2+status,0+btemp+1+pclath+c
      +                          stack]
 10317                           ;eeprom_at24c04_str_write@memory_loc stored from wreg
 10318     134C  1283               	bcf	3,5	;RP0=0, select bank0
 10319     134D  1303               	bcf	3,6	;RP1=0, select bank0
 10320     134E  00C5               	movwf	eeprom_at24c04_str_write@memory_loc
 10321     134F                     l4370:
 10322                           
 10323                           ;at24c04.c: 31: void eeprom_at24c04_str_write(unsigned char memory_loc, char *data);at24
      +                          c04.c: 32: {;at24c04.c: 33:     while (*data != 0)
 10324     134F  2B6C               	goto	l4378
 10325     1350                     l4372:
 10326                           
 10327                           ;at24c04.c: 34:     {;at24c04.c: 35:         eeprom_at24c04_byte_write(memory_loc, *data
      +                          );
 10328     1350  0878               	movf	eeprom_at24c04_str_write@data+1,w
 10329     1351  00FF               	movwf	btemp+1
 10330     1352  0877               	movf	eeprom_at24c04_str_write@data,w
 10331     1353  0084               	movwf	4
 10332     1354  160A  118A  2000  160A  118A  	fcall	stringtab
 10333     1359  00F3               	movwf	eeprom_at24c04_byte_write@data
 10334     135A  0845               	movf	eeprom_at24c04_str_write@memory_loc,w
 10335     135B  120A  158A  20F4  160A  118A  	fcall	_eeprom_at24c04_byte_write
 10336     1360                     l4374:
 10337                           
 10338                           ;at24c04.c: 36:         data++;
 10339     1360  3001               	movlw	1
 10340     1361  07F7               	addwf	eeprom_at24c04_str_write@data,f
 10341     1362  1803               	skipnc
 10342     1363  0AF8               	incf	eeprom_at24c04_str_write@data+1,f
 10343     1364  3000               	movlw	0
 10344     1365  07F8               	addwf	eeprom_at24c04_str_write@data+1,f
 10345     1366                     l4376:
 10346                           
 10347                           ;at24c04.c: 37:         memory_loc++;
 10348     1366  3001               	movlw	1
 10349     1367  00F9               	movwf	??_eeprom_at24c04_str_write
 10350     1368  0879               	movf	??_eeprom_at24c04_str_write,w
 10351     1369  1283               	bcf	3,5	;RP0=0, select bank0
 10352     136A  1303               	bcf	3,6	;RP1=0, select bank0
 10353     136B  07C5               	addwf	eeprom_at24c04_str_write@memory_loc,f
 10354     136C                     l4378:
 10355                           
 10356                           ;at24c04.c: 33:     while (*data != 0)
 10357     136C  0878               	movf	eeprom_at24c04_str_write@data+1,w
 10358     136D  00FF               	movwf	btemp+1
 10359     136E  0877               	movf	eeprom_at24c04_str_write@data,w
 10360     136F  0084               	movwf	4
 10361     1370  160A  118A  2000  160A  118A  	fcall	stringtab
 10362     1375  3A00               	xorlw	0
 10363     1376  1D03               	skipz
 10364     1377  2B79               	goto	u3321
 10365     1378  2B7A               	goto	u3320
 10366     1379                     u3321:
 10367     1379  2B50               	goto	l4372
 10368     137A                     u3320:
 10369     137A                     l486:
 10370     137A  0008               	return
 10371     137B                     __end_of_eeprom_at24c04_str_write:
 10372                           
 10373                           	psect	text43
 10374     08F4                     __ptext43:	
 10375 ;; *************** function _eeprom_at24c04_byte_write *****************
 10376 ;; Defined at:
 10377 ;;		line 20 in file "at24c04.c"
 10378 ;; Parameters:    Size  Location     Type
 10379 ;;  memory_loc      1    wreg     unsigned char 
 10380 ;;  data            1    3[COMMON] unsigned char 
 10381 ;; Auto vars:     Size  Location     Type
 10382 ;;  memory_loc      1    6[COMMON] unsigned char 
 10383 ;; Return value:  Size  Location     Type
 10384 ;;                  1    wreg      void 
 10385 ;; Registers used:
 10386 ;;		wreg, status,2, status,0, pclath, cstack
 10387 ;; Tracked objects:
 10388 ;;		On entry : 0/0
 10389 ;;		On exit  : 0/0
 10390 ;;		Unchanged: 0/0
 10391 ;; Data sizes:     COMMON   BANK0   BANK1   BANK3   BANK2
 10392 ;;      Params:         1       0       0       0       0
 10393 ;;      Locals:         1       0       0       0       0
 10394 ;;      Temps:          2       0       0       0       0
 10395 ;;      Totals:         4       0       0       0       0
 10396 ;;Total ram usage:        4 bytes
 10397 ;; Hardware stack levels used: 1
 10398 ;; Hardware stack levels required when called: 3
 10399 ;; This function calls:
 10400 ;;		_i2c_start
 10401 ;;		_i2c_stop
 10402 ;;		_i2c_write
 10403 ;; This function is called by:
 10404 ;;		_eeprom_at24c04_str_write
 10405 ;; This function uses a non-reentrant model
 10406 ;;
 10407                           
 10408     08F4                     _eeprom_at24c04_byte_write:	
 10409                           ;psect for function _eeprom_at24c04_byte_write
 10410                           
 10411                           
 10412                           ;incstack = 0
 10413                           ; Regs used in _eeprom_at24c04_byte_write: [wreg+status,2+status,0+pclath+cstack]
 10414                           ;eeprom_at24c04_byte_write@memory_loc stored from wreg
 10415     08F4  00F6               	movwf	eeprom_at24c04_byte_write@memory_loc
 10416     08F5                     l4342:
 10417                           
 10418                           ;at24c04.c: 20: void eeprom_at24c04_byte_write(unsigned char memory_loc, unsigned char d
      +                          ata);at24c04.c: 21: {;at24c04.c: 22:     i2c_start();
 10419     08F5  160A  118A  20E9  120A  158A  	fcall	_i2c_start
 10420                           
 10421                           ;at24c04.c: 23:     i2c_write(0xA0);
 10422     08FA  30A0               	movlw	160
 10423     08FB  160A  118A  20FB  120A  158A  	fcall	_i2c_write
 10424                           
 10425                           ;at24c04.c: 24:     i2c_write(memory_loc);
 10426     0900  0876               	movf	eeprom_at24c04_byte_write@memory_loc,w
 10427     0901  160A  118A  20FB  120A  158A  	fcall	_i2c_write
 10428                           
 10429                           ;at24c04.c: 25:     i2c_write(data);
 10430     0906  0873               	movf	eeprom_at24c04_byte_write@data,w
 10431     0907  160A  118A  20FB  120A  158A  	fcall	_i2c_write
 10432                           
 10433                           ;at24c04.c: 26:     i2c_stop();
 10434     090C  160A  118A  20F2  120A  158A  	fcall	_i2c_stop
 10435     0911                     l4344:
 10436                           
 10437                           ;at24c04.c: 28:     _delay((unsigned long)((3)*(20000000/4000.0)));
 10438     0911  3014               	movlw	20
 10439     0912  00F5               	movwf	??_eeprom_at24c04_byte_write+1
 10440     0913  3079               	movlw	121
 10441     0914  00F4               	movwf	??_eeprom_at24c04_byte_write
 10442     0915                     u5077:
 10443     0915  0BF4               	decfsz	??_eeprom_at24c04_byte_write,f
 10444     0916  2915               	goto	u5077
 10445     0917  0BF5               	decfsz	??_eeprom_at24c04_byte_write+1,f
 10446     0918  2915               	goto	u5077
 10447     0919  291A               	nop2
 10448     091A                     l480:
 10449     091A  0008               	return
 10450     091B                     __end_of_eeprom_at24c04_byte_write:
 10451                           
 10452                           	psect	text44
 10453     10FB                     __ptext44:	
 10454 ;; *************** function _i2c_write *****************
 10455 ;; Defined at:
 10456 ;;		line 65 in file "i2c.c"
 10457 ;; Parameters:    Size  Location     Type
 10458 ;;  data            1    wreg     unsigned char 
 10459 ;; Auto vars:     Size  Location     Type
 10460 ;;  data            1    2[COMMON] unsigned char 
 10461 ;; Return value:  Size  Location     Type
 10462 ;;                  2   40[None  ] int 
 10463 ;; Registers used:
 10464 ;;		wreg, status,2, status,0, pclath, cstack
 10465 ;; Tracked objects:
 10466 ;;		On entry : 0/0
 10467 ;;		On exit  : 0/0
 10468 ;;		Unchanged: 0/0
 10469 ;; Data sizes:     COMMON   BANK0   BANK1   BANK3   BANK2
 10470 ;;      Params:         0       0       0       0       0
 10471 ;;      Locals:         1       0       0       0       0
 10472 ;;      Temps:          0       0       0       0       0
 10473 ;;      Totals:         1       0       0       0       0
 10474 ;;Total ram usage:        1 bytes
 10475 ;; Hardware stack levels used: 1
 10476 ;; Hardware stack levels required when called: 2
 10477 ;; This function calls:
 10478 ;;		_i2c_wait_for_idle
 10479 ;; This function is called by:
 10480 ;;		_read_ds1307
 10481 ;;		_write_ds1307
 10482 ;;		_eeprom_at24c04_random_read
 10483 ;;		_eeprom_at24c04_byte_write
 10484 ;; This function uses a non-reentrant model
 10485 ;;
 10486                           
 10487     10FB                     _i2c_write:	
 10488                           ;psect for function _i2c_write
 10489                           
 10490                           
 10491                           ;incstack = 0
 10492                           ; Regs used in _i2c_write: [wreg+status,2+status,0+pclath+cstack]
 10493                           ;i2c_write@data stored from wreg
 10494     10FB  00F2               	movwf	i2c_write@data
 10495     10FC                     l4304:
 10496                           
 10497                           ;i2c.c: 65: int i2c_write(unsigned char data);i2c.c: 66: {;i2c.c: 67:     i2c_wait_for_i
      +                          dle();
 10498     10FC  160A  118A  2127  160A  118A  	fcall	_i2c_wait_for_idle
 10499     1101                     l4306:
 10500                           
 10501                           ;i2c.c: 68:     SSPBUF = data;
 10502     1101  0872               	movf	i2c_write@data,w
 10503     1102  1283               	bcf	3,5	;RP0=0, select bank0
 10504     1103  1303               	bcf	3,6	;RP1=0, select bank0
 10505     1104  0093               	movwf	19	;volatile
 10506     1105                     l4308:
 10507     1105                     l107:	
 10508                           ;i2c.c: 70:     return !ACKSTAT;;	Return value of _i2c_write is never used
 10509                           
 10510     1105  0008               	return
 10511     1106                     __end_of_i2c_write:
 10512                           
 10513                           	psect	text45
 10514     10F2                     __ptext45:	
 10515 ;; *************** function _i2c_stop *****************
 10516 ;; Defined at:
 10517 ;;		line 35 in file "i2c.c"
 10518 ;; Parameters:    Size  Location     Type
 10519 ;;		None
 10520 ;; Auto vars:     Size  Location     Type
 10521 ;;		None
 10522 ;; Return value:  Size  Location     Type
 10523 ;;                  1    wreg      void 
 10524 ;; Registers used:
 10525 ;;		wreg, status,2, status,0, pclath, cstack
 10526 ;; Tracked objects:
 10527 ;;		On entry : 0/0
 10528 ;;		On exit  : 0/0
 10529 ;;		Unchanged: 0/0
 10530 ;; Data sizes:     COMMON   BANK0   BANK1   BANK3   BANK2
 10531 ;;      Params:         0       0       0       0       0
 10532 ;;      Locals:         0       0       0       0       0
 10533 ;;      Temps:          0       0       0       0       0
 10534 ;;      Totals:         0       0       0       0       0
 10535 ;;Total ram usage:        0 bytes
 10536 ;; Hardware stack levels used: 1
 10537 ;; Hardware stack levels required when called: 2
 10538 ;; This function calls:
 10539 ;;		_i2c_wait_for_idle
 10540 ;; This function is called by:
 10541 ;;		_read_ds1307
 10542 ;;		_write_ds1307
 10543 ;;		_i2c_rep_start
 10544 ;;		_eeprom_at24c04_random_read
 10545 ;;		_eeprom_at24c04_byte_write
 10546 ;; This function uses a non-reentrant model
 10547 ;;
 10548                           
 10549     10F2                     _i2c_stop:	
 10550                           ;psect for function _i2c_stop
 10551                           
 10552     10F2                     l4300:	
 10553                           ;incstack = 0
 10554                           ; Regs used in _i2c_stop: [wreg+status,2+status,0+pclath+cstack]
 10555                           
 10556                           
 10557                           ;i2c.c: 37:     i2c_wait_for_idle();
 10558     10F2  160A  118A  2127  160A  118A  	fcall	_i2c_wait_for_idle
 10559     10F7                     l4302:
 10560                           
 10561                           ;i2c.c: 38:     PEN = 1;
 10562     10F7  1683               	bsf	3,5	;RP0=1, select bank1
 10563     10F8  1303               	bcf	3,6	;RP1=0, select bank1
 10564     10F9  1511               	bsf	17,2	;volatile
 10565     10FA                     l99:
 10566     10FA  0008               	return
 10567     10FB                     __end_of_i2c_stop:
 10568                           
 10569                           	psect	text46
 10570     10E9                     __ptext46:	
 10571 ;; *************** function _i2c_start *****************
 10572 ;; Defined at:
 10573 ;;		line 22 in file "i2c.c"
 10574 ;; Parameters:    Size  Location     Type
 10575 ;;		None
 10576 ;; Auto vars:     Size  Location     Type
 10577 ;;		None
 10578 ;; Return value:  Size  Location     Type
 10579 ;;                  1    wreg      void 
 10580 ;; Registers used:
 10581 ;;		wreg, status,2, status,0, pclath, cstack
 10582 ;; Tracked objects:
 10583 ;;		On entry : 0/0
 10584 ;;		On exit  : 0/0
 10585 ;;		Unchanged: 0/0
 10586 ;; Data sizes:     COMMON   BANK0   BANK1   BANK3   BANK2
 10587 ;;      Params:         0       0       0       0       0
 10588 ;;      Locals:         0       0       0       0       0
 10589 ;;      Temps:          0       0       0       0       0
 10590 ;;      Totals:         0       0       0       0       0
 10591 ;;Total ram usage:        0 bytes
 10592 ;; Hardware stack levels used: 1
 10593 ;; Hardware stack levels required when called: 2
 10594 ;; This function calls:
 10595 ;;		_i2c_wait_for_idle
 10596 ;; This function is called by:
 10597 ;;		_read_ds1307
 10598 ;;		_write_ds1307
 10599 ;;		_i2c_rep_start
 10600 ;;		_eeprom_at24c04_random_read
 10601 ;;		_eeprom_at24c04_byte_write
 10602 ;; This function uses a non-reentrant model
 10603 ;;
 10604                           
 10605     10E9                     _i2c_start:	
 10606                           ;psect for function _i2c_start
 10607                           
 10608     10E9                     l4296:	
 10609                           ;incstack = 0
 10610                           ; Regs used in _i2c_start: [wreg+status,2+status,0+pclath+cstack]
 10611                           
 10612                           
 10613                           ;i2c.c: 24:     i2c_wait_for_idle();
 10614     10E9  160A  118A  2127  160A  118A  	fcall	_i2c_wait_for_idle
 10615     10EE                     l4298:
 10616                           
 10617                           ;i2c.c: 25:     SEN = 1;
 10618     10EE  1683               	bsf	3,5	;RP0=1, select bank1
 10619     10EF  1303               	bcf	3,6	;RP1=0, select bank1
 10620     10F0  1411               	bsf	17,0	;volatile
 10621     10F1                     l93:
 10622     10F1  0008               	return
 10623     10F2                     __end_of_i2c_start:
 10624                           
 10625                           	psect	text47
 10626     1127                     __ptext47:	
 10627 ;; *************** function _i2c_wait_for_idle *****************
 10628 ;; Defined at:
 10629 ;;		line 16 in file "i2c.c"
 10630 ;; Parameters:    Size  Location     Type
 10631 ;;		None
 10632 ;; Auto vars:     Size  Location     Type
 10633 ;;		None
 10634 ;; Return value:  Size  Location     Type
 10635 ;;                  1    wreg      void 
 10636 ;; Registers used:
 10637 ;;		wreg, status,2
 10638 ;; Tracked objects:
 10639 ;;		On entry : 0/0
 10640 ;;		On exit  : 0/0
 10641 ;;		Unchanged: 0/0
 10642 ;; Data sizes:     COMMON   BANK0   BANK1   BANK3   BANK2
 10643 ;;      Params:         0       0       0       0       0
 10644 ;;      Locals:         0       0       0       0       0
 10645 ;;      Temps:          0       0       0       0       0
 10646 ;;      Totals:         0       0       0       0       0
 10647 ;;Total ram usage:        0 bytes
 10648 ;; Hardware stack levels used: 1
 10649 ;; Hardware stack levels required when called: 1
 10650 ;; This function calls:
 10651 ;;		Nothing
 10652 ;; This function is called by:
 10653 ;;		_i2c_start
 10654 ;;		_i2c_stop
 10655 ;;		_i2c_read
 10656 ;;		_i2c_write
 10657 ;; This function uses a non-reentrant model
 10658 ;;
 10659                           
 10660     1127                     _i2c_wait_for_idle:	
 10661                           ;psect for function _i2c_wait_for_idle
 10662                           
 10663     1127                     l4292:	
 10664                           ;incstack = 0
 10665                           ; Regs used in _i2c_wait_for_idle: [wreg+status,2]
 10666                           
 10667     1127                     l87:	
 10668                           ;i2c.c: 19:     while (R_nW || (SSPCON2 & 0x1F));
 10669                           
 10670     1127  1683               	bsf	3,5	;RP0=1, select bank1
 10671     1128  1303               	bcf	3,6	;RP1=0, select bank1
 10672     1129  1914               	btfsc	20,2	;volatile
 10673     112A  292C               	goto	u3271
 10674     112B  292D               	goto	u3270
 10675     112C                     u3271:
 10676     112C  2927               	goto	l87
 10677     112D                     u3270:
 10678     112D                     l4294:
 10679     112D  0811               	movf	17,w	;volatile
 10680     112E  391F               	andlw	31
 10681     112F  1D03               	btfss	3,2
 10682     1130  2932               	goto	u3281
 10683     1131  2933               	goto	u3280
 10684     1132                     u3281:
 10685     1132  2927               	goto	l87
 10686     1133                     u3280:
 10687     1133                     l90:
 10688     1133  0008               	return
 10689     1134                     __end_of_i2c_wait_for_idle:
 10690                           
 10691                           	psect	text48
 10692     118A                     __ptext48:	
 10693 ;; *************** function _clcd_putch *****************
 10694 ;; Defined at:
 10695 ;;		line 49 in file "clcd.c"
 10696 ;; Parameters:    Size  Location     Type
 10697 ;;  data            1    wreg     const unsigned char 
 10698 ;;  addr            1   10[BANK0 ] unsigned char 
 10699 ;; Auto vars:     Size  Location     Type
 10700 ;;  data            1   11[BANK0 ] const unsigned char 
 10701 ;; Return value:  Size  Location     Type
 10702 ;;                  1    wreg      void 
 10703 ;; Registers used:
 10704 ;;		wreg, status,2, status,0, pclath, cstack
 10705 ;; Tracked objects:
 10706 ;;		On entry : 0/0
 10707 ;;		On exit  : 0/0
 10708 ;;		Unchanged: 0/0
 10709 ;; Data sizes:     COMMON   BANK0   BANK1   BANK3   BANK2
 10710 ;;      Params:         0       1       0       0       0
 10711 ;;      Locals:         0       1       0       0       0
 10712 ;;      Temps:          0       0       0       0       0
 10713 ;;      Totals:         0       2       0       0       0
 10714 ;;Total ram usage:        2 bytes
 10715 ;; Hardware stack levels used: 1
 10716 ;; Hardware stack levels required when called: 2
 10717 ;; This function calls:
 10718 ;;		_clcd_write
 10719 ;; This function is called by:
 10720 ;;		_display_time
 10721 ;;		_display_dashboard
 10722 ;;		_login
 10723 ;;		_login_menu
 10724 ;;		_view_log
 10725 ;;		_change_password
 10726 ;;		_change_time
 10727 ;; This function uses a non-reentrant model
 10728 ;;
 10729                           
 10730     118A                     _clcd_putch:	
 10731                           ;psect for function _clcd_putch
 10732                           
 10733                           
 10734                           ;incstack = 0
 10735                           ; Regs used in _clcd_putch: [wreg+status,2+status,0+pclath+cstack]
 10736                           ;clcd_putch@data stored from wreg
 10737     118A  1283               	bcf	3,5	;RP0=0, select bank0
 10738     118B  1303               	bcf	3,6	;RP1=0, select bank0
 10739     118C  00D0               	movwf	clcd_putch@data
 10740     118D                     l4366:
 10741                           
 10742                           ;clcd.c: 49: void clcd_putch(const char data, unsigned char addr);clcd.c: 50: {;clcd.c: 
      +                          51:     clcd_write(addr, 0);
 10743     118D  01F2               	clrf	clcd_write@mode
 10744     118E  084F               	movf	clcd_putch@addr,w
 10745     118F  160A  118A  21EB  160A  118A  	fcall	_clcd_write
 10746                           
 10747                           ;clcd.c: 52:     clcd_write(data, 1);
 10748     1194  01F2               	clrf	clcd_write@mode
 10749     1195  0AF2               	incf	clcd_write@mode,f
 10750     1196  1283               	bcf	3,5	;RP0=0, select bank0
 10751     1197  1303               	bcf	3,6	;RP1=0, select bank0
 10752     1198  0850               	movf	clcd_putch@data,w
 10753     1199  160A  118A  21EB  160A  118A  	fcall	_clcd_write
 10754     119E                     l26:
 10755     119E  0008               	return
 10756     119F                     __end_of_clcd_putch:
 10757                           
 10758                           	psect	text49
 10759     131D                     __ptext49:	
 10760 ;; *************** function _clcd_print *****************
 10761 ;; Defined at:
 10762 ;;		line 55 in file "clcd.c"
 10763 ;; Parameters:    Size  Location     Type
 10764 ;;  str             2    6[COMMON] PTR const unsigned char 
 10765 ;;		 -> STR_54(3), STR_53(3), STR_52(3), STR_51(13), 
 10766 ;;		 -> STR_50(13), STR_49(16), STR_48(7), STR_47(17), 
 10767 ;;		 -> STR_46(14), STR_45(17), STR_44(18), STR_43(18), 
 10768 ;;		 -> STR_42(17), STR_41(17), STR_33(13), STR_32(13), 
 10769 ;;		 -> STR_31(17), STR_30(17), STR_29(17), STR_28(17), 
 10770 ;;		 -> STR_27(17), STR_26(16), STR_25(17), STR_24(17), 
 10771 ;;		 -> STR_23(17), STR_22(17), STR_21(9), STR_20(15), 
 10772 ;;		 -> STR_19(13), STR_18(10), STR_17(9), STR_13(17), 
 10773 ;;		 -> STR_12(17), STR_10(17), STR_9(17), main@event(3), 
 10774 ;;  addr            1    8[COMMON] unsigned char 
 10775 ;; Auto vars:     Size  Location     Type
 10776 ;;		None
 10777 ;; Return value:  Size  Location     Type
 10778 ;;                  1    wreg      void 
 10779 ;; Registers used:
 10780 ;;		wreg, fsr0l, fsr0h, status,2, status,0, btemp+1, pclath, cstack
 10781 ;; Tracked objects:
 10782 ;;		On entry : 0/0
 10783 ;;		On exit  : 0/0
 10784 ;;		Unchanged: 0/0
 10785 ;; Data sizes:     COMMON   BANK0   BANK1   BANK3   BANK2
 10786 ;;      Params:         3       0       0       0       0
 10787 ;;      Locals:         0       0       0       0       0
 10788 ;;      Temps:          0       0       0       0       0
 10789 ;;      Totals:         3       0       0       0       0
 10790 ;;Total ram usage:        3 bytes
 10791 ;; Hardware stack levels used: 1
 10792 ;; Hardware stack levels required when called: 2
 10793 ;; This function calls:
 10794 ;;		_clcd_write
 10795 ;; This function is called by:
 10796 ;;		_main
 10797 ;;		_display_dashboard
 10798 ;;		_login
 10799 ;;		_login_menu
 10800 ;;		_view_log
 10801 ;;		_clear_log
 10802 ;;		_change_password
 10803 ;;		_change_time
 10804 ;; This function uses a non-reentrant model
 10805 ;;
 10806                           
 10807     131D                     _clcd_print:	
 10808                           ;psect for function _clcd_print
 10809                           
 10810     131D                     l4444:	
 10811                           ;incstack = 0
 10812                           ; Regs used in _clcd_print: [wreg-fsr0h+status,2+status,0+btemp+1+pclath+cstack]
 10813                           
 10814                           
 10815                           ;clcd.c: 55: void clcd_print(const char *str, unsigned char addr);clcd.c: 56: {;clcd.c: 
      +                          57:     clcd_write(addr, 0);
 10816     131D  01F2               	clrf	clcd_write@mode
 10817     131E  0878               	movf	clcd_print@addr,w
 10818     131F  160A  118A  21EB  160A  118A  	fcall	_clcd_write
 10819                           
 10820                           ;clcd.c: 59:     while (*str != '\0')
 10821     1324  2B3B               	goto	l4450
 10822     1325                     l4446:
 10823                           
 10824                           ;clcd.c: 60:     {;clcd.c: 61:         clcd_write(*str, 1);
 10825     1325  01F2               	clrf	clcd_write@mode
 10826     1326  0AF2               	incf	clcd_write@mode,f
 10827     1327  0877               	movf	clcd_print@str+1,w
 10828     1328  00FF               	movwf	btemp+1
 10829     1329  0876               	movf	clcd_print@str,w
 10830     132A  0084               	movwf	4
 10831     132B  160A  118A  2000  160A  118A  	fcall	stringtab
 10832     1330  160A  118A  21EB  160A  118A  	fcall	_clcd_write
 10833     1335                     l4448:
 10834                           
 10835                           ;clcd.c: 62:         str++;
 10836     1335  3001               	movlw	1
 10837     1336  07F6               	addwf	clcd_print@str,f
 10838     1337  1803               	skipnc
 10839     1338  0AF7               	incf	clcd_print@str+1,f
 10840     1339  3000               	movlw	0
 10841     133A  07F7               	addwf	clcd_print@str+1,f
 10842     133B                     l4450:
 10843                           
 10844                           ;clcd.c: 59:     while (*str != '\0')
 10845     133B  0877               	movf	clcd_print@str+1,w
 10846     133C  1283               	bcf	3,5	;RP0=0, select bank0
 10847     133D  1303               	bcf	3,6	;RP1=0, select bank0
 10848     133E  00FF               	movwf	btemp+1
 10849     133F  0876               	movf	clcd_print@str,w
 10850     1340  0084               	movwf	4
 10851     1341  160A  118A  2000  160A  118A  	fcall	stringtab
 10852     1346  3A00               	xorlw	0
 10853     1347  1D03               	skipz
 10854     1348  2B4A               	goto	u3461
 10855     1349  2B4B               	goto	u3460
 10856     134A                     u3461:
 10857     134A  2B25               	goto	l4446
 10858     134B                     u3460:
 10859     134B                     l32:
 10860     134B  0008               	return
 10861     134C                     __end_of_clcd_print:
 10862                           
 10863                           	psect	text50
 10864     11EB                     __ptext50:	
 10865 ;; *************** function _clcd_write *****************
 10866 ;; Defined at:
 10867 ;;		line 4 in file "clcd.c"
 10868 ;; Parameters:    Size  Location     Type
 10869 ;;  byte            1    wreg     unsigned char 
 10870 ;;  mode            1    2[COMMON] unsigned char 
 10871 ;; Auto vars:     Size  Location     Type
 10872 ;;  byte            1    5[COMMON] unsigned char 
 10873 ;; Return value:  Size  Location     Type
 10874 ;;                  1    wreg      void 
 10875 ;; Registers used:
 10876 ;;		wreg
 10877 ;; Tracked objects:
 10878 ;;		On entry : 0/0
 10879 ;;		On exit  : 0/0
 10880 ;;		Unchanged: 0/0
 10881 ;; Data sizes:     COMMON   BANK0   BANK1   BANK3   BANK2
 10882 ;;      Params:         1       0       0       0       0
 10883 ;;      Locals:         1       0       0       0       0
 10884 ;;      Temps:          2       0       0       0       0
 10885 ;;      Totals:         4       0       0       0       0
 10886 ;;Total ram usage:        4 bytes
 10887 ;; Hardware stack levels used: 1
 10888 ;; Hardware stack levels required when called: 1
 10889 ;; This function calls:
 10890 ;;		Nothing
 10891 ;; This function is called by:
 10892 ;;		_init_display_controller
 10893 ;;		_clcd_putch
 10894 ;;		_clcd_print
 10895 ;;		_main
 10896 ;;		_clear_screen
 10897 ;;		_login
 10898 ;;		_change_password
 10899 ;;		_change_time
 10900 ;; This function uses a non-reentrant model
 10901 ;;
 10902                           
 10903     11EB                     _clcd_write:	
 10904                           ;psect for function _clcd_write
 10905                           
 10906                           
 10907                           ;incstack = 0
 10908                           ; Regs used in _clcd_write: [wreg]
 10909                           ;clcd_write@byte stored from wreg
 10910     11EB  00F5               	movwf	clcd_write@byte
 10911     11EC                     l4328:
 10912                           
 10913                           ;clcd.c: 4: void clcd_write(unsigned char byte, unsigned char mode);clcd.c: 5: {;clcd.c:
      +                           6:     RE2 = mode;
 10914     11EC  1872               	btfsc	clcd_write@mode,0
 10915     11ED  29EF               	goto	u3301
 10916     11EE  29F3               	goto	u3300
 10917     11EF                     u3301:
 10918     11EF  1283               	bcf	3,5	;RP0=0, select bank0
 10919     11F0  1303               	bcf	3,6	;RP1=0, select bank0
 10920     11F1  1509               	bsf	9,2	;volatile
 10921     11F2  29F6               	goto	u3314
 10922     11F3                     u3300:
 10923     11F3  1283               	bcf	3,5	;RP0=0, select bank0
 10924     11F4  1303               	bcf	3,6	;RP1=0, select bank0
 10925     11F5  1109               	bcf	9,2	;volatile
 10926     11F6                     u3314:
 10927     11F6                     l4330:
 10928                           
 10929                           ;clcd.c: 7:     PORTD = byte;
 10930     11F6  0875               	movf	clcd_write@byte,w
 10931     11F7  0088               	movwf	8	;volatile
 10932     11F8                     l4332:
 10933                           
 10934                           ;clcd.c: 9:     RE1 = 1;
 10935     11F8  1489               	bsf	9,1	;volatile
 10936                           
 10937                           ;clcd.c: 10:     _delay((unsigned long)((100)*(20000000/4000000.0)));
 10938     11F9  30A6               	movlw	166
 10939     11FA  00F3               	movwf	??_clcd_write
 10940     11FB                     u5087:
 10941     11FB  0BF3               	decfsz	??_clcd_write,f
 10942     11FC  29FB               	goto	u5087
 10943     11FD  0000               	nop
 10944     11FE                     l4334:
 10945                           
 10946                           ;clcd.c: 11:     RE1 = 0;
 10947     11FE  1283               	bcf	3,5	;RP0=0, select bank0
 10948     11FF  1303               	bcf	3,6	;RP1=0, select bank0
 10949     1200  1089               	bcf	9,1	;volatile
 10950                           
 10951                           ;clcd.c: 13:     _delay((unsigned long)((4100)*(20000000/4000000.0)));
 10952     1201  301B               	movlw	27
 10953     1202  00F4               	movwf	??_clcd_write+1
 10954     1203  309E               	movlw	158
 10955     1204  00F3               	movwf	??_clcd_write
 10956     1205                     u5097:
 10957     1205  0BF3               	decfsz	??_clcd_write,f
 10958     1206  2A05               	goto	u5097
 10959     1207  0BF4               	decfsz	??_clcd_write+1,f
 10960     1208  2A05               	goto	u5097
 10961     1209  0000               	nop
 10962     120A                     l17:
 10963     120A  0008               	return
 10964     120B                     __end_of_clcd_write:
 10965                           
 10966                           	psect	text51
 10967     13DD                     __ptext51:	
 10968 ;; *************** function _isr *****************
 10969 ;; Defined at:
 10970 ;;		line 7 in file "isr.c"
 10971 ;; Parameters:    Size  Location     Type
 10972 ;;		None
 10973 ;; Auto vars:     Size  Location     Type
 10974 ;;		None
 10975 ;; Return value:  Size  Location     Type
 10976 ;;                  1    wreg      void 
 10977 ;; Registers used:
 10978 ;;		wreg, status,2, status,0
 10979 ;; Tracked objects:
 10980 ;;		On entry : 0/0
 10981 ;;		On exit  : 0/0
 10982 ;;		Unchanged: 0/0
 10983 ;; Data sizes:     COMMON   BANK0   BANK1   BANK3   BANK2
 10984 ;;      Params:         0       0       0       0       0
 10985 ;;      Locals:         0       0       0       0       0
 10986 ;;      Temps:          2       0       0       0       0
 10987 ;;      Totals:         2       0       0       0       0
 10988 ;;Total ram usage:        2 bytes
 10989 ;; Hardware stack levels used: 1
 10990 ;; This function calls:
 10991 ;;		Nothing
 10992 ;; This function is called by:
 10993 ;;		Interrupt level 1
 10994 ;; This function uses a non-reentrant model
 10995 ;;
 10996                           
 10997     13DD                     _isr:	
 10998                           ;psect for function _isr
 10999                           
 11000     13DD                     i1l4044:
 11001                           
 11002                           ;isr.c: 9:     static unsigned int count = 0;;isr.c: 11:     if (TMR2IF == 1)
 11003     13DD  1283               	bcf	3,5	;RP0=0, select bank0
 11004     13DE  1303               	bcf	3,6	;RP1=0, select bank0
 11005     13DF  1C8C               	btfss	12,1	;volatile
 11006     13E0  2BE2               	goto	u322_21
 11007     13E1  2BE3               	goto	u322_20
 11008     13E2                     u322_21:
 11009     13E2  2C0E               	goto	i1l516
 11010     13E3                     u322_20:
 11011     13E3                     i1l4046:
 11012                           
 11013                           ;isr.c: 12:     {;isr.c: 13:         if (++count == 1250)
 11014     13E3  3001               	movlw	1
 11015     13E4  07A9               	addwf	isr@count,f
 11016     13E5  1803               	skipnc
 11017     13E6  0AAA               	incf	isr@count+1,f
 11018     13E7  3000               	movlw	0
 11019     13E8  07AA               	addwf	isr@count+1,f
 11020     13E9  30E2               	movlw	226
 11021     13EA  0629               	xorwf	isr@count,w
 11022     13EB  3004               	movlw	4
 11023     13EC  1903               	skipnz
 11024     13ED  062A               	xorwf	isr@count+1,w
 11025     13EE  1D03               	btfss	3,2
 11026     13EF  2BF1               	goto	u323_21
 11027     13F0  2BF2               	goto	u323_20
 11028     13F1                     u323_21:
 11029     13F1  2C0D               	goto	i1l4060
 11030     13F2                     u323_20:
 11031     13F2                     i1l4048:
 11032                           
 11033                           ;isr.c: 14:         {;isr.c: 15:             count = 0;
 11034     13F2  01A9               	clrf	isr@count
 11035     13F3  01AA               	clrf	isr@count+1
 11036     13F4                     i1l4050:
 11037                           
 11038                           ;isr.c: 16:             if (sec > 0)
 11039     13F4  0835               	movf	_sec,w
 11040     13F5  0436               	iorwf	_sec+1,w
 11041     13F6  1903               	btfsc	3,2
 11042     13F7  2BF9               	goto	u324_21
 11043     13F8  2BFA               	goto	u324_20
 11044     13F9                     u324_21:
 11045     13F9  2C00               	goto	i1l4054
 11046     13FA                     u324_20:
 11047     13FA                     i1l4052:
 11048                           
 11049                           ;isr.c: 17:             {;isr.c: 18:                 sec--;
 11050     13FA  3001               	movlw	1
 11051     13FB  02B5               	subwf	_sec,f
 11052     13FC  3000               	movlw	0
 11053     13FD  1C03               	skipc
 11054     13FE  03B6               	decf	_sec+1,f
 11055     13FF  02B6               	subwf	_sec+1,f
 11056     1400                     i1l4054:
 11057                           
 11058                           ;isr.c: 21:             if(sec == 0 && return_time > 0)
 11059     1400  0835               	movf	_sec,w
 11060     1401  0436               	iorwf	_sec+1,w
 11061     1402  1D03               	btfss	3,2
 11062     1403  2C05               	goto	u325_21
 11063     1404  2C06               	goto	u325_20
 11064     1405                     u325_21:
 11065     1405  2C0D               	goto	i1l4060
 11066     1406                     u325_20:
 11067     1406                     i1l4056:
 11068     1406  086D               	movf	_return_time,w
 11069     1407  1903               	btfsc	3,2
 11070     1408  2C0A               	goto	u326_21
 11071     1409  2C0B               	goto	u326_20
 11072     140A                     u326_21:
 11073     140A  2C0D               	goto	i1l4060
 11074     140B                     u326_20:
 11075     140B                     i1l4058:
 11076                           
 11077                           ;isr.c: 22:             {;isr.c: 23:                 return_time--;
 11078     140B  3001               	movlw	1
 11079     140C  02ED               	subwf	_return_time,f
 11080     140D                     i1l4060:
 11081                           
 11082                           ;isr.c: 27:         TMR2IF = 0;
 11083     140D  108C               	bcf	12,1	;volatile
 11084     140E                     i1l516:
 11085     140E  0871               	movf	??_isr+1,w
 11086     140F  008A               	movwf	10
 11087     1410  0E70               	swapf	??_isr,w
 11088     1411  0083               	movwf	3
 11089     1412  0EFE               	swapf	btemp,f
 11090     1413  0E7E               	swapf	btemp,w
 11091     1414  0009               	retfie
 11092     1415                     __end_of_isr:
 11093     007E                     btemp	set	126	;btemp
 11094     007E                     wtemp0	set	126
 11095                           
 11096                           	psect	intentry
 11097     0004                     __pintentry:	
 11098                           ;incstack = 0
 11099                           ; Regs used in _isr: [wreg+status,2+status,0]
 11100                           
 11101     0004                     interrupt_function:
 11102     007E                     saved_w	set	btemp
 11103     0004  00FE               	movwf	btemp
 11104     0005  0E03               	swapf	3,w
 11105     0006  00F0               	movwf	??_isr
 11106     0007  080A               	movf	10,w
 11107     0008  00F1               	movwf	??_isr+1
 11108     0009  160A  118A  2BDD   	ljmp	_isr
 11109                           
 11110                           	psect	config
 11111                           
 11112                           ;Config register CONFIG @ 0x2007
 11113                           ;	Oscillator Selection bits
 11114                           ;	FOSC = 0x3, unprogrammed default
 11115                           ;	Watchdog Timer Enable bit
 11116                           ;	WDTE = OFF, WDT disabled
 11117                           ;	Power-up Timer Enable bit
 11118                           ;	PWRTE = 0x1, unprogrammed default
 11119                           ;	Brown-out Reset Enable bit
 11120                           ;	BOREN = 0x1, unprogrammed default
 11121                           ;	Low-Voltage (Single-Supply) In-Circuit Serial Programming Enable bit
 11122                           ;	LVP = 0x1, unprogrammed default
 11123                           ;	Data EEPROM Memory Code Protection bit
 11124                           ;	CPD = 0x1, unprogrammed default
 11125                           ;	Flash Program Memory Write Enable bits
 11126                           ;	WRT = 0x3, unprogrammed default
 11127                           ;	In-Circuit Debugger Mode bit
 11128                           ;	DEBUG = 0x1, unprogrammed default
 11129                           ;	Flash Program Memory Code Protection bit
 11130                           ;	CP = 0x1, unprogrammed default
 11131     2007                     	org	8199
 11132     2007  3FFB               	dw	16379

Data Sizes:
    Strings     499
    Constant    0
    Data        31
    BSS         63
    Persistent  0
    Stack       0

Auto Spaces:
    Space          Size  Autos    Used
    COMMON           14     10      12
    BANK0            80     35      78
    BANK1            80      9      58
    BANK3            96      0       0
    BANK2            96      0       0

Pointer List with Targets:

    strncpy@from	PTR const unsigned char  size(2) Largest target is 7
		 -> STR_40(CODE[5]), time(BANK0[7]), STR_16(CODE[3]), STR_15(CODE[3]), 
		 -> STR_14(CODE[3]), STR_11(CODE[3]), main@event(BANK1[3]), 

    strncpy@to	PTR unsigned char  size(1) Largest target is 11
		 -> change_password@new_pwd(BANK1[9]), log(BANK1[11]), 

    strncpy@cp	PTR unsigned char  size(1) Largest target is 11
		 -> change_password@new_pwd(BANK1[9]), log(BANK1[11]), 

    strncmp@s2	PTR const unsigned char  size(1) Largest target is 9
		 -> change_password@new_pwd(BANK1[9]), login@npassword(BANK1[4]), 

    strncmp@s1	PTR const unsigned char  size(1) Largest target is 9
		 -> change_password@new_pwd(BANK1[9]), login@spassword(BANK0[4]), 

    strcpy@from	PTR const unsigned char  size(2) Largest target is 3
		 -> STR_8(CODE[3]), STR_6(CODE[3]), STR_5(CODE[3]), STR_4(CODE[3]), 
		 -> STR_3(CODE[3]), STR_2(CODE[3]), STR_1(CODE[3]), 

    strcpy@to	PTR unsigned char  size(1) Largest target is 3
		 -> main@event(BANK1[3]), 

    strcpy@cp	PTR unsigned char  size(1) Largest target is 3
		 -> main@event(BANK1[3]), 

    puts@s	PTR const unsigned char  size(2) Largest target is 36
		 -> STR_39(CODE[13]), STR_38(CODE[7]), STR_37(CODE[4]), STR_36(CODE[36]), 
		 -> STR_35(CODE[7]), STR_34(CODE[18]), 

    eeprom_at24c04_str_write@data	PTR unsigned char  size(2) Largest target is 11
		 -> change_password@new_pwd(BANK1[9]), log(BANK1[11]), STR_7(CODE[5]), 

    log_car_event@event	PTR unsigned char  size(2) Largest target is 3
		 -> STR_16(CODE[3]), STR_15(CODE[3]), STR_14(CODE[3]), STR_11(CODE[3]), 
		 -> main@event(BANK1[3]), 

    sp__strncpy	PTR unsigned char  size(1) Largest target is 11
		 -> change_password@new_pwd(BANK1[9]), log(BANK1[11]), 

    display_dashboard@event	PTR unsigned char  size(1) Largest target is 3
		 -> main@event(BANK1[3]), 

    menu	PTR unsigned char [5] size(2) Largest target is 15
		 -> STR_21(CODE[9]), STR_20(CODE[15]), STR_19(CODE[13]), STR_18(CODE[10]), 
		 -> STR_17(CODE[9]), 

    sp__strcpy	PTR unsigned char  size(1) Largest target is 3
		 -> main@event(BANK1[3]), 

    gear	PTR unsigned char [6] size(2) Largest target is 3
		 -> STR_6(CODE[3]), STR_5(CODE[3]), STR_4(CODE[3]), STR_3(CODE[3]), 
		 -> STR_2(CODE[3]), STR_1(CODE[3]), 

    clcd_print@str	PTR const unsigned char  size(2) Largest target is 18
		 -> STR_54(CODE[3]), STR_53(CODE[3]), STR_52(CODE[3]), STR_51(CODE[13]), 
		 -> STR_50(CODE[13]), STR_49(CODE[16]), STR_48(CODE[7]), STR_47(CODE[17]), 
		 -> STR_46(CODE[14]), STR_45(CODE[17]), STR_44(CODE[18]), STR_43(CODE[18]), 
		 -> STR_42(CODE[17]), STR_41(CODE[17]), STR_33(CODE[13]), STR_32(CODE[13]), 
		 -> STR_31(CODE[17]), STR_30(CODE[17]), STR_29(CODE[17]), STR_28(CODE[17]), 
		 -> STR_27(CODE[17]), STR_26(CODE[16]), STR_25(CODE[17]), STR_24(CODE[17]), 
		 -> STR_23(CODE[17]), STR_22(CODE[17]), STR_21(CODE[9]), STR_20(CODE[15]), 
		 -> STR_19(CODE[13]), STR_18(CODE[10]), STR_17(CODE[9]), STR_13(CODE[17]), 
		 -> STR_12(CODE[17]), STR_10(CODE[17]), STR_9(CODE[17]), main@event(BANK1[3]), 


Critical Paths under _main in COMMON

    _main->___lwdiv
    _main->_clear_log
    _main->_eeprom_at24c04_str_write
    _login->___lwdiv
    _clear_screen->_clcd_write
    _log_event->_eeprom_at24c04_str_write
    _init_uart->___lldiv
    _init_i2c->___lldiv
    _init_ds1307->_read_ds1307
    _init_clcd->_init_display_controller
    _init_display_controller->_clcd_write
    _download_log->___bmul
    _download_log->_eeprom_at24c04_random_read
    _puts->_putchar
    _eeprom_at24c04_random_read->_i2c_read
    _clear_log->_clcd_print
    _change_time->___lwdiv
    _write_ds1307->_i2c_write
    _get_time->_read_ds1307
    _read_ds1307->_i2c_read
    ___lwmod->___lwdiv
    ___lwdiv->_read_adc
    _change_password->_eeprom_at24c04_str_write
    _eeprom_at24c04_str_write->_eeprom_at24c04_byte_write
    _eeprom_at24c04_byte_write->_i2c_write
    _clcd_putch->___lwdiv
    _clcd_print->_clcd_write

Critical Paths under _isr in COMMON

    None.

Critical Paths under _main in BANK0

    _main->_view_log
    _view_log->_clcd_putch
    _login_menu->_clcd_putch
    _login->_clcd_putch
    _log_car_event->___awdiv
    _log_event->_eeprom_at24c04_str_write
    _init_config->_init_i2c
    _init_config->_init_uart
    _init_uart->___lldiv
    _init_i2c->___lldiv
    _display_dashboard->_clcd_putch
    _display_time->_clcd_putch
    _change_time->_clcd_putch
    ___lwmod->___lwdiv
    _change_password->_clcd_putch
    _clcd_putch->___lwmod

Critical Paths under _isr in BANK0

    None.

Critical Paths under _main in BANK1

    None.

Critical Paths under _isr in BANK1

    None.

Critical Paths under _main in BANK3

    None.

Critical Paths under _isr in BANK3

    None.

Critical Paths under _main in BANK2

    None.

Critical Paths under _isr in BANK2

    None.

Call Graph Tables:

 ---------------------------------------------------------------------------------
 (Depth) Function   	        Calls       Base Space   Used Autos Params    Refs
 ---------------------------------------------------------------------------------
 (0) _main                                                12    12      0  153911
                                             32 BANK0      3     3      0
                                              0 BANK1      9     9      0
                            ___lwdiv
                    _change_password
                        _change_time
                         _clcd_print
                         _clcd_write
                          _clear_log
                       _clear_screen
                  _display_dashboard
                       _download_log
           _eeprom_at24c04_str_write
                        _init_config
                      _log_car_event
                              _login
                         _login_menu
                           _read_adc
                _read_digital_keypad
                             _strcpy
                           _view_log
 ---------------------------------------------------------------------------------
 (1) _view_log                                            20    19      1   15684
                                             12 BANK0     20    19      1
                             ___bmul
                         _clcd_print
                         _clcd_putch
         _eeprom_at24c04_random_read
 ---------------------------------------------------------------------------------
 (2) _strcpy                                               5     3      2     487
                                              2 COMMON     5     3      2
 ---------------------------------------------------------------------------------
 (1) _read_digital_keypad                                  1     1      0     158
                                              2 COMMON     1     1      0
 ---------------------------------------------------------------------------------
 (1) _read_adc                                             4     2      2      34
                                              2 COMMON     4     2      2
 ---------------------------------------------------------------------------------
 (1) _login_menu                                           4     3      1   16457
                                             12 BANK0      4     3      1
                         _clcd_print
                         _clcd_putch
                       _clear_screen
 ---------------------------------------------------------------------------------
 (1) _login                                               13    12      1   22781
                                             12 BANK0     13    12      1
                            ___lwdiv
                            ___lwmod
                         _clcd_print
                         _clcd_putch
                         _clcd_write
                       _clear_screen
         _eeprom_at24c04_random_read
                            _strncmp
 ---------------------------------------------------------------------------------
 (2) _clear_screen                                         2     2      0    1952
                                              6 COMMON     2     2      0
                         _clcd_write
 ---------------------------------------------------------------------------------
 (1) _log_car_event                                        5     2      3    5137
                                              4 BANK0      5     2      3
                            ___awdiv
                            ___awmod
                           _get_time
                          _log_event
                            _strncpy
 ---------------------------------------------------------------------------------
 (2) _log_event                                            1     1      0     995
                                              1 BANK0      1     1      0
                             ___bmul
           _eeprom_at24c04_str_write
 ---------------------------------------------------------------------------------
 (1) _init_config                                          0     0      0    4078
                           _init_adc
                          _init_clcd
                _init_digital_keypad
                        _init_ds1307
                           _init_i2c
                        _init_timer2
                          _init_uart
 ---------------------------------------------------------------------------------
 (2) _init_uart                                            8     4      4     722
                                              6 BANK0      8     4      4
                            ___lldiv
 ---------------------------------------------------------------------------------
 (2) _init_timer2                                          0     0      0       0
 ---------------------------------------------------------------------------------
 (2) _init_i2c                                             8     4      4     722
                                              6 BANK0      8     4      4
                            ___lldiv
 ---------------------------------------------------------------------------------
 (3) ___lldiv                                             14     6      8     601
                                              2 COMMON     8     0      8
                                              0 BANK0      6     6      0
 ---------------------------------------------------------------------------------
 (2) _init_ds1307                                          1     1      0     682
                                              6 COMMON     1     1      0
                        _read_ds1307
                       _write_ds1307
 ---------------------------------------------------------------------------------
 (2) _init_digital_keypad                                  0     0      0       0
 ---------------------------------------------------------------------------------
 (2) _init_clcd                                            0     0      0    1952
            _init_display_controller
 ---------------------------------------------------------------------------------
 (3) _init_display_controller                              2     2      0    1952
                                              6 COMMON     2     2      0
                         _clcd_write
 ---------------------------------------------------------------------------------
 (2) _init_adc                                             0     0      0       0
 ---------------------------------------------------------------------------------
 (1) _download_log                                        19    19      0    1948
                                              6 COMMON     1     1      0
                                              0 BANK0     18    18      0
                             ___bmul
         _eeprom_at24c04_random_read
                            _putchar
                               _puts
 ---------------------------------------------------------------------------------
 (2) _puts                                                 2     0      2     636
                                              3 COMMON     2     0      2
                            _putchar
 ---------------------------------------------------------------------------------
 (3) _putchar                                              1     1      0      31
                                              2 COMMON     1     1      0
 ---------------------------------------------------------------------------------
 (2) _eeprom_at24c04_random_read                           2     2      0     164
                                              4 COMMON     2     2      0
                           _i2c_read
                      _i2c_rep_start
                          _i2c_start
                           _i2c_stop
                          _i2c_write
 ---------------------------------------------------------------------------------
 (2) ___bmul                                               4     3      1     406
                                              2 COMMON     4     3      1
 ---------------------------------------------------------------------------------
 (1) _display_dashboard                                    4     3      1   22274
                                             12 BANK0      4     3      1
                            ___awdiv
                            ___awmod
                         _clcd_print
                         _clcd_putch
                       _display_time
 ---------------------------------------------------------------------------------
 (2) _display_time                                         0     0      0    6135
                         _clcd_putch
                           _get_time
 ---------------------------------------------------------------------------------
 (2) ___awmod                                              7     3      4     793
                                              2 COMMON     7     3      4
 ---------------------------------------------------------------------------------
 (2) ___awdiv                                              9     5      4     805
                                              2 COMMON     5     1      4
                                              0 BANK0      4     4      0
 ---------------------------------------------------------------------------------
 (1) _clear_log                                            1     1      0    8379
                                              9 COMMON     1     1      0
                         _clcd_print
 ---------------------------------------------------------------------------------
 (1) _change_time                                          6     5      1   21850
                                             12 BANK0      6     5      1
                            ___lwdiv
                            ___lwmod
                             ___wmul
                         _clcd_print
                         _clcd_putch
                         _clcd_write
                           _get_time
                       _write_ds1307
 ---------------------------------------------------------------------------------
 (3) _write_ds1307                                         2     1      1     453
                                              3 COMMON     2     1      1
                          _i2c_start
                           _i2c_stop
                          _i2c_write
 ---------------------------------------------------------------------------------
 (2) _get_time                                             1     1      0     161
                                              6 COMMON     1     1      0
                        _read_ds1307
 ---------------------------------------------------------------------------------
 (3) _read_ds1307                                          2     2      0     161
                                              4 COMMON     2     2      0
                           _i2c_read
                      _i2c_rep_start
                          _i2c_start
                           _i2c_stop
                          _i2c_write
 ---------------------------------------------------------------------------------
 (3) _i2c_rep_start                                        0     0      0       0
                          _i2c_start
                           _i2c_stop
 ---------------------------------------------------------------------------------
 (3) _i2c_read                                             2     2      0      65
                                              2 COMMON     2     2      0
                  _i2c_wait_for_idle
 ---------------------------------------------------------------------------------
 (2) ___wmul                                               6     2      4    1336
                                              2 COMMON     6     2      4
 ---------------------------------------------------------------------------------
 (2) ___lwmod                                              6     2      4    1672
                                              4 BANK0      6     2      4
                            ___lwdiv (ARG)
 ---------------------------------------------------------------------------------
 (2) ___lwdiv                                              8     4      4    1697
                                              6 COMMON     4     0      4
                                              0 BANK0      4     4      0
                           _read_adc (ARG)
 ---------------------------------------------------------------------------------
 (1) _change_password                                      5     4      1   18452
                                             12 BANK0      5     4      1
                         _clcd_print
                         _clcd_putch
                         _clcd_write
           _eeprom_at24c04_str_write
                            _strncmp
                            _strncpy
 ---------------------------------------------------------------------------------
 (3) _strncpy                                              9     5      4     850
                                              2 COMMON     7     3      4
                                              0 BANK0      2     2      0
 ---------------------------------------------------------------------------------
 (2) _strncmp                                              6     3      3     624
                                              2 COMMON     6     3      3
 ---------------------------------------------------------------------------------
 (3) _eeprom_at24c04_str_write                             4     2      2     552
                                              7 COMMON     3     1      2
                                              0 BANK0      1     1      0
          _eeprom_at24c04_byte_write
 ---------------------------------------------------------------------------------
 (4) _eeprom_at24c04_byte_write                            4     3      1     183
                                              3 COMMON     4     3      1
                          _i2c_start
                           _i2c_stop
                          _i2c_write
 ---------------------------------------------------------------------------------
 (3) _i2c_write                                            1     1      0      31
                                              2 COMMON     1     1      0
                  _i2c_wait_for_idle
 ---------------------------------------------------------------------------------
 (3) _i2c_stop                                             0     0      0       0
                  _i2c_wait_for_idle
 ---------------------------------------------------------------------------------
 (3) _i2c_start                                            0     0      0       0
                  _i2c_wait_for_idle
 ---------------------------------------------------------------------------------
 (4) _i2c_wait_for_idle                                    0     0      0       0
 ---------------------------------------------------------------------------------
 (2) _clcd_putch                                           2     1      1    5974
                                             10 BANK0      2     1      1
                            ___awdiv (ARG)
                            ___awmod (ARG)
                            ___lwdiv (ARG)
                            ___lwmod (ARG)
                         _clcd_write
 ---------------------------------------------------------------------------------
 (2) _clcd_print                                           3     0      3    8348
                                              6 COMMON     3     0      3
                         _clcd_write
 ---------------------------------------------------------------------------------
 (3) _clcd_write                                           4     3      1    1952
                                              2 COMMON     4     3      1
 ---------------------------------------------------------------------------------
 Estimated maximum stack depth 4
 ---------------------------------------------------------------------------------
 (Depth) Function   	        Calls       Base Space   Used Autos Params    Refs
 ---------------------------------------------------------------------------------
 (8) _isr                                                  2     2      0       0
                                              0 COMMON     2     2      0
 ---------------------------------------------------------------------------------
 Estimated maximum stack depth 8
 ---------------------------------------------------------------------------------

 Call Graph Graphs:

 _main (ROOT)
   ___lwdiv
     _read_adc (ARG)
   _change_password
     _clcd_print
       _clcd_write
     _clcd_putch
       ___awdiv (ARG)
       ___awmod (ARG)
       ___lwdiv (ARG)
       ___lwmod (ARG)
         ___lwdiv (ARG)
       _clcd_write (ARG)
     _clcd_write
     _eeprom_at24c04_str_write
       _eeprom_at24c04_byte_write
         _i2c_start
           _i2c_wait_for_idle
         _i2c_stop
           _i2c_wait_for_idle
         _i2c_write
           _i2c_wait_for_idle
     _strncmp
     _strncpy
   _change_time
     ___lwdiv
     ___lwmod
     ___wmul
     _clcd_print
     _clcd_putch
     _clcd_write
     _get_time
       _read_ds1307
         _i2c_read
           _i2c_wait_for_idle
         _i2c_rep_start
           _i2c_start
           _i2c_stop
         _i2c_start
         _i2c_stop
         _i2c_write
     _write_ds1307
       _i2c_start
       _i2c_stop
       _i2c_write
   _clcd_print
   _clcd_write
   _clear_log
     _clcd_print
   _clear_screen
     _clcd_write
   _display_dashboard
     ___awdiv
     ___awmod
     _clcd_print
     _clcd_putch
     _display_time
       _clcd_putch
       _get_time
   _download_log
     ___bmul
     _eeprom_at24c04_random_read
       _i2c_read
       _i2c_rep_start
       _i2c_start
       _i2c_stop
       _i2c_write
     _putchar
     _puts
       _putchar
   _eeprom_at24c04_str_write
   _init_config
     _init_adc
     _init_clcd
       _init_display_controller
         _clcd_write
     _init_digital_keypad
     _init_ds1307
       _read_ds1307
       _write_ds1307
     _init_i2c
       ___lldiv
     _init_timer2
     _init_uart
       ___lldiv
   _log_car_event
     ___awdiv
     ___awmod
     _get_time
     _log_event
       ___bmul
       _eeprom_at24c04_str_write
     _strncpy
   _login
     ___lwdiv
     ___lwmod
     _clcd_print
     _clcd_putch
     _clcd_write
     _clear_screen
     _eeprom_at24c04_random_read
     _strncmp
   _login_menu
     _clcd_print
     _clcd_putch
     _clear_screen
   _read_adc
   _read_digital_keypad
   _strcpy
   _view_log
     ___bmul
     _clcd_print
     _clcd_putch
     _eeprom_at24c04_random_read

 _isr (ROOT)

 Address spaces:
Name               Size   Autos  Total    Cost      Usage
BANK3               60      0       0       9        0.0%
BITBANK3            60      0       0       8        0.0%
SFR3                 0      0       0       4        0.0%
BITSFR3              0      0       0       4        0.0%
BANK2               60      0       0      11        0.0%
BITBANK2            60      0       0      10        0.0%
SFR2                 0      0       0       5        0.0%
BITSFR2              0      0       0       5        0.0%
BANK1               50      9      3A       7       72.5%
BITBANK1            50      0       0       6        0.0%
SFR1                 0      0       0       2        0.0%
BITSFR1              0      0       0       2        0.0%
BANK0               50     23      4E       5       97.5%
BITBANK0            50      0       0       4        0.0%
SFR0                 0      0       0       1        0.0%
BITSFR0              0      0       0       1        0.0%
COMMON               E      A       C       1       85.7%
BITCOMMON            E      0       0       0        0.0%
CODE                 0      0       0       0        0.0%
DATA                 0      0      94      12        0.0%
ABS                  0      0      94       3        0.0%
NULL                 0      0       0       0        0.0%
STACK                0      0       0       2        0.0%
EEDATA             100      0       0       0        0.0%


Microchip Technology PIC Macro Assembler V2.40 build 20220703182018 
Symbol Table                                                                                   Thu Oct 20 10:43:11 2022

                                      pc 0002                           ___bmul@product 0074  
                         clcd_print@addr 0078                                       l20 16E6  
                                     l23 1126                                       l32 134B  
                                     l17 120A                                       l26 119E  
                                     l52 12C6                                       l55 11EA  
                                     l49 1176                                       l90 1133  
                                     l84 13DC                                       l93 10F1  
                                     l87 1127                                       l96 1110  
                                     _GO 00FA                                       l99 10FA  
                           ___awdiv@sign 0046                                       fsr 0004  
                    ___wmul@multiplicand 0074                       login_menu@menu_pos 003C  
                                    l102 1226                                      l103 1229  
                                    l104 122B                                      l122 06FF  
                                    l107 1105                                      l125 1155  
                                    l205 0232                                      l310 1151  
                                    l304 1507                                      l128 1163  
                                    l321 0E5A                                      l225 0240  
                                    l234 029E                                      l307 173E  
                                    l340 0A5C                                      l422 068F  
                                    l246 034E                                      l360 0CB8  
                                    l187 144E                                      l364 12F1  
                                    l444 10DA                                      l293 15E2  
                                    l533 13AA                                      l390 0FFF  
                                    l374 0B78                                      l543 1116  
                                    l551 129B                                      l480 091A  
                                    l296 1638                                      l544 111A  
                                    l545 111B                                      l457 09A3  
                                    l803 1797                                      l299 168F  
                                    l637 1238                                      l477 131C  
                                    l486 137A                                      l639 1250  
                                    l663 11B3                                      l673 17FF  
                                    l499 1140                                      l909 154D  
                                    l790 06F8                                      l919 148A  
                                    _GIE 005F                                      _RE1 0049  
                                    _RE2 004A                                      _PR2 0092  
                                    _PEN 048A                                      _SEN 0488  
                          ?_display_time 0070                            log_event@addr 0046  
                                    _log 00B9                                      _sec 0035  
                                    _isr 13DD                           clcd_putch@addr 004F  
                                    _pos 006A                                      fsr0 0004  
                         clcd_putch@data 0050                                      indf 0000  
                           ___awmod@sign 0078         __end_of_eeprom_at24c04_str_write 137B  
                     log_car_event@event 0049                       log_car_event@speed 004B  
             change_password@pwd_changed 003B                                     l1110 1595  
                                   l1091 1275                                     l1094 14B8  
                  ??_read_digital_keypad 0072                                     l1099 14C8  
                                   l5000 09B4                                     l5010 09C9  
                                   l5002 09B6                                     l4300 10F2  
                                   l5020 09DF                                     l5012 09CB  
                                   l5004 09B7                                     l4302 10F7  
                                   l5110 0E7B                                     l5102 0E5E  
                                   l5030 09F6                                     l5022 09E1  
                                   l5014 09CD                                     l5006 09BC  
                                   l4304 10FC                                     l5200 0FDF  
                                   l5120 0E95                                     l5112 0E89  
                                   l5104 0E6B                                     l4320 121D  
                                   l4312 1106                                     l4400 11A1  
                                   l5040 0A59                                     l5032 0A0B  
                                   l5008 09C4                                     l5016 09D3  
                                   l4330 11F6                                     l4306 1101  
                                   l5210 0FF3                                     l5130 0E9E  
                                   l5114 0E8D                                     l5106 0E6D  
                                   l4322 1222                                     l4314 120C  
                                   l4402 11A5                                     l5034 0A21  
                                   l5018 09D9                                     l5026 09E6  
                                   l5050 0B9C                                     l4332 11F8  
                                   l4308 1105                                     l4500 1551  
                                   l5132 0EAB                                     l5140 0ED1  
                                   l5124 0E97                                     l5116 0E8E  
                                   l5108 0E75                                     l4324 122A  
                                   l4316 1211                                     l5300 0592  
                                   l4404 11A9                                     l4420 17BE  
                                   l4412 1798                                     l5036 0A27  
                                   l5028 09EE                                     l5060 0BC0  
                                   l5052 0BA2                                     l5044 0B7C  
                                   l4334 11FE                                     l4342 08F5  
                                   l4510 157F                                     l4502 1554  
                                   l5206 0FE1                                     l5150 0F0B  
                                   l5142 0EE0                                     l5134 0EB6  
                                   l5126 0E9C                                     l5118 0E90  
                                   l4318 1219                                     l5310 05AC  
                                   l5302 0593                                     l5230 03C7  
                                   l4406 11AB                                     l4350 169F  
                                   l4430 17F1                                     l4422 17C7  
                                   l4414 17AA                                     l5038 0A4F  
                                   l5070 0BF4                                     l5062 0BCC  
                                   l5054 0BA4                                     l5046 0B7D  
                                   l4328 11EC                                     l4344 0911  
                                   l4512 1583                                     l4504 155A  
                                   l5208 0FE8                                     l5160 0F2E  
                                   l5152 0F15                                     l5144 0EEF  
                                   l5136 0EBD                                     l4336 129D  
                                   l5312 05BC                                     l5304 059B  
                                   l5240 043B                                     l5232 0428  
                                   l4600 06C5                                     l4408 11B2  
                                   l4520 12F8                                     l4360 16C5  
                                   l4352 16AF                                     l4440 1120  
                                   l4424 17D9                                     l4416 17AD  
                                   l4432 17F7                                     l5080 0C0B  
                                   l5072 0BFA                                     l5064 0BD4  
                                   l5056 0BAA                                     l5048 0B85  
                                   l5400 0139                                     l4450 133B  
                                   l4370 134F                                     l4514 1587  
                                   l5170 0F58                                     l5162 0F35  
                                   l5154 0F1B                                     l5146 0EFA  
                                   l5138 0EC7                                     l4338 12C5  
                                   l5322 05D4                                     l5250 0445  
                                   l5242 043C                                     l5234 0433  
                                   l5090 12C8                                     l4602 06D6  
                                   l4610 06EA                                     l4530 1316  
                                   l4522 12FE                                     l4362 16D1  
                                   l4354 16B4                                     l4346 1690  
                                   l4442 1121                                     l4426 17E7  
                                   l4418 17BA                                     l5082 0C16  
                                   l5066 0BE1                                     l5058 0BB8  
                                   l5410 0150                                     l5402 0140  
                                   l4444 131D                                     l4292 1127  
                                   l4372 1350                                     l4540 1495  
                                   l4508 1578                                     l5172 0F5A  
                                   l5164 0F41                                     l5180 0F7F  
                                   l5156 0F24                                     l5148 0F01  
                                   l4700 1486                                     l4380 1596  
                                   l5316 05C8                                     l5308 05A1  
                                   l5324 05E4                                     l5260 04AA  
                                   l5252 0451                                     l5236 0439  
                                   l5244 043E                                     l5228 03C1  
                                   l5092 12DE                                     l4612 06EF  
                                   l4604 06DC                                     l4620 1740  
                                   l4532 131B                                     l4524 1304  
                                   l4516 12F3                                     l4364 16DA  
                                   l4356 16BB                                     l4348 1698  
                                   l4436 111C                                     l4452 1164  
                                   l4428 17E8                                     l4460 13AE  
                                   l5084 0C1E                                     l5068 0BE9  
                                   l5500 0266                                     l5420 016B  
                                   l5404 0144                                     l4446 1325  
                                   l4366 118D                                     l4294 112D  
                                   l4374 1360                                     l4542 14A1  
                                   l5190 0FAF                                     l5182 0F88  
                                   l5174 0F61                                     l5166 0F47  
                                   l5158 0F2C                                     l4390 15D1  
                                   l4382 15B1                                     l5270 0529  
                                   l5262 04DA                                     l5254 0469  
                                   l5246 0443                                     l5238 043A  
                                   l5094 12E4                                     l4614 06F4  
                                   l4606 06DD                                     l4630 1754  
                                   l4622 1744                                     l4526 1309  
                                   l4518 12F3                                     l4358 16BE  
                                   l4438 111F                                     l4454 116B  
                                   l4462 13D9                                     l4470 1138  
                                   l4710 1415                                     l5086 0C2B  
                                   l5078 0BFC                                     l5510 0292  
                                   l5430 017F                                     l5422 016E  
                                   l5414 0157                                     l5406 0146  
                                   l5350 004B                                     l5342 0040  
                                   l4448 1335                                     l4296 10E9  
                                   l4376 1366                                     l4536 148C  
                                   l5192 0FB6                                     l5184 0F9A  
                                   l5168 0F50                                     l4560 122C  
                                   l4392 15DD                                     l4384 15BD  
                                   l4368 11CE                                     l5272 0534  
                                   l5264 0516                                     l5256 049E  
                                   l4608 06E4                                     l4640 176C  
                                   l4632 175A                                     l4624 1749  
                                   l4528 130F                                     l4552 1276  
                                   l4464 06F9                                     l4456 116E  
                                   l4472 113C                                     l4720 1438  
                                   l4712 141A                                     l4480 1141  
                                   l4704 1152                                     l4800 125F  
                                   l5088 0CAE                                     l5520 02AD  
                                   l5512 0296                                     l5440 01B9  
                                   l5432 0190                                     l5424 0173  
                                   l5416 015C                                     l5408 014A  
                                   l5360 0084                                     l5352 0050  
                                   l5344 0044                                     l4298 10EE  
                                   l4378 136C                                     l4546 14B0  
                                   l4538 148D                                     l5194 0FC1  
                                   l5186 0F9D                                     l5178 0F6D  
                                   l4570 124C                                     l4562 122E  
                                   l4394 15E1                                     l4386 15C1  
                                   l5290 0572                                     l5274 053F  
                                   l5266 051A                                     l5258 04A2  
                                   l5098 12F0                                     l4650 178E  
                                   l4642 1776                                     l4634 175D  
                                   l4626 174B                                     l4618 173F  
                                   l4554 1277                                     l4810 0A6C  
                                   l4802 0A5D                                     l4466 10D5  
                                   l4458 13AB                                     l4474 113D  
                                   l4722 143D                                     l4714 141F  
                                   l4490 14D8                                     l4730 16EC  
                                   l4482 1148                                     l4706 1159  
                                   l5530 02F9                                     l5514 029A  
                                   l5506 026E                                     l5442 01BD  
                                   l5434 019B                                     l5426 0177  
                                   l5418 0167                                     l5370 00BA  
                                   l5362 008C                                     l5354 005A  
                                   l5346 004A                                     l4548 14C6  
                                   l5196 0FCC                                     l5188 0FA7  
                                   l4660 1512                                     l4564 1232  
                                   l4388 15CD                                     l5292 057B  
                                   l5276 0543                                     l5268 0522  
                                   l5284 0554                                     l4580 069C  
                                   l4652 1793                                     l4644 177C  
                                   l4636 1764                                     l4628 174F  
                                   l4484 15E3                                     l4396 1112  
                                   l4556 1285                                     l4820 0AA5  
                                   l4812 0A76                                     l4804 0A63  
                                   l4468 1134                                     l4476 137B  
                                   l4724 144C                                     l4716 142E  
                                   l4492 14DA                                     l4732 16FA  
                                   l4900 0CD8                                     l4740 0920  
                                   l5540 0327                                     l5532 0308  
                                   l5524 02B2                                     l5516 02A3  
                                   l5508 028D                                     l5452 01CA  
                                   l5444 01C0                                     l5436 01A6  
                                   l5428 017A                                     l5380 00F3  
                                   l5372 00CE                                     l5364 0092  
                                   l5356 0066                                     l5348 004A  
                                   l5198 0FD0                                     l4670 1535  
                                   l4662 1515                                     l4566 123F  
                                   l5294 057D                                     l5278 0552  
                                   l5286 0567                                     l4590 06AD  
                                   l4582 069E                                     l4574 0690  
                                   l4646 1783                                     l4638 1768  
                                   l4398 11A0                                     l4558 128B  
                                   l4830 0ABC                                     l4822 0AAB  
                                   l4814 0A7F                                     l4806 0A64  
                                   l4478 137F                                     l4726 144D  
                                   l4718 1433                                     l4494 14E6  
                                   l4486 14C9                                     l4734 1738  
                                   l4910 0D03                                     l4902 0CE6  
                                   l4742 0926                                     l4750 0932  
                                   l5542 032D                                     l5534 0310  
                                   l5526 02DD                                     l5518 02A8  
                                   l5470 0210                                     l5454 01CF  
                                   l5446 01C5                                     l5438 01AB  
                                   l5462 01E7                                     l5390 0116  
                                   l5382 00F5                                     l5374 00D6  
                                   l5366 00AE                                     l5358 0082  
                                   l4672 153B                                     l4664 151C  
                                   l4656 1508                                     l4568 1246  
                                   l5296 0586                                     l5288 0570  
                                   l4592 06B3                                     l4584 06A2  
                                   l4576 0693                                     l4648 1789  
                                   l4840 0AEE                                     l4832 0AC7  
                                   l4816 0A85                                     l4808 0A64  
                                   l4496 14F0                                     l4488 14D1  
                                   l4736 1739                                     l4728 16E7  
                                   l4920 0D1E                                     l4912 0D09  
                                   l4904 0CEE                                     l4752 0938  
                                   l4744 092B                                     l5560 0387  
                                   l5552 0352                                     l5544 033C  
                                   l5536 0321                                     l5528 02EC  
                                   l5480 0223                                     l5472 0216  
                                   l5456 01E0                                     l5464 0202  
                                   l5392 011B                                     l5368 00B4  
                                   l5376 00E8                                     l4674 153C  
                                   l4666 1520                                     l4658 150C  
                                   l4690 1465                                     l4682 144F  
                                   l5298 0588                                     l4594 06B6  
                                   l4586 06A7                                     l4578 0697  
                                   l4850 0B14                                     l4842 0AF6  
                                   l4834 0ACF                                     l4818 0A9B  
                                   l4498 14FF                                     l4906 0CF4  
                                   l4914 0D0C                                     l4770 096F  
                                   l4754 093D                                     l4762 094D  
                                   l4746 092D                                     l4738 091B  
                                   l5562 038D                                     l5538 0325  
                                   l5490 0247                                     l5482 0229  
                                   l5474 021C                                     l5466 0208  
                                   l5458 01E4                                     l5394 0120  
                                   l5378 00EE                                     l5386 010A  
                                   l4676 1543                                     l4668 1524  
                                   l4692 1469                                     l4684 1457  
                                   l4596 06BD                                     l4588 06AB  
                                   l4860 0B4C                                     l4852 0B1A  
                                   l4844 0AFE                                     l4836 0ADC  
                                   l4828 0AAD                                     l4940 0D52  
                                   l4916 0D12                                     l4908 0CFA  
                                   l4772 0978                                     l4780 0986  
                                   l4764 0952                                     l4756 093E  
                                   l4748 092F                                     l5556 0355  
                                   l5492 024E                                     l5484 022F  
                                   l5468 020E                                     l5396 012B  
                                   l5388 0110                                     l4678 1549  
                                   l4694 1473                                     l4686 145A  
                                   l4598 06C1                                     l4870 163C  
                                   l4862 0B54                                     l4854 0B22  
                                   l4846 0B04                                     l4838 0AE5  
                                   l4950 0D6F                                     l4942 0D64  
                                   l4934 0D30                                     l4918 0D18  
                                   l4926 0D28                                     l4782 098B  
                                   l4774 097E                                     l4790 09A2  
                                   l4766 0961                                     l4758 094B  
                                   l5558 0374                                     l5494 0256  
                                   l5830 01F1                                     l5398 0132  
                                   l5566 0393                                     l4696 1479  
                                   l4688 1461                                     l5840 055C  
                                   l4872 1647                                     l4864 0B5C  
                                   l4856 0B2A                                     l4848 0B0C  
                                   l4960 0D9D                                     l4952 0D73  
                                   l4936 0D3D                                     l4928 0D2E  
                                   l4880 0CC4                                     l4784 0994  
                                   l4768 096A                                     l5832 0285  
                                   l5496 025C                                     l5568 03B6  
                                   l5488 0233                                     _ADFM 04FF  
                                   l4698 1480                                     l5842 05D9  
                                   l4874 164C                                     l4866 0B62  
                                   l4858 0B43                                     l4970 0E0A  
                                   l4962 0DEF                                     l4954 0D78  
                                   l4938 0D45                                     l4890 0CCD  
                                   l4882 0CC7                                     l4786 099A  
                                   l4794 1252                                     l5834 02C9  
                                   l5498 025F                                     l5844 0F77  
                                   l4868 0B68                                     l4980 0E42  
                                   l4972 0E20                                     l4964 0DF7  
                                   l4956 0D86                                     l4948 0D66  
                                   l4892 0CCF                                     l4884 0CC8  
                                   l4876 0CBC                                     l4796 1255  
                                   l5836 036C                                     ?_isr 0070  
                                   l4982 0E44                                     l4974 0E2F  
                                   l4958 0D91                                     l4966 0DFA  
                                   l4886 0CC9                                     l4878 0CC2  
                                   l4894 0CD1                                     l4798 1259  
                                   l5838 039F                                     l4984 0E4B  
                                   l4976 0E34                                     l4968 0DFF  
                                   l4896 0CD6                                     l4888 0CCA  
                                   l4992 09A7                                     l4986 0E52  
                                   l4978 0E3F                                     l4994 09AC  
                                   l4988 0E59                                     l4998 09AE  
                                   _ADON 00F8                                     STR_1 08E4  
                                   STR_2 08ED                                     STR_3 08D2  
                                   STR_4 08D5                                     STR_5 08D8  
                                   STR_6 08DB                                     STR_7 08CD  
                                   STR_8 08E7                                     STR_9 0814  
                                   _CREN 00C4                                     u4000 0952  
                                   u4001 0951                                     u4010 0961  
                                   u4011 0960                                     u3300 11F3  
                                   u4100 0ADC                                     u4020 096F  
                                   u3301 11EF                                     u4101 0ADB  
                                   u4021 096E                                     u4110 0B78  
                                   u4030 0978                                     u4111 0B77  
                                   u4031 0977                                     u4015 095D  
                                   u3320 137A                                     u4200 0D64  
                                   u4120 0CC2                                     u4040 097E  
                                   u3321 1379                                     u4105 0AD8  
                                   u4201 0D63                                     u4121 0CC1  
                                   u4041 097D                                     u3314 11F6  
                                   u3410 17BE                                     u4210 0D6F  
                                   u4130 0CD6                                     u4050 098B  
                                   u4115 0B74                                     u3411 17BD  
                                   u4211 0D6E                                     u4131 0CD5  
                                   u4051 098A                                     u3500 14FF  
                                   u4220 0DF7                                     u4140 0CEE  
                                   u4300 0A27                                     u4060 0994  
                                   u3405 17AF                                     u3501 14FE  
                                   u4221 0DF6                                     u4141 0CED  
                                   u4301 0A26                                     u4061 0993  
                                   u3270 112D                                     u3510 1577  
                                   u3430 17D9                                     u4150 0CF4  
                                   u4230 09AC                                     u4070 099A  
                                   u4310 0B85                                     u3271 112C  
                                   u3511 1576                                     u3335 15B4  
                                   u5007 16B1                                     u3431 17D8  
                                   u4151 0CF3                                     u4231 09AB  
                                   u4071 0999                                     u4311 0B84  
                                   u3280 1133                                     u3520 157E  
                                   u4400 0E73                                     u3360 111A  
                                   u4160 0D12                                     u4240 09B4  
                                   u4080 1275                                     u4320 0BA2  
                                   u3281 1132                                     u3521 157D  
                                   u4401 0E71                                     u3345 15C4  
                                   u3361 1119                                     u5017 16C7  
                                   u3425 17C0                                     u3505 14FB  
                                   u4161 0D11                                     u4241 09B3  
                                   u4081 1274                                     u4321 0BA1  
                                   u3530 1595                                     u4410 0E74  
                                   u3610 124C                                     u3290 1222  
                                   u3370 11A5                                     u4090 0A6C  
                                   u3450 17F7                                     u4170 0D18  
                                   u4250 09C4                                     u4330 0BAA  
                                   u3531 1594                                     u3611 124B  
                                   u3291 1221                                     u3355 15D4  
                                   u3371 11A4                                     u4091 0A6B  
                                   u5027 16D5                                     u3451 17F6  
                                   u3435 17D5                                     u4171 0D17  
                                   u4251 09C3                                     u4331 0BA9  
                                   u3460 134B                                     u3540 1495  
                                   u4500 0F35                                     u4420 0E7B  
                                   u3700 06EA                                     u3620 0697  
                                   u3380 11B2                                     u4180 0D2E  
                                   u4260 09C9                                     u4340 0BB8  
                                   u3461 134A                                     u3541 1494  
                                   u4501 0F34                                     u4421 0E7A  
                                   u3605 1240                                     u3701 06E9  
                                   u3621 0696                                     u3381 11B1  
                                   u5037 16E3                                     u3445 17E9  
                                   u4181 0D2D                                     u4261 09C8  
                                   u4341 0BB7                                     u3550 14A1  
                                   u4510 0F61                                     u4430 0E95  
                                   u3710 06EF                                     u3630 06A2  
                                   u3390 17AA                                     u3470 13BC  
                                   u4190 0D52                                     u4270 09D9  
                                   u4350 0BD4                                     u3551 14A0  
                                   u4511 0F60                                     u4431 0E94  
                                   u5047 054B                                     u3711 06EE  
                                   u3631 06A1                                     u3391 17A9  
                                   u4191 0D51                                     u4271 09D8  
                                   u4351 0BD3                                     u3560 14C6  
                                   u4520 0F88                                     u4440 0E9C  
                                   u4600 057B                                     u3640 06B3  
                                   u3800 178E                                     u3720 1744  
                                   u3480 138D                                     u4280 09DF  
                                   u4360 0BE1                                     u3561 14C5  
                                   u4521 0F87                                     u4441 0E9B  
                                   u5057 05B4                                     u4601 057A  
                                   u3641 06B2                                     u3801 178D  
                                   u3721 1743                                     u4281 09DE  
                                   u4361 0BE0                                     u4345 0BB4  
                                   u4530 0F9A                                     u4450 0EAB  
                                   u3810 1512                                     u4610 0586  
                                   u3730 174F                                     u3570 129B  
                                   u3490 14D8                                     u4290 09EE  
                                   u4370 0C2B                                     u5067 0FD8  
                                   u4531 0F99                                     u4451 0EAA  
                                   u3811 1511                                     u4611 0585  
                                   u3731 174E                                     u3571 129A  
                                   u3475 13B7                                     u3491 14D7  
                                   u4195 0D4E                                     u4291 09ED  
                                   u4371 0C2A                                     _PEIE 005E  
                                   u4460 0EBD                                     u3900 1469  
                                   u3580 1232                                     u4620 0592  
                                   u4540 03C7                                     u4380 12E4  
                                   u3660 06C5                                     u3740 175A  
                                   u4700 00EE                                     u5077 0915  
                                   u4461 0EBC                                     u3901 1468  
                                   u3581 1231                                     u4621 0591  
                                   u4541 03C6                                     u4381 12E3  
                                   u3661 06C4                                     u3741 1759  
                                   u3485 1388                                     u4365 0BDD  
                                   u4701 00ED                                     u4470 0EE0  
                                   u4390 0E6B                                     u3830 1524  
                                   u3910 1473                                     u4630 0599  
                                   u4550 0443                                     u4710 00F3  
                                   u5087 11FB                                     u4471 0EDF  
                                   u4455 0EA7                                     u4391 0E6A  
                                   u3831 1523                                     u3911 1472  
                                   u4631 0597                                     u4551 0442  
                                   u3655 06B7                                     u4375 0C27  
                                   u4711 00F2                                     u4480 0EEF  
                                   u4640 059A                                     u3680 06D6  
                                   u3760 176C                                     u4800 0222  
                                   u4720 0110                                     u5097 1205  
                                   u4481 0EEE                                     u3825 1516  
                                   u3681 06D5                                     u3761 176B  
                                   u4801 0221                                     u4721 010F  
                                   u4490 0F01                                     u3850 1535  
                                   u3930 1486                                     u4650 05A0  
                                   u3770 1776                                     u4810 0229  
                                   u4730 0116                                     u4491 0F00  
                                   u4475 0EDC                                     u3851 1534  
                                   u3931 1485                                     u3915 146F  
                                   u3595 1239                                     u4651 059F  
                                   u3675 06C6                                     u3771 1775  
                                   u3755 175E                                     u4811 0228  
                                   u4731 0115                                     u3940 1159  
                                   u4820 022F                                     u4740 011B  
                                   u4660 0082                                     _RCEN 048B  
                                   _RCIF 0065                                     u4485 0EEB  
                                   u3845 1525                                     u3925 147A  
                                   u4565 0495                                     u3685 06D2  
                                   u3941 1158                                     u4821 022E  
                                   u4741 011A                                     u4661 0081  
                                   u3870 1549                                     u4590 0570  
                                   u3790 1789                                     u3950 0926  
                                   u4830 02F9                                     u4750 0150  
                                   u4670 0092                                     u3871 1548  
                                   u3855 1531                                     u4591 056F  
                                   u4575 04D1                                     u3695 06DE  
                                   u3791 1788                                     u3775 1772  
                                   u3951 0925                                     u4831 02F8  
                                   u4751 014F                                     u4671 0091  
                                   u3880 1457                                     u3960 092B  
                                   u4840 0310                                     u4760 0156  
                                   u4680 00B4                                     u3865 153D  
                                   u3881 1456                                     u4585 050D  
                                   u3785 177D                                     u3961 092A  
                                   u4841 030F                                     u4761 0155  
                                   u4681 00B3                                     u3970 0938  
                                   u4850 0387                                     u4770 0208  
                                   u4690 00BA                                     u3971 0937  
                                   u4851 0386                                     u4907 0301  
                                   u4771 0207                                     u4691 00B9  
                                   u3980 093D                                     u4780 020E  
                                   u3981 093C                                     u4917 0335  
                                   u4781 020D                                     u3990 094B  
                                   u4790 021C                                     u3895 145B  
                                   u3991 094A                                     u4927 0CB4  
                                   u4791 021B                                     u4937 0CE0  
                                   u4947 0D83                                     u3995 0947  
                                   u4867 013D                                     u4957 0E28  
                                   u4877 01B3                                     u4967 0E56  
                                   u4887 0252                                     u4977 114C  
                                   u4897 026A                                     u4987 1694  
                                   u4997 16A3                                     _SPEN 00C7  
                                   _TXIF 0064                                     _R_nW 04A2  
                                   _gear 00A0                                     _main 0040  
                                   _menu 00AC                                     _time 003E  
                                   btemp 007E                                     _puts 1276  
                                   start 000C                    clear_log@reset_memory 0079  
                      ___bmul@multiplier 0075                      view_log@reset_index 0051  
                         clcd_write@byte 0075                           clcd_write@mode 0072  
                          _i2c_rep_start 1106                                    ??_isr 0070  
                           ?_init_ds1307 0070                                    ?_main 0070  
                           ?_read_ds1307 0070                                    _ACKEN 048C  
                                  _ACKDT 048D                           ??_display_time 007A  
                        __end_of___awdiv 06F9                                    STR_10 07F2  
                                  STR_11 08E1                                    STR_12 07E1  
                                  STR_20 0845                                    STR_13 0803  
                                  STR_21 08AD                                    STR_30 0725  
                                  STR_14 08F0                                    STR_22 077B  
                                  STR_31 0725                                    STR_15 08DE  
                                  STR_23 079D                                    STR_40 0731  
                                  STR_16 08EA                                    STR_32 086F  
                                  STR_24 07D0                                    STR_33 0896  
                                  STR_25 076A                                    STR_41 0759  
                                  STR_17 08B6                                    STR_50 0862  
                                  STR_26 0835                                    STR_42 07AE  
                                  STR_34 0736                                    STR_18 08A3  
                                  STR_27 0814                                    STR_35 08BF  
                                  STR_51 0889                                    STR_43 0724  
                                  STR_19 087C                                    STR_52 0733  
                                  STR_28 0725                                    STR_44 0724  
                                  STR_36 0700                          __end_of___awmod 1798  
                                  STR_53 0733                                    STR_37 0732  
                                  STR_45 078C                                    STR_29 0748  
                                  STR_54 0733                                    STR_38 072F  
                                  STR_46 0854                                    STR_39 0729  
                                  STR_47 07BF                                    STR_48 08C6  
                                  STR_49 0825                                    ?_puts 0073  
                        __end_of___lldiv 1800                              i2c_read@ack 0072  
                        ___awdiv@divisor 0072                          __end_of___lwdiv 154E  
                        __end_of___lwmod 148B                                    i1l516 140E  
                           ?_init_config 0070                          ___awdiv@counter 0045  
                                  _RCREG 001A                                    _SPBRG 0099  
                                  _PORTB 0006                                    _PORTD 0008  
                                  _SSPM3 00A3                                    _TRISB 0086  
                                  _TRISD 0088                                    _SSPEN 00A5  
                                  _TXREG 0019                             ?_init_timer2 0070  
                           main@menu_pos 00D1                                    _nDONE 00FA  
                   __end_of_clear_screen 1152                                    _login 0CB9  
                        _change_password 0E5B                                    pclath 000A  
                   login_menu@reset_flag 0051       eeprom_at24c04_str_write@memory_loc 0045  
                                  puts@s 0073                          __end_of_putchar 111C  
                                  status 0003                                    wtemp0 007E  
                        __end_of_strncmp 14C9                          __end_of_strncpy 1596  
eeprom_at24c04_random_read@received_data 0075                         init_ds1307@dummy 0076  
                        __initialization 000F                           ?_i2c_rep_start 0070  
                           __end_of_main 03BE                             __end_of_puts 129C  
                         login@npassword 00CD                         __end_of_i2c_read 122C  
                       __end_of_i2c_stop 10FB                            ?_download_log 0070  
                                 ??_main 0065                                   ??_puts 0075  
                         login@spassword 0057                                   _ADRESH 001E  
                                 ?_login 0051                                   _ADRESL 009E  
                       ___awdiv@dividend 0074                             i2c_read@data 0073  
                                 i1l4050 13F4                                   i1l4052 13FA  
                                 i1l4060 140D                                   i1l4044 13DD  
                                 i1l4054 1400                                   i1l4046 13E3  
                                 i1l4056 1406                                   i1l4048 13F2  
                                 i1l4058 140B                                   u322_20 13E3  
                                 u322_21 13E2                                   u323_20 13F2  
                                 u323_21 13F1                                   u324_20 13FA  
                                 u324_21 13F9                                   u325_20 1406  
                                 u325_21 1405                                   u326_20 140B  
                                 u326_21 140A                             _write_ds1307 11CD  
                                 _TMR2IE 0461                                   _TMR2IF 0061  
                                 _TMR2ON 0092              ?_eeprom_at24c04_random_read 0070  
                                 _SSPADD 0093                                   _TRISE1 0449  
                                 _TRISE2 044A                                   _SSPBUF 0013  
                          login_menu@key 0054              __end_of_init_digital_keypad 10DB  
              ?_eeprom_at24c04_str_write 0077                         __end_of_get_time 15E3  
                                 ___bmul 119F                  _init_display_controller 1690  
                                 ___wmul 122C                                ??___awdiv 0076  
                              ??___awmod 0076                                ??___lldiv 0045  
                              ??___lwdiv 0045                                ??___lwmod 004D  
                       __end_of_init_i2c 13DD                         __end_of_init_adc 0700  
                       __end_of_read_adc 1164                           ??_download_log 0076  
                       ___awdiv@quotient 0047                          ___awmod@divisor 0072  
                          view_log@index 0033                          ___awmod@counter 0077  
                                 main@gr 00D5                        change_time@buffer 0056  
                                 _strcpy 1251                        change_time@t_done 0037  
                                 login@i 003D                                   login@j 005C  
                __end_of_change_password 1000                                   saved_w 007E  
                       __end_of_view_log 0CB9                                ??_putchar 0072  
                              ??_strncmp 0075                                ??_strncpy 0076  
                __end_of__initialization 003C                     __end_of_display_time 1639  
                        ??_i2c_rep_start 0072                      ___bmul@multiplicand 0072  
                         __pcstackCOMMON 0070                             __pidataBANK0 10DB  
                           __pidataBANK1 11B4               ?_eeprom_at24c04_byte_write 0073  
                          __end_of_login 0E5B                          login@reset_flag 0051  
                      __end_of_i2c_start 10F2                        __end_of_i2c_write 1106  
           change_password@toggle_cursor 003A                        _i2c_wait_for_idle 1127  
                        change_time@wait 0039                                  ??_login 0052  
                     ?_i2c_wait_for_idle 0070                               __pbssBANK0 0020  
                             __pbssBANK1 00B9                                ?_i2c_read 0070  
                              ?_i2c_stop 0070                ??_init_display_controller 0076  
                             _clcd_print 131D                      ??_i2c_wait_for_idle 0072  
                             _clcd_putch 118A                               _clcd_write 11EB  
                             __pmaintext 0040                          read_ds1307@addr 0074  
                          _log_car_event 16E7                          read_ds1307@data 0075  
                           _clear_screen 1141                                  ?___bmul 0072  
                                ?___wmul 0072                               __pintentry 0004  
                                _ACKSTAT 048E            eeprom_at24c04_byte_write@data 0073  
                                ?_strcpy 0072                                  _T2CKPS0 0090  
                                _T2CKPS1 0091              __end_of_read_digital_keypad 09A4  
                       ?_change_password 0051                __end_of_i2c_wait_for_idle 1134  
                           init_i2c@baud 004B                                  _SSPCON2 0091  
                              ?_get_time 0070                               __stringtab 1000  
                             ??_i2c_read 0072                               ??_i2c_stop 0072  
                              ?_init_i2c 004B                     __end_of_download_log 0B79  
                              ?_init_adc 0070          read_digital_keypad@long_pressed 002B  
                              ?_read_adc 0072                        __end_of_clear_log 12F2  
                         ?_log_car_event 0049                               _login$1103 0055  
                     change_password@key 0055                                  ___awdiv 0690  
                                ___awmod 173F                                ?_view_log 0051  
                                ___lldiv 1798                                  ___lwdiv 1508  
                                ___lwmod 144F                         main@control_flag 00D8  
                                __ptext1 0B79                                  __ptext2 1251  
                                __ptext3 091B                                  __ptext4 1152  
                                __ptext5 09A4                                  __ptext6 0CB9  
                                __ptext7 1141                                  __ptext8 16E7  
                                __ptext9 14C9          __end_of_init_display_controller 16E7  
                      __end_of_init_clcd 1127                   read_digital_keypad@key 0072  
                      __end_of_init_uart 13AB                         ___awmod@dividend 0074  
                          ??_change_time 0052                           main@reset_flag 00D6  
                      __end_of_log_event 1508                               _login_menu 09A4  
                 display_dashboard@event 0054                   display_dashboard@speed 0051  
                                _putchar 1111                                  main@key 00D9  
                                clrloop0 10E2                               ??_get_time 0076  
                                _strncmp 148B                                  _strncpy 154E  
                   end_of_initialization 003C                   change_password@new_pwd 00C4  
                             ??_init_i2c 004F                               ??_init_adc 0072  
                             ??_read_adc 0074                   change_password@pwd_pos 0031  
                            ?_clcd_print 0076                              ?_clcd_putch 004F  
                        ___lldiv@divisor 0072                              ?_clcd_write 0072  
                        ___lldiv@counter 004A                               ??_view_log 0052  
                           __pstringtext 0700                             _display_time 15E3  
                          i2c_write@data 0072                            clcd_print@str 0076  
                    __end_of_change_time 0690                          ??_log_car_event 004C  
            ??_eeprom_at24c04_byte_write 0074                           __end_of___bmul 11B4  
                         __end_of___wmul 1251                              view_log@add 0061  
                            view_log@key 0062                              view_log@log 0054  
                         __end_of_strcpy 1276                      start_initialization 000F  
                            ?_login_menu 0051                                _i2c_start 10E9  
                            __end_of_isr 1415                                _i2c_write 10FB  
               _eeprom_at24c04_str_write 134C                              putchar@data 0072  
                  __end_of_i2c_rep_start 1111                                 ??___bmul 0073  
                               ??___wmul 0076                               init_fetch0 1177  
                       change_time@blink 0038                            ??_init_ds1307 0076  
                            __pdataBANK0 0068                              __pdataBANK1 00A0  
             read_digital_keypad@pre_key 007A                            ??_read_ds1307 0074  
                           _download_log 0A5D                                 ??_strcpy 0074  
                          ??_init_config 007A                    change_time@reset_time 0051  
                          ??_init_timer2 0072                              __pbssCOMMON 007A  
                              ___latbits 0002                            __pcstackBANK0 0045  
                          __pcstackBANK1 00D1                              _change_time 03BE  
                             ?_i2c_start 0070                               ?_i2c_write 0070  
              _eeprom_at24c04_byte_write 08F4                           change_time@key 0055  
                       ___lwdiv@dividend 0078                                _clear_log 12C7  
                               ?___awdiv 0072                                 ?___awmod 0072  
                      _display_dashboard 1639                                 ?___lldiv 0072  
                               ?___lwdiv 0076                                _clock_reg 0026  
                               ?___lwmod 0049                       ?_display_dashboard 0051  
                              __pstrings 1000                      __end_of_init_ds1307 1177  
                    read_adc@adc_reg_val 0074                      ??_display_dashboard 0052  
                    __end_of_read_ds1307 12C7                         ___lwdiv@quotient 0047  
                               ?_putchar 0070                                _init_clcd 111C  
                    __end_of_init_config 144F                                _init_uart 137B  
                               ?_strncmp 0072                                 ?_strncpy 0072  
                              _log_event 14C9                            ?_write_ds1307 0073  
                    __end_of_init_timer2 1141                 ?_init_display_controller 0070  
                      interrupt_function 0004                           ___wmul@product 0076  
           ??_eeprom_at24c04_random_read 0074                                clear_ram0 10E1  
                            strncpy@from 0072                              strncpy@size 0074  
                           ??_clcd_print 0079                             ??_clcd_putch 007A  
                           ??_clcd_write 0073                               ?_clear_log 0070  
              __end_of_display_dashboard 1690                                main@F1011 00B6  
    eeprom_at24c04_byte_write@memory_loc 0076                            download_log@i 0055  
                   change_time@blink_pos 002D                              __stringbase 1012  
                      ___wmul@multiplier 0072                                main@event 00D2  
             change_password@blink_delay 002F                                main@speed 00D7  
                       view_log@position 005F                              ??_i2c_start 0072  
                     __end_of_clcd_print 134C                              ??_i2c_write 0072  
                     __end_of_clcd_putch 119F                       __end_of_clcd_write 120B  
                             ?_init_clcd 0070                               ?_init_uart 004B  
                         ??_write_ds1307 0074                               ?_log_event 0070  
                    _init_digital_keypad 10D5                                 _i2c_read 120B  
                               _i2c_stop 10F2                 change_password@reset_pwd 0051  
                   ?_init_digital_keypad 0070                              _init_ds1307 1164  
                            _event_count 0068                       __end_of__stringtab 1012  
                            _read_ds1307 129C                              _init_config 1415  
                           ??_login_menu 0052                              _init_timer2 1134  
             ??_eeprom_at24c04_str_write 0079                          ___lwdiv@divisor 0076  
                        ___lwdiv@counter 0046                                 __ptext10 1415  
                               __ptext11 137B                                 __ptext20 0A5D  
                               __ptext12 1134                                 __ptext21 1276  
                               __ptext13 13AB                                 __ptext30 03BE  
                               __ptext22 1111                                 __ptext14 1798  
                               __ptext31 11CD                                 __ptext23 12F2  
                               __ptext15 1164                                 __ptext40 154E  
                               __ptext32 1596                                 __ptext24 119F  
                               __ptext16 10D5                                 __ptext41 148B  
                               __ptext33 129C                                 __ptext25 1639  
                               __ptext17 111C                                 __ptext50 11EB  
                               __ptext42 134C                                 __ptext34 1106  
                               __ptext26 15E3                                 __ptext18 1690  
                               __ptext51 13DD                                 __ptext43 08F4  
                               __ptext35 120B                                 __ptext27 173F  
                               __ptext19 06F9                                 __ptext44 10FB  
                               __ptext36 122C                                 __ptext28 0690  
                               __ptext45 10F2                                 __ptext37 144F  
                               __ptext29 12C7                                 __ptext46 10E9  
                               __ptext38 1508             eeprom_at24c04_str_write@data 0077  
                               __ptext47 1127                                 __ptext39 0E5B  
                               __ptext48 118A                                 __ptext49 131D  
                               _get_time 1596                        login@attempts_rem 006C  
                             strcpy@from 0072                                 _init_i2c 13AB  
                               _init_adc 06F9                                 _read_adc 1152  
                read_digital_keypad@once 007B                               strncmp@len 0073  
                  __end_of_log_car_event 173F                              ??_clear_log 0079  
                      ??_change_password 0052                            ?_clear_screen 0070  
                     __end_of_login_menu 0A5D                                 _view_log 0B79  
                  ??_init_digital_keypad 0072                                view_log@i 0063  
                               isr@count 0029                      change_time@new_time 0020  
                           ?_change_time 0051                                 init_ram0 117B  
                            ??_init_clcd 0078                              ??_init_uart 004F  
                               login@key 005B                              ??_log_event 007A  
                               intlevel1 0000                            init_uart@baud 004B  
     __end_of_eeprom_at24c04_random_read 131D               _eeprom_at24c04_random_read 12F2  
                       ___lwmod@dividend 004B                         ___lldiv@dividend 0076  
                              strncmp@s1 0077                                strncmp@s2 0072  
                              stringcode 100A                           ??_clear_screen 0076  
                              strncpy@cp 0046                                strncpy@to 0045  
      __end_of_eeprom_at24c04_byte_write 091B                     __end_of_write_ds1307 11EB  
                    _read_digital_keypad 091B                         ___lldiv@quotient 0046  
                        ___lwmod@divisor 0049                     download_log@position 0051  
                               strcpy@cp 0075                                 strcpy@to 0076  
                        ___lwmod@counter 004E                                 stringtab 1000  
                            _return_time 006D                     ?_read_digital_keypad 0070  
                       write_ds1307@addr 0074                         write_ds1307@data 0073  
   eeprom_at24c04_random_read@memory_loc 0074                        download_log@index 0053  
                        download_log@add 0050                          download_log@log 0045  
