

Microchip MPLAB XC8 Assembler V2.40 build 20220703182018 
                                                                                               Tue Sep 27 18:04:38 2022

Microchip MPLAB XC8 C Compiler v2.40 (Free license) build 20220703182018 Og1 
     1                           	processor	16F877A
     2                           	pagewidth 120
     3                           	opt	flic
     4                           	psect	idataCOMMON,global,class=CODE,delta=2,noexec
     5                           	psect	idataBANK0,global,class=CODE,delta=2,noexec
     6                           	psect	strings,global,class=STRING,delta=2,noexec
     7                           	psect	cinit,global,class=CODE,merge=1,delta=2
     8                           	psect	dataCOMMON,global,class=COMMON,space=1,delta=1,noexec
     9                           	psect	bssBANK0,global,class=BANK0,space=1,delta=1,noexec
    10                           	psect	dataBANK0,global,class=BANK0,space=1,delta=1,noexec
    11                           	psect	inittext,global,class=CODE,delta=2
    12                           	psect	cstackCOMMON,global,class=COMMON,space=1,delta=1,noexec
    13                           	psect	cstackBANK0,global,class=BANK0,space=1,delta=1,noexec
    14                           	psect	maintext,global,class=CODE,split=1,delta=2
    15                           	psect	text1,local,class=CODE,merge=1,delta=2
    16                           	psect	text2,local,class=CODE,merge=1,delta=2
    17                           	psect	text3,local,class=CODE,merge=1,delta=2
    18                           	psect	text4,local,class=CODE,merge=1,delta=2
    19                           	psect	text5,local,class=CODE,merge=1,delta=2
    20                           	psect	text6,local,class=CODE,merge=1,delta=2
    21                           	psect	text7,local,class=CODE,merge=1,delta=2
    22                           	psect	text8,local,class=CODE,merge=1,delta=2
    23                           	psect	text9,local,class=CODE,merge=1,delta=2
    24                           	psect	text10,local,class=CODE,merge=1,delta=2
    25                           	psect	config,global,abs,ovrld,class=CONFIG,space=4,delta=2,noexec
    26                           	dabs	1,0x7E,2
    27     0000                     
    28                           ; Version 2.20
    29                           ; Generated 12/02/2020 GMT
    30                           ; 
    31                           ; Copyright © 2020, Microchip Technology Inc. and its subsidiaries ("Microchip")
    32                           ; All rights reserved.
    33                           ; 
    34                           ; This software is developed by Microchip Technology Inc. and its subsidiaries ("Microch
      +                          ip").
    35                           ; 
    36                           ; Redistribution and use in source and binary forms, with or without modification, are
    37                           ; permitted provided that the following conditions are met:
    38                           ; 
    39                           ;     1. Redistributions of source code must retain the above copyright notice, this lis
      +                          t of
    40                           ;        conditions and the following disclaimer.
    41                           ; 
    42                           ;     2. Redistributions in binary form must reproduce the above copyright notice, this 
      +                          list
    43                           ;        of conditions and the following disclaimer in the documentation and/or other
    44                           ;        materials provided with the distribution.
    45                           ; 
    46                           ;     3. Microchip's name may not be used to endorse or promote products derived from th
      +                          is
    47                           ;        software without specific prior written permission.
    48                           ; 
    49                           ; THIS SOFTWARE IS PROVIDED BY MICROCHIP "AS IS" AND ANY EXPRESS OR IMPLIED WARRANTIES,
    50                           ; INCLUDING, BUT NOT LIMITED TO, THE IMPLIED WARRANTIES OF MERCHANTABILITY AND FITNESS F
      +                          OR
    51                           ; PURPOSE ARE DISCLAIMED.  IN NO EVENT SHALL MICROCHIP BE LIABLE FOR ANY DIRECT, INDIREC
      +                          T,
    52                           ; INCIDENTAL, SPECIAL, EXEMPLARY, OR CONSEQUENTIAL DAMAGES (INCLUDING BUT NOT LIMITED TO
    53                           ; PROCUREMENT OF SUBSTITUTE GOODS OR SERVICES; LOSS OF USE, DATA OR PROFITS; OR BUSINESS
    54                           ; INTERRUPTION) HOWSOEVER CAUSED AND ON ANY THEORY OF LIABILITY, WHETHER IN CONTRACT, ST
      +                          RICT
    55                           ; LIABILITY, OR TORT (INCLUDING NEGLIGENCE OR OTHERWISE) ARISING IN ANY WAY OUT OF THE U
      +                          SE OF
    56                           ; THIS SOFTWARE, EVEN IF ADVISED OF THE POSSIBILITY OF SUCH DAMAGE.
    57                           ; 
    58                           ; 
    59                           ; Code-generator required, PIC16F877A Definitions
    60                           ; 
    61                           ; SFR Addresses
    62     0000                     	;# 
    63     0001                     	;# 
    64     0002                     	;# 
    65     0003                     	;# 
    66     0004                     	;# 
    67     0005                     	;# 
    68     0006                     	;# 
    69     0007                     	;# 
    70     0008                     	;# 
    71     0009                     	;# 
    72     000A                     	;# 
    73     000B                     	;# 
    74     000C                     	;# 
    75     000D                     	;# 
    76     000E                     	;# 
    77     000E                     	;# 
    78     000F                     	;# 
    79     0010                     	;# 
    80     0011                     	;# 
    81     0012                     	;# 
    82     0013                     	;# 
    83     0014                     	;# 
    84     0015                     	;# 
    85     0015                     	;# 
    86     0016                     	;# 
    87     0017                     	;# 
    88     0018                     	;# 
    89     0019                     	;# 
    90     001A                     	;# 
    91     001B                     	;# 
    92     001B                     	;# 
    93     001C                     	;# 
    94     001D                     	;# 
    95     001E                     	;# 
    96     001F                     	;# 
    97     0081                     	;# 
    98     0085                     	;# 
    99     0086                     	;# 
   100     0087                     	;# 
   101     0088                     	;# 
   102     0089                     	;# 
   103     008C                     	;# 
   104     008D                     	;# 
   105     008E                     	;# 
   106     0091                     	;# 
   107     0092                     	;# 
   108     0093                     	;# 
   109     0094                     	;# 
   110     0098                     	;# 
   111     0099                     	;# 
   112     009C                     	;# 
   113     009D                     	;# 
   114     009E                     	;# 
   115     009F                     	;# 
   116     010C                     	;# 
   117     010D                     	;# 
   118     010E                     	;# 
   119     010F                     	;# 
   120     018C                     	;# 
   121     018D                     	;# 
   122     0000                     	;# 
   123     0001                     	;# 
   124     0002                     	;# 
   125     0003                     	;# 
   126     0004                     	;# 
   127     0005                     	;# 
   128     0006                     	;# 
   129     0007                     	;# 
   130     0008                     	;# 
   131     0009                     	;# 
   132     000A                     	;# 
   133     000B                     	;# 
   134     000C                     	;# 
   135     000D                     	;# 
   136     000E                     	;# 
   137     000E                     	;# 
   138     000F                     	;# 
   139     0010                     	;# 
   140     0011                     	;# 
   141     0012                     	;# 
   142     0013                     	;# 
   143     0014                     	;# 
   144     0015                     	;# 
   145     0015                     	;# 
   146     0016                     	;# 
   147     0017                     	;# 
   148     0018                     	;# 
   149     0019                     	;# 
   150     001A                     	;# 
   151     001B                     	;# 
   152     001B                     	;# 
   153     001C                     	;# 
   154     001D                     	;# 
   155     001E                     	;# 
   156     001F                     	;# 
   157     0081                     	;# 
   158     0085                     	;# 
   159     0086                     	;# 
   160     0087                     	;# 
   161     0088                     	;# 
   162     0089                     	;# 
   163     008C                     	;# 
   164     008D                     	;# 
   165     008E                     	;# 
   166     0091                     	;# 
   167     0092                     	;# 
   168     0093                     	;# 
   169     0094                     	;# 
   170     0098                     	;# 
   171     0099                     	;# 
   172     009C                     	;# 
   173     009D                     	;# 
   174     009E                     	;# 
   175     009F                     	;# 
   176     010C                     	;# 
   177     010D                     	;# 
   178     010E                     	;# 
   179     010F                     	;# 
   180     018C                     	;# 
   181     018D                     	;# 
   182     0000                     	;# 
   183     0001                     	;# 
   184     0002                     	;# 
   185     0003                     	;# 
   186     0004                     	;# 
   187     0005                     	;# 
   188     0006                     	;# 
   189     0007                     	;# 
   190     0008                     	;# 
   191     0009                     	;# 
   192     000A                     	;# 
   193     000B                     	;# 
   194     000C                     	;# 
   195     000D                     	;# 
   196     000E                     	;# 
   197     000E                     	;# 
   198     000F                     	;# 
   199     0010                     	;# 
   200     0011                     	;# 
   201     0012                     	;# 
   202     0013                     	;# 
   203     0014                     	;# 
   204     0015                     	;# 
   205     0015                     	;# 
   206     0016                     	;# 
   207     0017                     	;# 
   208     0018                     	;# 
   209     0019                     	;# 
   210     001A                     	;# 
   211     001B                     	;# 
   212     001B                     	;# 
   213     001C                     	;# 
   214     001D                     	;# 
   215     001E                     	;# 
   216     001F                     	;# 
   217     0081                     	;# 
   218     0085                     	;# 
   219     0086                     	;# 
   220     0087                     	;# 
   221     0088                     	;# 
   222     0089                     	;# 
   223     008C                     	;# 
   224     008D                     	;# 
   225     008E                     	;# 
   226     0091                     	;# 
   227     0092                     	;# 
   228     0093                     	;# 
   229     0094                     	;# 
   230     0098                     	;# 
   231     0099                     	;# 
   232     009C                     	;# 
   233     009D                     	;# 
   234     009E                     	;# 
   235     009F                     	;# 
   236     010C                     	;# 
   237     010D                     	;# 
   238     010E                     	;# 
   239     010F                     	;# 
   240     018C                     	;# 
   241     018D                     	;# 
   242     0000                     	;# 
   243     0001                     	;# 
   244     0002                     	;# 
   245     0003                     	;# 
   246     0004                     	;# 
   247     0005                     	;# 
   248     0006                     	;# 
   249     0007                     	;# 
   250     0008                     	;# 
   251     0009                     	;# 
   252     000A                     	;# 
   253     000B                     	;# 
   254     000C                     	;# 
   255     000D                     	;# 
   256     000E                     	;# 
   257     000E                     	;# 
   258     000F                     	;# 
   259     0010                     	;# 
   260     0011                     	;# 
   261     0012                     	;# 
   262     0013                     	;# 
   263     0014                     	;# 
   264     0015                     	;# 
   265     0015                     	;# 
   266     0016                     	;# 
   267     0017                     	;# 
   268     0018                     	;# 
   269     0019                     	;# 
   270     001A                     	;# 
   271     001B                     	;# 
   272     001B                     	;# 
   273     001C                     	;# 
   274     001D                     	;# 
   275     001E                     	;# 
   276     001F                     	;# 
   277     0081                     	;# 
   278     0085                     	;# 
   279     0086                     	;# 
   280     0087                     	;# 
   281     0088                     	;# 
   282     0089                     	;# 
   283     008C                     	;# 
   284     008D                     	;# 
   285     008E                     	;# 
   286     0091                     	;# 
   287     0092                     	;# 
   288     0093                     	;# 
   289     0094                     	;# 
   290     0098                     	;# 
   291     0099                     	;# 
   292     009C                     	;# 
   293     009D                     	;# 
   294     009E                     	;# 
   295     009F                     	;# 
   296     010C                     	;# 
   297     010D                     	;# 
   298     010E                     	;# 
   299     010F                     	;# 
   300     018C                     	;# 
   301     018D                     	;# 
   302                           
   303                           	psect	idataCOMMON
   304     04A4                     __pidataCOMMON:
   305                           
   306                           ;initializer for read_matrix_keypad@once
   307     04A4  3401               	retlw	1
   308                           
   309                           	psect	idataBANK0
   310     04A5                     __pidataBANK0:
   311                           
   312                           ;initializer for main@F873
   313     04A5  3431               	retlw	49
   314     04A6  3430               	retlw	48
   315     04A7  3431               	retlw	49
   316     04A8  3430               	retlw	48
   317     04A9  3431               	retlw	49
   318     04AA  3430               	retlw	48
   319     04AB  3431               	retlw	49
   320     04AC  3430               	retlw	48
   321     04AD  3400               	retlw	0
   322     0008                     _PORTD	set	8
   323     0032                     _RB2	set	50
   324     0031                     _RB1	set	49
   325     0030                     _RB0	set	48
   326     0040                     _RD0	set	64
   327     0041                     _RD1	set	65
   328     0042                     _RD2	set	66
   329     0043                     _RD3	set	67
   330     0049                     _RE1	set	73
   331     004A                     _RE2	set	74
   332     0086                     _TRISB	set	134
   333     0088                     _TRISD	set	136
   334     040F                     _nRBPU	set	1039
   335     0449                     _TRISE1	set	1097
   336     044A                     _TRISE2	set	1098
   337                           
   338                           	psect	strings
   339     0003                     __pstrings:
   340     0003                     stringtab:
   341     0003                     __stringtab:
   342     0003                     stringcode:	
   343                           ;	String table - string pointers are 1 byte each
   344                           
   345     0003                     stringdir:
   346     0003  3000               	movlw	high stringdir
   347     0004  008A               	movwf	10
   348     0005  0804               	movf	4,w
   349     0006  0A84               	incf	4,f
   350     0007  0782               	addwf	2,f
   351     0008                     __stringbase:
   352     0008  3400               	retlw	0
   353     0009                     __end_of__stringtab:
   354     0009                     STR_2:
   355     0009  3420               	retlw	32	;' '
   356     000A  3420               	retlw	32	;' '
   357     000B  3420               	retlw	32	;' '
   358     000C  3420               	retlw	32	;' '
   359     000D  3420               	retlw	32	;' '
   360     000E  3420               	retlw	32	;' '
   361     000F  3420               	retlw	32	;' '
   362     0010  3420               	retlw	32	;' '
   363     0011  3420               	retlw	32	;' '
   364     0012  3420               	retlw	32	;' '
   365     0013  3420               	retlw	32	;' '
   366     0014  3420               	retlw	32	;' '
   367     0015  3420               	retlw	32	;' '
   368     0016  3420               	retlw	32	;' '
   369     0017  3420               	retlw	32	;' '
   370     0018  3420               	retlw	32	;' '
   371     0019  3400               	retlw	0
   372     001A                     STR_8:
   373     001A  3420               	retlw	32	;' '
   374     001B  3420               	retlw	32	;' '
   375     001C  3420               	retlw	32	;' '
   376     001D  3454               	retlw	84	;'T'
   377     001E  3448               	retlw	72	;'H'
   378     001F  3445               	retlw	69	;'E'
   379     0020  3420               	retlw	32	;' '
   380     0021  3442               	retlw	66	;'B'
   381     0022  344F               	retlw	79	;'O'
   382     0023  3441               	retlw	65	;'A'
   383     0024  3452               	retlw	82	;'R'
   384     0025  3444               	retlw	68	;'D'
   385     0026  3420               	retlw	32	;' '
   386     0027  3420               	retlw	32	;' '
   387     0028  3420               	retlw	32	;' '
   388     0029  3420               	retlw	32	;' '
   389     002A  3400               	retlw	0
   390     002B                     STR_7:
   391     002B  3420               	retlw	32	;' '
   392     002C  3420               	retlw	32	;' '
   393     002D  3450               	retlw	80	;'P'
   394     002E  344C               	retlw	76	;'L'
   395     002F  3445               	retlw	69	;'E'
   396     0030  3441               	retlw	65	;'A'
   397     0031  3453               	retlw	83	;'S'
   398     0032  3445               	retlw	69	;'E'
   399     0033  3420               	retlw	32	;' '
   400     0034  3452               	retlw	82	;'R'
   401     0035  3445               	retlw	69	;'E'
   402     0036  3453               	retlw	83	;'S'
   403     0037  3445               	retlw	69	;'E'
   404     0038  3454               	retlw	84	;'T'
   405     0039  3420               	retlw	32	;' '
   406     003A  3420               	retlw	32	;' '
   407     003B  3400               	retlw	0
   408     003C                     STR_5:
   409     003C  3420               	retlw	32	;' '
   410     003D  3457               	retlw	87	;'W'
   411     003E  3452               	retlw	82	;'R'
   412     003F  344F               	retlw	79	;'O'
   413     0040  344E               	retlw	78	;'N'
   414     0041  3447               	retlw	71	;'G'
   415     0042  3420               	retlw	32	;' '
   416     0043  3450               	retlw	80	;'P'
   417     0044  3441               	retlw	65	;'A'
   418     0045  3453               	retlw	83	;'S'
   419     0046  3453               	retlw	83	;'S'
   420     0047  3457               	retlw	87	;'W'
   421     0048  344F               	retlw	79	;'O'
   422     0049  3452               	retlw	82	;'R'
   423     004A  3444               	retlw	68	;'D'
   424     004B  3420               	retlw	32	;' '
   425     004C  3400               	retlw	0
   426     004D                     STR_1:
   427     004D  3420               	retlw	32	;' '
   428     004E  3445               	retlw	69	;'E'
   429     004F  344E               	retlw	78	;'N'
   430     0050  3454               	retlw	84	;'T'
   431     0051  3445               	retlw	69	;'E'
   432     0052  3452               	retlw	82	;'R'
   433     0053  3420               	retlw	32	;' '
   434     0054  3450               	retlw	80	;'P'
   435     0055  3441               	retlw	65	;'A'
   436     0056  3453               	retlw	83	;'S'
   437     0057  3453               	retlw	83	;'S'
   438     0058  3457               	retlw	87	;'W'
   439     0059  344F               	retlw	79	;'O'
   440     005A  3452               	retlw	82	;'R'
   441     005B  3444               	retlw	68	;'D'
   442     005C  3420               	retlw	32	;' '
   443     005D  3400               	retlw	0
   444     005E                     STR_4:
   445     005E  3443               	retlw	67	;'C'
   446     005F  3452               	retlw	82	;'R'
   447     0060  3441               	retlw	65	;'A'
   448     0061  3443               	retlw	67	;'C'
   449     0062  344B               	retlw	75	;'K'
   450     0063  3445               	retlw	69	;'E'
   451     0064  3444               	retlw	68	;'D'
   452     0065  3420               	retlw	32	;' '
   453     0066  3454               	retlw	84	;'T'
   454     0067  3448               	retlw	72	;'H'
   455     0068  3445               	retlw	69	;'E'
   456     0069  3420               	retlw	32	;' '
   457     006A  3443               	retlw	67	;'C'
   458     006B  344F               	retlw	79	;'O'
   459     006C  3444               	retlw	68	;'D'
   460     006D  3445               	retlw	69	;'E'
   461     006E  3400               	retlw	0
   462     006F                     STR_6:
   463     006F  3420               	retlw	32	;' '
   464     0070  3441               	retlw	65	;'A'
   465     0071  3454               	retlw	84	;'T'
   466     0072  3454               	retlw	84	;'T'
   467     0073  3445               	retlw	69	;'E'
   468     0074  344D               	retlw	77	;'M'
   469     0075  3450               	retlw	80	;'P'
   470     0076  3454               	retlw	84	;'T'
   471     0077  3453               	retlw	83	;'S'
   472     0078  3420               	retlw	32	;' '
   473     0079  344C               	retlw	76	;'L'
   474     007A  3445               	retlw	69	;'E'
   475     007B  3446               	retlw	70	;'F'
   476     007C  3454               	retlw	84	;'T'
   477     007D  3420               	retlw	32	;' '
   478     007E  3400               	retlw	0
   479     007F                     STR_3:
   480     007F  3445               	retlw	69	;'E'
   481     0080  3458               	retlw	88	;'X'
   482     0081  3443               	retlw	67	;'C'
   483     0082  3445               	retlw	69	;'E'
   484     0083  344C               	retlw	76	;'L'
   485     0084  344C               	retlw	76	;'L'
   486     0085  3445               	retlw	69	;'E'
   487     0086  344E               	retlw	78	;'N'
   488     0087  3454               	retlw	84	;'T'
   489     0088  342C               	retlw	44	;','
   490     0089  3420               	retlw	32	;' '
   491     008A  3459               	retlw	89	;'Y'
   492     008B  344F               	retlw	79	;'O'
   493     008C  3455               	retlw	85	;'U'
   494     008D  3420               	retlw	32	;' '
   495     008E  3400               	retlw	0
   496                           
   497                           	psect	cinit
   498     07E0                     start_initialization:	
   499                           ; #config settings
   500                           
   501     07E0                     __initialization:
   502                           
   503                           ; Initialize objects allocated to BANK0
   504     07E0  1383               	bcf	3,7	;select IRP bank0
   505     07E1  3046               	movlw	low (__pdataBANK0+9)
   506     07E2  00FD               	movwf	btemp+-1
   507     07E3  3004               	movlw	high __pidataBANK0
   508     07E4  00FE               	movwf	btemp
   509     07E5  30A5               	movlw	low __pidataBANK0
   510     07E6  00FF               	movwf	btemp+1
   511     07E7  303D               	movlw	low __pdataBANK0
   512     07E8  0084               	movwf	4
   513     07E9  120A  118A  24E9  120A  118A  	fcall	init_ram0
   514                           
   515                           ; Initialize objects allocated to COMMON
   516     07EE  120A  118A  24A4  120A  118A  	fcall	__pidataCOMMON	;fetch initializer
   517     07F3  00FB               	movwf	__pdataCOMMON& (0+127)
   518                           
   519                           ; Clear objects allocated to BANK0
   520     07F4  01C6               	clrf	__pbssBANK0& (0+127)
   521     07F5  01C7               	clrf	(__pbssBANK0+1)& (0+127)
   522     07F6  01C8               	clrf	(__pbssBANK0+2)& (0+127)
   523     07F7  01C9               	clrf	(__pbssBANK0+3)& (0+127)
   524     07F8  01CA               	clrf	(__pbssBANK0+4)& (0+127)
   525     07F9  01CB               	clrf	(__pbssBANK0+5)& (0+127)
   526     07FA  01CC               	clrf	(__pbssBANK0+6)& (0+127)
   527     07FB  01CD               	clrf	(__pbssBANK0+7)& (0+127)
   528     07FC                     end_of_initialization:	
   529                           ;End of C runtime variable initialization code
   530                           
   531     07FC                     __end_of__initialization:
   532     07FC  0183               	clrf	3
   533     07FD  120A  118A  2EB3   	ljmp	_main	;jump to C main() function
   534                           
   535                           	psect	dataCOMMON
   536     007B                     __pdataCOMMON:
   537     007B                     read_matrix_keypad@once:
   538     007B                     	ds	1
   539                           
   540                           	psect	bssBANK0
   541     0046                     __pbssBANK0:
   542     0046                     main@F875:
   543     0046                     	ds	8
   544                           
   545                           	psect	dataBANK0
   546     003D                     __pdataBANK0:
   547     003D                     main@F873:
   548     003D                     	ds	9
   549                           
   550                           	psect	inittext
   551     04E5                     init_fetch0:	
   552                           ;	Called with low address in FSR and high address in W
   553                           
   554     04E5  087E               	movf	btemp,w
   555     04E6  008A               	movwf	10
   556     04E7  087F               	movf	btemp+1,w
   557     04E8  0082               	movwf	2
   558     04E9                     init_ram0:	
   559                           ;Called with:
   560                           ;	high address of idata address in btemp 
   561                           ;	low address of idata address in btemp+1 
   562                           ;	low address of data in FSR
   563                           ;	high address + 1 of data in btemp-1
   564                           
   565     04E9  120A  118A  24E5  120A  118A  	fcall	init_fetch0
   566     04EE  0080               	movwf	0
   567     04EF  0A84               	incf	4,f
   568     04F0  0804               	movf	4,w
   569     04F1  067D               	xorwf	btemp+-1,w
   570     04F2  1903               	btfsc	3,2
   571     04F3  3400               	retlw	0
   572     04F4  0AFF               	incf	btemp+1,f
   573     04F5  1903               	btfsc	3,2
   574     04F6  0AFE               	incf	btemp,f
   575     04F7  2CE9               	goto	init_ram0
   576                           
   577                           	psect	cstackCOMMON
   578     0070                     __pcstackCOMMON:
   579     0070                     ?_clcd_write:
   580     0070                     ?_init_display_controller:	
   581                           ; 1 bytes @ 0x0
   582                           
   583     0070                     ?_init_clcd:	
   584                           ; 1 bytes @ 0x0
   585                           
   586     0070                     ?_init_matrix_keypad:	
   587                           ; 1 bytes @ 0x0
   588                           
   589     0070                     ??_init_matrix_keypad:	
   590                           ; 1 bytes @ 0x0
   591                           
   592     0070                     ?_scan_keypad:	
   593                           ; 1 bytes @ 0x0
   594                           
   595     0070                     ??_scan_keypad:	
   596                           ; 1 bytes @ 0x0
   597                           
   598     0070                     ?_read_matrix_keypad:	
   599                           ; 1 bytes @ 0x0
   600                           
   601     0070                     ?_init_config:	
   602                           ; 1 bytes @ 0x0
   603                           
   604     0070                     ?_main:	
   605                           ; 1 bytes @ 0x0
   606                           
   607     0070                     ?_compare:	
   608                           ; 1 bytes @ 0x0
   609                           
   610     0070                     clcd_write@mode:	
   611                           ; 2 bytes @ 0x0
   612                           
   613     0070                     compare@str2:	
   614                           ; 1 bytes @ 0x0
   615                           
   616     0070                     scan_keypad@i:	
   617                           ; 1 bytes @ 0x0
   618                           
   619                           
   620                           ; 2 bytes @ 0x0
   621     0070                     	ds	1
   622     0071                     ??_clcd_write:
   623                           
   624                           ; 1 bytes @ 0x1
   625     0071                     	ds	1
   626     0072                     ??_read_matrix_keypad:
   627     0072                     ??_compare:	
   628                           ; 1 bytes @ 0x2
   629                           
   630     0072                     read_matrix_keypad@mode:	
   631                           ; 1 bytes @ 0x2
   632                           
   633                           
   634                           ; 1 bytes @ 0x2
   635     0072                     	ds	1
   636     0073                     clcd_write@byte:
   637     0073                     read_matrix_keypad@key:	
   638                           ; 1 bytes @ 0x3
   639                           
   640     0073                     compare@flag:	
   641                           ; 1 bytes @ 0x3
   642                           
   643                           
   644                           ; 2 bytes @ 0x3
   645     0073                     	ds	1
   646     0074                     ??_init_display_controller:
   647     0074                     ?_clcd_putch:	
   648                           ; 1 bytes @ 0x4
   649                           
   650     0074                     ?_clcd_print:	
   651                           ; 1 bytes @ 0x4
   652                           
   653     0074                     clcd_putch@addr:	
   654                           ; 1 bytes @ 0x4
   655                           
   656     0074                     clcd_print@addr:	
   657                           ; 1 bytes @ 0x4
   658                           
   659                           
   660                           ; 1 bytes @ 0x4
   661     0074                     	ds	1
   662     0075                     ??_clcd_putch:
   663     0075                     ??_clcd_print:	
   664                           ; 1 bytes @ 0x5
   665                           
   666     0075                     clcd_putch@data:	
   667                           ; 1 bytes @ 0x5
   668                           
   669     0075                     compare@str1:	
   670                           ; 1 bytes @ 0x5
   671                           
   672                           
   673                           ; 1 bytes @ 0x5
   674     0075                     	ds	1
   675     0076                     ??_init_clcd:
   676     0076                     ??_init_config:	
   677                           ; 1 bytes @ 0x6
   678                           
   679     0076                     clcd_print@str:	
   680                           ; 1 bytes @ 0x6
   681                           
   682                           
   683                           ; 1 bytes @ 0x6
   684     0076                     	ds	1
   685     0077                     ??_main:
   686                           
   687                           ; 1 bytes @ 0x7
   688     0077                     	ds	4
   689                           
   690                           	psect	cstackBANK0
   691     0020                     __pcstackBANK0:
   692     0020                     main@original_password:
   693                           
   694                           ; 9 bytes @ 0x0
   695     0020                     	ds	9
   696     0029                     main@entered_password:
   697                           
   698                           ; 8 bytes @ 0x9
   699     0029                     	ds	8
   700     0031                     main@match:
   701                           
   702                           ; 2 bytes @ 0x11
   703     0031                     	ds	2
   704     0033                     main@wait:
   705                           
   706                           ; 2 bytes @ 0x13
   707     0033                     	ds	2
   708     0035                     main@delay:
   709                           
   710                           ; 2 bytes @ 0x15
   711     0035                     	ds	2
   712     0037                     main@attempt:
   713                           
   714                           ; 2 bytes @ 0x17
   715     0037                     	ds	2
   716     0039                     main@key:
   717                           
   718                           ; 1 bytes @ 0x19
   719     0039                     	ds	1
   720     003A                     main@cursor_flag:
   721                           
   722                           ; 2 bytes @ 0x1A
   723     003A                     	ds	2
   724     003C                     main@i:
   725                           
   726                           ; 1 bytes @ 0x1C
   727     003C                     	ds	1
   728                           
   729                           	psect	maintext
   730     06B3                     __pmaintext:	
   731 ;;
   732 ;;Main: autosize = 0, tempsize = 4, incstack = 0, save=0
   733 ;;
   734 ;; *************** function _main *****************
   735 ;; Defined at:
   736 ;;		line 50 in file "main.c"
   737 ;; Parameters:    Size  Location     Type
   738 ;;		None
   739 ;; Auto vars:     Size  Location     Type
   740 ;;  original_pas    9    0[BANK0 ] unsigned char [9]
   741 ;;  entered_pass    8    9[BANK0 ] unsigned char [8]
   742 ;;  cursor_flag     2   26[BANK0 ] unsigned int 
   743 ;;  attempt         2   23[BANK0 ] unsigned int 
   744 ;;  delay           2   21[BANK0 ] unsigned int 
   745 ;;  wait            2   19[BANK0 ] unsigned int 
   746 ;;  match           2   17[BANK0 ] unsigned int 
   747 ;;  i               1   28[BANK0 ] unsigned char 
   748 ;;  key             1   25[BANK0 ] unsigned char 
   749 ;; Return value:  Size  Location     Type
   750 ;;                  1    wreg      void 
   751 ;; Registers used:
   752 ;;		wreg, fsr0l, fsr0h, status,2, status,0, btemp+1, pclath, cstack
   753 ;; Tracked objects:
   754 ;;		On entry : B00/0
   755 ;;		On exit  : 0/0
   756 ;;		Unchanged: 0/0
   757 ;; Data sizes:     COMMON   BANK0   BANK1   BANK3   BANK2
   758 ;;      Params:         0       0       0       0       0
   759 ;;      Locals:         0      29       0       0       0
   760 ;;      Temps:          4       0       0       0       0
   761 ;;      Totals:         4      29       0       0       0
   762 ;;Total ram usage:       33 bytes
   763 ;; Hardware stack levels required when called: 4
   764 ;; This function calls:
   765 ;;		_clcd_print
   766 ;;		_clcd_putch
   767 ;;		_compare
   768 ;;		_init_config
   769 ;;		_read_matrix_keypad
   770 ;; This function is called by:
   771 ;;		Startup code after reset
   772 ;; This function uses a non-reentrant model
   773 ;;
   774                           
   775     06B3                     _main:	
   776                           ;psect for function _main
   777                           
   778     06B3                     l1231:	
   779                           ;incstack = 0
   780                           ; Regs used in _main: [wreg-fsr0h+status,2+status,0+btemp+1+pclath+cstack]
   781                           
   782                           
   783                           ;main.c: 52:         if (attempt != 0);main.c: 54:             if (i < 8)
   784     06B3  1283               	bcf	3,5	;RP0=0, select bank0
   785     06B4  1303               	bcf	3,6	;RP1=0, select bank0
   786     06B5  01BC               	clrf	main@i
   787     06B6                     l1233:
   788                           
   789                           ;main.c: 55:             {
   790     06B6  3005               	movlw	5
   791     06B7  00B7               	movwf	main@attempt
   792     06B8  3000               	movlw	0
   793     06B9  00B8               	movwf	main@attempt+1
   794     06BA                     l1235:
   795                           
   796                           ;main.c: 56:                 clcd_print(" ENTER PASSWORD ", (0x80 + 0));;main.c: 57: 
   797     06BA  01BA               	clrf	main@cursor_flag
   798     06BB  01BB               	clrf	main@cursor_flag+1
   799     06BC                     l1237:
   800                           
   801                           ;main.c: 59:                 if (cursor_flag == 0)
   802     06BC  01B3               	clrf	main@wait
   803     06BD  01B4               	clrf	main@wait+1
   804     06BE                     l1239:
   805                           
   806                           ;main.c: 60:                 {
   807     06BE  01B5               	clrf	main@delay
   808     06BF  01B6               	clrf	main@delay+1
   809     06C0                     l1241:
   810                           
   811                           ;main.c: 62:                 }
   812     06C0  3020               	movlw	main@original_password& (0+255)
   813     06C1  0084               	movwf	4
   814     06C2  303D               	movlw	low main@F873
   815     06C3  00F7               	movwf	??_main
   816     06C4  0804               	movf	4,w
   817     06C5  00F8               	movwf	??_main+1
   818     06C6  3009               	movlw	9
   819     06C7  00F9               	movwf	??_main+2
   820     06C8                     u660:
   821     06C8  0877               	movf	??_main,w
   822     06C9  0084               	movwf	4
   823     06CA  1383               	bcf	3,7	;select IRP bank0
   824     06CB  0800               	movf	0,w
   825     06CC  00FA               	movwf	??_main+3
   826     06CD  0AF7               	incf	??_main,f
   827     06CE  0878               	movf	??_main+1,w
   828     06CF  0084               	movwf	4
   829     06D0  087A               	movf	??_main+3,w
   830     06D1  0080               	movwf	0
   831     06D2  0AF8               	incf	??_main+1,f
   832     06D3  0BF9               	decfsz	??_main+2,f
   833     06D4  2EC8               	goto	u660
   834     06D5                     l1243:
   835                           
   836                           ;main.c: 63:                 else if (cursor_flag == 1)
   837     06D5  3029               	movlw	main@entered_password& (0+255)
   838     06D6  0084               	movwf	4
   839     06D7  3008               	movlw	8
   840     06D8  00FF               	movwf	btemp+1
   841     06D9                     u670:
   842     06D9  0180               	clrf	0
   843     06DA  0A84               	incf	4,f
   844     06DB  0BFF               	decfsz	btemp+1,f
   845     06DC  2ED9               	goto	u670
   846     06DD                     l1245:
   847                           
   848                           ;main.c: 65:                     clcd_print("                ", (0xC0 + i));
   849     06DD  120A  118A  24B9  120A  118A  	fcall	_init_config
   850     06E2                     l1247:
   851                           
   852                           ;main.c: 68:                 if (delay++ == 3);main.c: 69:                 {
   853     06E2  1283               	bcf	3,5	;RP0=0, select bank0
   854     06E3  1303               	bcf	3,6	;RP1=0, select bank0
   855     06E4  0837               	movf	main@attempt,w
   856     06E5  0438               	iorwf	main@attempt+1,w
   857     06E6  1903               	btfsc	3,2
   858     06E7  2EE9               	goto	u681
   859     06E8  2EEA               	goto	u680
   860     06E9                     u681:
   861     06E9  2FCB               	goto	l1303
   862     06EA                     u680:
   863     06EA                     l1249:
   864                           
   865                           ;main.c: 70:                     delay = 0;;main.c: 71:                     cursor_flag 
      +                          = !cursor_flag;
   866     06EA  3008               	movlw	8
   867     06EB  023C               	subwf	main@i,w
   868     06EC  1803               	skipnc
   869     06ED  2EEF               	goto	u691
   870     06EE  2EF0               	goto	u690
   871     06EF                     u691:
   872     06EF  2F72               	goto	l1285
   873     06F0                     u690:
   874     06F0                     l1251:
   875                           
   876                           ;main.c: 72:                 };main.c: 73: 
   877     06F0  3080               	movlw	128
   878     06F1  00F4               	movwf	clcd_print@addr
   879     06F2  3045               	movlw	(low ((STR_1-__stringbase)| (0+32768)))& (0+255)
   880     06F3  120A  118A  251B  120A  118A  	fcall	_clcd_print
   881     06F8                     l1253:
   882                           
   883                           ;main.c: 76: 
   884     06F8  1283               	bcf	3,5	;RP0=0, select bank0
   885     06F9  1303               	bcf	3,6	;RP1=0, select bank0
   886     06FA  083A               	movf	main@cursor_flag,w
   887     06FB  043B               	iorwf	main@cursor_flag+1,w
   888     06FC  1D03               	btfss	3,2
   889     06FD  2EFF               	goto	u701
   890     06FE  2F00               	goto	u700
   891     06FF                     u701:
   892     06FF  2F0A               	goto	l1257
   893     0700                     u700:
   894     0700                     l1255:
   895                           
   896                           ;main.c: 77:                 if (key == 1);main.c: 78:                 {
   897     0700  083C               	movf	main@i,w
   898     0701  3EC0               	addlw	192
   899     0702  00F4               	movwf	clcd_putch@addr
   900     0703  305F               	movlw	95
   901     0704  120A  118A  24D4  120A  118A  	fcall	_clcd_putch
   902                           
   903                           ;main.c: 79:                     entered_password[i] = '0';
   904     0709  2F19               	goto	l1261
   905     070A                     l1257:
   906     070A  033A               	decf	main@cursor_flag,w
   907     070B  043B               	iorwf	main@cursor_flag+1,w
   908     070C  1D03               	btfss	3,2
   909     070D  2F0F               	goto	u711
   910     070E  2F10               	goto	u710
   911     070F                     u711:
   912     070F  2F19               	goto	l1261
   913     0710                     u710:
   914     0710                     l1259:
   915                           
   916                           ;main.c: 81:                     i++;;main.c: 82:                 }
   917     0710  083C               	movf	main@i,w
   918     0711  3EC0               	addlw	192
   919     0712  00F4               	movwf	clcd_print@addr
   920     0713  3001               	movlw	(low ((STR_2-__stringbase)| (0+32768)))& (0+255)
   921     0714  120A  118A  251B  120A  118A  	fcall	_clcd_print
   922     0719                     l1261:
   923                           
   924                           ;main.c: 85:                     entered_password[i] = '1';
   925     0719  3001               	movlw	1
   926     071A  1283               	bcf	3,5	;RP0=0, select bank0
   927     071B  1303               	bcf	3,6	;RP1=0, select bank0
   928     071C  07B5               	addwf	main@delay,f
   929     071D  1803               	skipnc
   930     071E  0AB6               	incf	main@delay+1,f
   931     071F  3000               	movlw	0
   932     0720  07B6               	addwf	main@delay+1,f
   933     0721  3004               	movlw	4
   934     0722  0635               	xorwf	main@delay,w
   935     0723  0436               	iorwf	main@delay+1,w
   936     0724  1D03               	btfss	3,2
   937     0725  2F27               	goto	u721
   938     0726  2F28               	goto	u720
   939     0727                     u721:
   940     0727  2F38               	goto	l1267
   941     0728                     u720:
   942     0728                     l1263:
   943                           
   944                           ;main.c: 86:                     clcd_putch('*', (0xC0 + i));;main.c: 87:               
      +                                i++;
   945     0728  01B5               	clrf	main@delay
   946     0729  01B6               	clrf	main@delay+1
   947     072A                     l1265:
   948                           
   949                           ;main.c: 88:                 }
   950     072A  083A               	movf	main@cursor_flag,w
   951     072B  043B               	iorwf	main@cursor_flag+1,w
   952     072C  1903               	btfsc	3,2
   953     072D  2F2F               	goto	u731
   954     072E  2F31               	goto	u730
   955     072F                     u731:
   956     072F  3001               	movlw	1
   957     0730  2F32               	goto	u740
   958     0731                     u730:
   959     0731  3000               	movlw	0
   960     0732                     u740:
   961     0732  00F7               	movwf	??_main
   962     0733  01F8               	clrf	??_main+1
   963     0734  0877               	movf	??_main,w
   964     0735  00BA               	movwf	main@cursor_flag
   965     0736  0878               	movf	??_main+1,w
   966     0737  00BB               	movwf	main@cursor_flag+1
   967     0738                     l1267:
   968                           
   969                           ;main.c: 92:                 match = compare(original_password, entered_password);
   970     0738  3001               	movlw	1
   971     0739  120A  118A  24F8  120A  118A  	fcall	_read_matrix_keypad
   972     073E  1283               	bcf	3,5	;RP0=0, select bank0
   973     073F  1303               	bcf	3,6	;RP1=0, select bank0
   974     0740  00B9               	movwf	main@key
   975     0741                     l1269:
   976                           
   977                           ;main.c: 94:                 if (match == 1)
   978     0741  0339               	decf	main@key,w
   979     0742  1D03               	btfss	3,2
   980     0743  2F45               	goto	u751
   981     0744  2F46               	goto	u750
   982     0745                     u751:
   983     0745  2F5C               	goto	l1277
   984     0746                     u750:
   985     0746                     l1271:
   986                           
   987                           ;main.c: 95:                 {;main.c: 96:                     clcd_print("EXCELLENT, YO
      +                          U ", (0x80 + 0));
   988     0746  083C               	movf	main@i,w
   989     0747  3E29               	addlw	(low (main@entered_password| 0))& (0+255)
   990     0748  0084               	movwf	4
   991     0749  3030               	movlw	48
   992     074A  1383               	bcf	3,7	;select IRP bank0
   993     074B  0080               	movwf	0
   994     074C                     l1273:
   995                           
   996                           ;main.c: 97:                     clcd_print("CRACKED THE CODE", (0xC0 + 0));
   997     074C  083C               	movf	main@i,w
   998     074D  3EC0               	addlw	192
   999     074E  00F4               	movwf	clcd_putch@addr
  1000     074F  302A               	movlw	42
  1001     0750  120A  118A  24D4  120A  118A  	fcall	_clcd_putch
  1002     0755                     l1275:
  1003                           
  1004                           ;main.c: 98:                 }
  1005     0755  3001               	movlw	1
  1006     0756  00F7               	movwf	??_main
  1007     0757  0877               	movf	??_main,w
  1008     0758  1283               	bcf	3,5	;RP0=0, select bank0
  1009     0759  1303               	bcf	3,6	;RP1=0, select bank0
  1010     075A  07BC               	addwf	main@i,f
  1011                           
  1012                           ;main.c: 99:                 else
  1013     075B  2EE2               	goto	l1247
  1014     075C                     l1277:
  1015     075C  3002               	movlw	2
  1016     075D  0639               	xorwf	main@key,w
  1017     075E  1D03               	btfss	3,2
  1018     075F  2F61               	goto	u761
  1019     0760  2F62               	goto	u760
  1020     0761                     u761:
  1021     0761  2FDC               	goto	l146
  1022     0762                     u760:
  1023     0762                     l1279:
  1024                           
  1025                           ;main.c: 101:                     while (wait++ != 10);main.c: 102:                     
      +                          {
  1026     0762  083C               	movf	main@i,w
  1027     0763  3E29               	addlw	(low (main@entered_password| 0))& (0+255)
  1028     0764  0084               	movwf	4
  1029     0765  3031               	movlw	49
  1030     0766  1383               	bcf	3,7	;select IRP bank0
  1031     0767  0080               	movwf	0
  1032     0768                     l1281:
  1033                           
  1034                           ;main.c: 103:                         clcd_print(" WRONG PASSWORD ", (0x80 + 0));
  1035     0768  083C               	movf	main@i,w
  1036     0769  3EC0               	addlw	192
  1037     076A  00F4               	movwf	clcd_putch@addr
  1038     076B  302A               	movlw	42
  1039     076C  120A  118A  24D4  120A  118A  	fcall	_clcd_putch
  1040     0771  2F55               	goto	l1275
  1041     0772                     l1285:
  1042                           
  1043                           ;main.c: 108: ;main.c: 109:                     wait = 0;
  1044     0772  3029               	movlw	(low (main@entered_password| 0))& (0+255)
  1045     0773  00F0               	movwf	compare@str2
  1046     0774  3020               	movlw	(low (main@original_password| 0))& (0+255)
  1047     0775  120A  118A  2543  120A  118A  	fcall	_compare
  1048     077A  0871               	movf	?_compare+1,w
  1049     077B  1283               	bcf	3,5	;RP0=0, select bank0
  1050     077C  1303               	bcf	3,6	;RP1=0, select bank0
  1051     077D  00B2               	movwf	main@match+1
  1052     077E  0870               	movf	?_compare,w
  1053     077F  00B1               	movwf	main@match
  1054     0780                     l1287:
  1055                           
  1056                           ;main.c: 111: 
  1057     0780  0331               	decf	main@match,w
  1058     0781  0432               	iorwf	main@match+1,w
  1059     0782  1D03               	btfss	3,2
  1060     0783  2F85               	goto	u771
  1061     0784  2F86               	goto	u770
  1062     0785                     u771:
  1063     0785  2FB2               	goto	l1297
  1064     0786                     u770:
  1065     0786                     l1289:
  1066                           
  1067                           ;main.c: 112: ;main.c: 113:                     attempt--;
  1068     0786  3080               	movlw	128
  1069     0787  00F4               	movwf	clcd_print@addr
  1070     0788  3077               	movlw	(low ((STR_3-__stringbase)| (0+32768)))& (0+255)
  1071     0789  120A  118A  251B  120A  118A  	fcall	_clcd_print
  1072                           
  1073                           ;main.c: 114:                 }
  1074     078E  30C0               	movlw	192
  1075     078F  00F4               	movwf	clcd_print@addr
  1076     0790  3056               	movlw	(low ((STR_4-__stringbase)| (0+32768)))& (0+255)
  1077     0791  120A  118A  251B  120A  118A  	fcall	_clcd_print
  1078                           
  1079                           ;main.c: 115:             }
  1080     0796  2EE2               	goto	l1247
  1081     0797                     l1291:
  1082                           
  1083                           ;main.c: 119:             clcd_print("  PLEASE RESET  ", (0x80 + 0));;main.c: 120:      
      +                                 clcd_print("   THE BOARD    ", (0xC0 + 0));
  1084     0797  3080               	movlw	128
  1085     0798  00F4               	movwf	clcd_print@addr
  1086     0799  3034               	movlw	(low ((STR_5-__stringbase)| (0+32768)))& (0+255)
  1087     079A  120A  118A  251B  120A  118A  	fcall	_clcd_print
  1088     079F                     l1293:
  1089                           
  1090                           ;main.c: 121:         }
  1091     079F  30C0               	movlw	192
  1092     07A0  00F4               	movwf	clcd_putch@addr
  1093     07A1  1283               	bcf	3,5	;RP0=0, select bank0
  1094     07A2  1303               	bcf	3,6	;RP1=0, select bank0
  1095     07A3  0837               	movf	main@attempt,w
  1096     07A4  3E2F               	addlw	47
  1097     07A5  120A  118A  24D4  120A  118A  	fcall	_clcd_putch
  1098     07AA                     l1295:
  1099                           
  1100                           ;main.c: 122:     }
  1101     07AA  30C1               	movlw	193
  1102     07AB  00F4               	movwf	clcd_print@addr
  1103     07AC  3067               	movlw	(low ((STR_6-__stringbase)| (0+32768)))& (0+255)
  1104     07AD  120A  118A  251B  120A  118A  	fcall	_clcd_print
  1105     07B2                     l1297:
  1106                           
  1107                           ;main.c: 118:         {
  1108     07B2  3001               	movlw	1
  1109     07B3  1283               	bcf	3,5	;RP0=0, select bank0
  1110     07B4  1303               	bcf	3,6	;RP1=0, select bank0
  1111     07B5  07B3               	addwf	main@wait,f
  1112     07B6  1803               	skipnc
  1113     07B7  0AB4               	incf	main@wait+1,f
  1114     07B8  3000               	movlw	0
  1115     07B9  07B4               	addwf	main@wait+1,f
  1116     07BA  300B               	movlw	11
  1117     07BB  0633               	xorwf	main@wait,w
  1118     07BC  0434               	iorwf	main@wait+1,w
  1119     07BD  1D03               	btfss	3,2
  1120     07BE  2FC0               	goto	u781
  1121     07BF  2FC1               	goto	u780
  1122     07C0                     u781:
  1123     07C0  2F97               	goto	l1291
  1124     07C1                     u780:
  1125     07C1                     l1299:
  1126     07C1  01B3               	clrf	main@wait
  1127     07C2  01B4               	clrf	main@wait+1
  1128     07C3  01BC               	clrf	main@i
  1129     07C4                     l1301:
  1130     07C4  3001               	movlw	1
  1131     07C5  02B7               	subwf	main@attempt,f
  1132     07C6  3000               	movlw	0
  1133     07C7  1C03               	skipc
  1134     07C8  03B8               	decf	main@attempt+1,f
  1135     07C9  02B8               	subwf	main@attempt+1,f
  1136     07CA  2EE2               	goto	l1247
  1137     07CB                     l1303:
  1138     07CB  3080               	movlw	128
  1139     07CC  00F4               	movwf	clcd_print@addr
  1140     07CD  3023               	movlw	(low ((STR_7-__stringbase)| (0+32768)))& (0+255)
  1141     07CE  120A  118A  251B  120A  118A  	fcall	_clcd_print
  1142     07D3  30C0               	movlw	192
  1143     07D4  00F4               	movwf	clcd_print@addr
  1144     07D5  3012               	movlw	(low ((STR_8-__stringbase)| (0+32768)))& (0+255)
  1145     07D6  120A  118A  251B  120A  118A  	fcall	_clcd_print
  1146     07DB  2EE2               	goto	l1247
  1147     07DC                     l146:
  1148     07DC  2EE2               	goto	l1247
  1149     07DD  120A  118A  2800   	ljmp	start
  1150     07E0                     __end_of_main:
  1151                           
  1152                           	psect	text1
  1153     04F8                     __ptext1:	
  1154 ;; *************** function _read_matrix_keypad *****************
  1155 ;; Defined at:
  1156 ;;		line 111 in file "matrix_keypad.c"
  1157 ;; Parameters:    Size  Location     Type
  1158 ;;  mode            1    wreg     unsigned char 
  1159 ;; Auto vars:     Size  Location     Type
  1160 ;;  mode            1    2[COMMON] unsigned char 
  1161 ;;  key             1    3[COMMON] unsigned char 
  1162 ;; Return value:  Size  Location     Type
  1163 ;;                  1    wreg      unsigned char 
  1164 ;; Registers used:
  1165 ;;		wreg, status,2, status,0, pclath, cstack
  1166 ;; Tracked objects:
  1167 ;;		On entry : 0/0
  1168 ;;		On exit  : 0/0
  1169 ;;		Unchanged: 0/0
  1170 ;; Data sizes:     COMMON   BANK0   BANK1   BANK3   BANK2
  1171 ;;      Params:         0       0       0       0       0
  1172 ;;      Locals:         2       0       0       0       0
  1173 ;;      Temps:          0       0       0       0       0
  1174 ;;      Totals:         2       0       0       0       0
  1175 ;;Total ram usage:        2 bytes
  1176 ;; Hardware stack levels used: 1
  1177 ;; Hardware stack levels required when called: 1
  1178 ;; This function calls:
  1179 ;;		_scan_keypad
  1180 ;; This function is called by:
  1181 ;;		_main
  1182 ;; This function uses a non-reentrant model
  1183 ;;
  1184                           
  1185     04F8                     _read_matrix_keypad:	
  1186                           ;psect for function _read_matrix_keypad
  1187                           
  1188                           
  1189                           ;incstack = 0
  1190                           ; Regs used in _read_matrix_keypad: [wreg+status,2+status,0+pclath+cstack]
  1191                           ;read_matrix_keypad@mode stored from wreg
  1192     04F8  00F2               	movwf	read_matrix_keypad@mode
  1193     04F9                     l1183:
  1194                           
  1195                           ;matrix_keypad.c: 111: unsigned char read_matrix_keypad(unsigned char mode);matrix_keypa
      +                          d.c: 112: {;matrix_keypad.c: 113:     static unsigned char once = 1;;matrix_keypad.c: 11
      +                          4:     unsigned char key;;matrix_keypad.c: 116:     key = scan_keypad();
  1196     04F9  120A  118A  2607  120A  118A  	fcall	_scan_keypad
  1197     04FE  00F3               	movwf	read_matrix_keypad@key
  1198     04FF                     l1185:
  1199                           
  1200                           ;matrix_keypad.c: 118:     if (mode == 0)
  1201     04FF  0872               	movf	read_matrix_keypad@mode,w
  1202     0500  1D03               	btfss	3,2
  1203     0501  2D03               	goto	u601
  1204     0502  2D04               	goto	u600
  1205     0503                     u601:
  1206     0503  2D06               	goto	l1193
  1207     0504                     u600:
  1208     0504                     l1187:
  1209                           
  1210                           ;matrix_keypad.c: 119:     {;matrix_keypad.c: 120:         return key;
  1211     0504  0873               	movf	read_matrix_keypad@key,w
  1212     0505  2D1A               	goto	l96
  1213     0506                     l1193:
  1214                           
  1215                           ;matrix_keypad.c: 123:     {;matrix_keypad.c: 124:         if ((key != 0xFF) && once)
  1216     0506  0A73               	incf	read_matrix_keypad@key,w
  1217     0507  1903               	btfsc	3,2
  1218     0508  2D0A               	goto	u611
  1219     0509  2D0B               	goto	u610
  1220     050A                     u611:
  1221     050A  2D12               	goto	l1205
  1222     050B                     u610:
  1223     050B                     l1195:
  1224     050B  087B               	movf	read_matrix_keypad@once,w
  1225     050C  1903               	btfsc	3,2
  1226     050D  2D0F               	goto	u621
  1227     050E  2D10               	goto	u620
  1228     050F                     u621:
  1229     050F  2D12               	goto	l1205
  1230     0510                     u620:
  1231     0510                     l1197:
  1232                           
  1233                           ;matrix_keypad.c: 125:         {;matrix_keypad.c: 126:             once = 0;
  1234     0510  01FB               	clrf	read_matrix_keypad@once
  1235     0511  2D04               	goto	l1187
  1236     0512                     l1205:
  1237     0512  0A73               	incf	read_matrix_keypad@key,w
  1238     0513  1D03               	btfss	3,2
  1239     0514  2D16               	goto	u631
  1240     0515  2D17               	goto	u630
  1241     0516                     u631:
  1242     0516  2D19               	goto	l1209
  1243     0517                     u630:
  1244     0517                     l1207:
  1245                           
  1246                           ;matrix_keypad.c: 131:         {;matrix_keypad.c: 132:             once = 1;
  1247     0517  01FB               	clrf	read_matrix_keypad@once
  1248     0518  0AFB               	incf	read_matrix_keypad@once,f
  1249     0519                     l1209:
  1250                           
  1251                           ;matrix_keypad.c: 136:     return 0xFF;
  1252     0519  30FF               	movlw	255
  1253     051A                     l96:
  1254     051A  0008               	return
  1255     051B                     __end_of_read_matrix_keypad:
  1256                           
  1257                           	psect	text2
  1258     0607                     __ptext2:	
  1259 ;; *************** function _scan_keypad *****************
  1260 ;; Defined at:
  1261 ;;		line 24 in file "matrix_keypad.c"
  1262 ;; Parameters:    Size  Location     Type
  1263 ;;		None
  1264 ;; Auto vars:     Size  Location     Type
  1265 ;;  i               2    0[COMMON] int 
  1266 ;; Return value:  Size  Location     Type
  1267 ;;                  1    wreg      unsigned char 
  1268 ;; Registers used:
  1269 ;;		wreg, status,2, status,0
  1270 ;; Tracked objects:
  1271 ;;		On entry : 0/0
  1272 ;;		On exit  : 0/0
  1273 ;;		Unchanged: 0/0
  1274 ;; Data sizes:     COMMON   BANK0   BANK1   BANK3   BANK2
  1275 ;;      Params:         0       0       0       0       0
  1276 ;;      Locals:         2       0       0       0       0
  1277 ;;      Temps:          0       0       0       0       0
  1278 ;;      Totals:         2       0       0       0       0
  1279 ;;Total ram usage:        2 bytes
  1280 ;; Hardware stack levels used: 1
  1281 ;; This function calls:
  1282 ;;		Nothing
  1283 ;; This function is called by:
  1284 ;;		_read_matrix_keypad
  1285 ;; This function uses a non-reentrant model
  1286 ;;
  1287                           
  1288     0607                     _scan_keypad:	
  1289                           ;psect for function _scan_keypad
  1290                           
  1291     0607                     l1087:	
  1292                           ;incstack = 0
  1293                           ; Regs used in _scan_keypad: [wreg+status,2+status,0]
  1294                           
  1295                           
  1296                           ;matrix_keypad.c: 26:     int i;;matrix_keypad.c: 28:     RD3 = 0;
  1297     0607  1283               	bcf	3,5	;RP0=0, select bank0
  1298     0608  1303               	bcf	3,6	;RP1=0, select bank0
  1299     0609  1188               	bcf	8,3	;volatile
  1300                           
  1301                           ;matrix_keypad.c: 29:     RD2 = 1;
  1302     060A  1508               	bsf	8,2	;volatile
  1303                           
  1304                           ;matrix_keypad.c: 30:     RD1 = 1;
  1305     060B  1488               	bsf	8,1	;volatile
  1306                           
  1307                           ;matrix_keypad.c: 31:     RD0 = 1;
  1308     060C  1408               	bsf	8,0	;volatile
  1309     060D                     l1089:
  1310                           
  1311                           ;matrix_keypad.c: 33:     for (i = 100; i--; );
  1312     060D  3064               	movlw	100
  1313     060E  00F0               	movwf	scan_keypad@i
  1314     060F  3000               	movlw	0
  1315     0610  00F1               	movwf	scan_keypad@i+1
  1316     0611                     l1091:
  1317     0611  30FF               	movlw	255
  1318     0612  07F0               	addwf	scan_keypad@i,f
  1319     0613  1803               	skipnc
  1320     0614  0AF1               	incf	scan_keypad@i+1,f
  1321     0615  30FF               	movlw	255
  1322     0616  07F1               	addwf	scan_keypad@i+1,f
  1323     0617  0A70               	incf	scan_keypad@i,w
  1324     0618  1D03               	skipz
  1325     0619  2E1E               	goto	u431
  1326     061A  0A71               	incf	scan_keypad@i+1,w
  1327     061B  1D03               	btfss	3,2
  1328     061C  2E1E               	goto	u431
  1329     061D  2E1F               	goto	u430
  1330     061E                     u431:
  1331     061E  2E11               	goto	l1091
  1332     061F                     u430:
  1333     061F                     l60:
  1334                           
  1335                           ;matrix_keypad.c: 35:     if (RB0 == 0)
  1336     061F  1283               	bcf	3,5	;RP0=0, select bank0
  1337     0620  1303               	bcf	3,6	;RP1=0, select bank0
  1338     0621  1806               	btfsc	6,0	;volatile
  1339     0622  2E24               	goto	u441
  1340     0623  2E25               	goto	u440
  1341     0624                     u441:
  1342     0624  2E27               	goto	l61
  1343     0625                     u440:
  1344     0625                     l1093:
  1345                           
  1346                           ;matrix_keypad.c: 36:     {;matrix_keypad.c: 37:         return 1;
  1347     0625  3001               	movlw	1
  1348     0626  2EB2               	goto	l62
  1349     0627                     l61:	
  1350                           ;matrix_keypad.c: 39:     else if (RB1 == 0)
  1351                           
  1352     0627  1886               	btfsc	6,1	;volatile
  1353     0628  2E2A               	goto	u451
  1354     0629  2E2B               	goto	u450
  1355     062A                     u451:
  1356     062A  2E2D               	goto	l64
  1357     062B                     u450:
  1358     062B                     l1099:
  1359                           
  1360                           ;matrix_keypad.c: 40:     {;matrix_keypad.c: 41:         return 2;
  1361     062B  3002               	movlw	2
  1362     062C  2EB2               	goto	l62
  1363     062D                     l64:	
  1364                           ;matrix_keypad.c: 43:     else if (RB2 == 0)
  1365                           
  1366     062D  1906               	btfsc	6,2	;volatile
  1367     062E  2E30               	goto	u461
  1368     062F  2E31               	goto	u460
  1369     0630                     u461:
  1370     0630  2E33               	goto	l63
  1371     0631                     u460:
  1372     0631                     l1105:
  1373                           
  1374                           ;matrix_keypad.c: 44:     {;matrix_keypad.c: 45:         return 3;
  1375     0631  3003               	movlw	3
  1376     0632  2EB2               	goto	l62
  1377     0633                     l63:
  1378                           
  1379                           ;matrix_keypad.c: 48:     RD3 = 1;
  1380     0633  1588               	bsf	8,3	;volatile
  1381                           
  1382                           ;matrix_keypad.c: 49:     RD2 = 0;
  1383     0634  1108               	bcf	8,2	;volatile
  1384                           
  1385                           ;matrix_keypad.c: 50:     RD1 = 1;
  1386     0635  1488               	bsf	8,1	;volatile
  1387                           
  1388                           ;matrix_keypad.c: 51:     RD0 = 1;
  1389     0636  1408               	bsf	8,0	;volatile
  1390     0637                     l1109:
  1391                           
  1392                           ;matrix_keypad.c: 53:     for (i = 100; i--; );
  1393     0637  3064               	movlw	100
  1394     0638  00F0               	movwf	scan_keypad@i
  1395     0639  3000               	movlw	0
  1396     063A  00F1               	movwf	scan_keypad@i+1
  1397     063B                     l1111:
  1398     063B  30FF               	movlw	255
  1399     063C  07F0               	addwf	scan_keypad@i,f
  1400     063D  1803               	skipnc
  1401     063E  0AF1               	incf	scan_keypad@i+1,f
  1402     063F  30FF               	movlw	255
  1403     0640  07F1               	addwf	scan_keypad@i+1,f
  1404     0641  0A70               	incf	scan_keypad@i,w
  1405     0642  1D03               	skipz
  1406     0643  2E48               	goto	u471
  1407     0644  0A71               	incf	scan_keypad@i+1,w
  1408     0645  1D03               	btfss	3,2
  1409     0646  2E48               	goto	u471
  1410     0647  2E49               	goto	u470
  1411     0648                     u471:
  1412     0648  2E3B               	goto	l1111
  1413     0649                     u470:
  1414     0649                     l69:
  1415                           
  1416                           ;matrix_keypad.c: 55:     if (RB0 == 0)
  1417     0649  1283               	bcf	3,5	;RP0=0, select bank0
  1418     064A  1303               	bcf	3,6	;RP1=0, select bank0
  1419     064B  1806               	btfsc	6,0	;volatile
  1420     064C  2E4E               	goto	u481
  1421     064D  2E4F               	goto	u480
  1422     064E                     u481:
  1423     064E  2E51               	goto	l70
  1424     064F                     u480:
  1425     064F                     l1113:
  1426                           
  1427                           ;matrix_keypad.c: 56:     {;matrix_keypad.c: 57:         return 4;
  1428     064F  3004               	movlw	4
  1429     0650  2EB2               	goto	l62
  1430     0651                     l70:	
  1431                           ;matrix_keypad.c: 59:     else if (RB1 == 0)
  1432                           
  1433     0651  1886               	btfsc	6,1	;volatile
  1434     0652  2E54               	goto	u491
  1435     0653  2E55               	goto	u490
  1436     0654                     u491:
  1437     0654  2E57               	goto	l72
  1438     0655                     u490:
  1439     0655                     l1119:
  1440                           
  1441                           ;matrix_keypad.c: 60:     {;matrix_keypad.c: 61:         return 5;
  1442     0655  3005               	movlw	5
  1443     0656  2EB2               	goto	l62
  1444     0657                     l72:	
  1445                           ;matrix_keypad.c: 63:     else if (RB2 == 0)
  1446                           
  1447     0657  1906               	btfsc	6,2	;volatile
  1448     0658  2E5A               	goto	u501
  1449     0659  2E5B               	goto	u500
  1450     065A                     u501:
  1451     065A  2E5D               	goto	l71
  1452     065B                     u500:
  1453     065B                     l1125:
  1454                           
  1455                           ;matrix_keypad.c: 64:     {;matrix_keypad.c: 65:         return 6;
  1456     065B  3006               	movlw	6
  1457     065C  2EB2               	goto	l62
  1458     065D                     l71:
  1459                           
  1460                           ;matrix_keypad.c: 68:     RD3 = 1;
  1461     065D  1588               	bsf	8,3	;volatile
  1462                           
  1463                           ;matrix_keypad.c: 69:     RD2 = 1;
  1464     065E  1508               	bsf	8,2	;volatile
  1465                           
  1466                           ;matrix_keypad.c: 70:     RD1 = 0;
  1467     065F  1088               	bcf	8,1	;volatile
  1468                           
  1469                           ;matrix_keypad.c: 71:     RD0 = 1;
  1470     0660  1408               	bsf	8,0	;volatile
  1471     0661                     l1129:
  1472                           
  1473                           ;matrix_keypad.c: 73:     for (i = 100; i--; );
  1474     0661  3064               	movlw	100
  1475     0662  00F0               	movwf	scan_keypad@i
  1476     0663  3000               	movlw	0
  1477     0664  00F1               	movwf	scan_keypad@i+1
  1478     0665                     l1131:
  1479     0665  30FF               	movlw	255
  1480     0666  07F0               	addwf	scan_keypad@i,f
  1481     0667  1803               	skipnc
  1482     0668  0AF1               	incf	scan_keypad@i+1,f
  1483     0669  30FF               	movlw	255
  1484     066A  07F1               	addwf	scan_keypad@i+1,f
  1485     066B  0A70               	incf	scan_keypad@i,w
  1486     066C  1D03               	skipz
  1487     066D  2E72               	goto	u511
  1488     066E  0A71               	incf	scan_keypad@i+1,w
  1489     066F  1D03               	btfss	3,2
  1490     0670  2E72               	goto	u511
  1491     0671  2E73               	goto	u510
  1492     0672                     u511:
  1493     0672  2E65               	goto	l1131
  1494     0673                     u510:
  1495     0673                     l77:
  1496                           
  1497                           ;matrix_keypad.c: 75:     if (RB0 == 0)
  1498     0673  1283               	bcf	3,5	;RP0=0, select bank0
  1499     0674  1303               	bcf	3,6	;RP1=0, select bank0
  1500     0675  1806               	btfsc	6,0	;volatile
  1501     0676  2E78               	goto	u521
  1502     0677  2E79               	goto	u520
  1503     0678                     u521:
  1504     0678  2E7B               	goto	l78
  1505     0679                     u520:
  1506     0679                     l1133:
  1507                           
  1508                           ;matrix_keypad.c: 76:     {;matrix_keypad.c: 77:         return 7;
  1509     0679  3007               	movlw	7
  1510     067A  2EB2               	goto	l62
  1511     067B                     l78:	
  1512                           ;matrix_keypad.c: 79:     else if (RB1 == 0)
  1513                           
  1514     067B  1886               	btfsc	6,1	;volatile
  1515     067C  2E7E               	goto	u531
  1516     067D  2E7F               	goto	u530
  1517     067E                     u531:
  1518     067E  2E81               	goto	l80
  1519     067F                     u530:
  1520     067F                     l1139:
  1521                           
  1522                           ;matrix_keypad.c: 80:     {;matrix_keypad.c: 81:         return 8;
  1523     067F  3008               	movlw	8
  1524     0680  2EB2               	goto	l62
  1525     0681                     l80:	
  1526                           ;matrix_keypad.c: 83:     else if (RB2 == 0)
  1527                           
  1528     0681  1906               	btfsc	6,2	;volatile
  1529     0682  2E84               	goto	u541
  1530     0683  2E85               	goto	u540
  1531     0684                     u541:
  1532     0684  2E87               	goto	l79
  1533     0685                     u540:
  1534     0685                     l1145:
  1535                           
  1536                           ;matrix_keypad.c: 84:     {;matrix_keypad.c: 85:         return 9;
  1537     0685  3009               	movlw	9
  1538     0686  2EB2               	goto	l62
  1539     0687                     l79:
  1540                           
  1541                           ;matrix_keypad.c: 88:     RD3 = 1;
  1542     0687  1588               	bsf	8,3	;volatile
  1543                           
  1544                           ;matrix_keypad.c: 89:     RD2 = 1;
  1545     0688  1508               	bsf	8,2	;volatile
  1546                           
  1547                           ;matrix_keypad.c: 90:     RD1 = 1;
  1548     0689  1488               	bsf	8,1	;volatile
  1549                           
  1550                           ;matrix_keypad.c: 91:     RD0 = 0;
  1551     068A  1008               	bcf	8,0	;volatile
  1552     068B                     l1149:
  1553                           
  1554                           ;matrix_keypad.c: 93:     for (i = 100; i--; );
  1555     068B  3064               	movlw	100
  1556     068C  00F0               	movwf	scan_keypad@i
  1557     068D  3000               	movlw	0
  1558     068E  00F1               	movwf	scan_keypad@i+1
  1559     068F                     l1151:
  1560     068F  30FF               	movlw	255
  1561     0690  07F0               	addwf	scan_keypad@i,f
  1562     0691  1803               	skipnc
  1563     0692  0AF1               	incf	scan_keypad@i+1,f
  1564     0693  30FF               	movlw	255
  1565     0694  07F1               	addwf	scan_keypad@i+1,f
  1566     0695  0A70               	incf	scan_keypad@i,w
  1567     0696  1D03               	skipz
  1568     0697  2E9C               	goto	u551
  1569     0698  0A71               	incf	scan_keypad@i+1,w
  1570     0699  1D03               	btfss	3,2
  1571     069A  2E9C               	goto	u551
  1572     069B  2E9D               	goto	u550
  1573     069C                     u551:
  1574     069C  2E8F               	goto	l1151
  1575     069D                     u550:
  1576     069D                     l85:
  1577                           
  1578                           ;matrix_keypad.c: 95:     if (RB0 == 0)
  1579     069D  1283               	bcf	3,5	;RP0=0, select bank0
  1580     069E  1303               	bcf	3,6	;RP1=0, select bank0
  1581     069F  1806               	btfsc	6,0	;volatile
  1582     06A0  2EA2               	goto	u561
  1583     06A1  2EA3               	goto	u560
  1584     06A2                     u561:
  1585     06A2  2EA5               	goto	l86
  1586     06A3                     u560:
  1587     06A3                     l1153:
  1588                           
  1589                           ;matrix_keypad.c: 96:     {;matrix_keypad.c: 97:         return '*';
  1590     06A3  302A               	movlw	42
  1591     06A4  2EB2               	goto	l62
  1592     06A5                     l86:	
  1593                           ;matrix_keypad.c: 99:     else if (RB1 == 0)
  1594                           
  1595     06A5  1886               	btfsc	6,1	;volatile
  1596     06A6  2EA8               	goto	u571
  1597     06A7  2EA9               	goto	u570
  1598     06A8                     u571:
  1599     06A8  2EAB               	goto	l88
  1600     06A9                     u570:
  1601     06A9                     l1159:
  1602                           
  1603                           ;matrix_keypad.c: 100:     {;matrix_keypad.c: 101:         return 0;
  1604     06A9  3000               	movlw	0
  1605     06AA  2EB2               	goto	l62
  1606     06AB                     l88:	
  1607                           ;matrix_keypad.c: 103:     else if (RB2 == 0)
  1608                           
  1609     06AB  1906               	btfsc	6,2	;volatile
  1610     06AC  2EAE               	goto	u581
  1611     06AD  2EAF               	goto	u580
  1612     06AE                     u581:
  1613     06AE  2EB1               	goto	l1169
  1614     06AF                     u580:
  1615     06AF                     l1165:
  1616                           
  1617                           ;matrix_keypad.c: 104:     {;matrix_keypad.c: 105:         return '#';
  1618     06AF  3023               	movlw	35
  1619     06B0  2EB2               	goto	l62
  1620     06B1                     l1169:
  1621                           
  1622                           ;matrix_keypad.c: 108:     return 0xFF;
  1623     06B1  30FF               	movlw	255
  1624     06B2                     l62:
  1625     06B2  0008               	return
  1626     06B3                     __end_of_scan_keypad:
  1627                           
  1628                           	psect	text3
  1629     04B9                     __ptext3:	
  1630 ;; *************** function _init_config *****************
  1631 ;; Defined at:
  1632 ;;		line 44 in file "main.c"
  1633 ;; Parameters:    Size  Location     Type
  1634 ;;		None
  1635 ;; Auto vars:     Size  Location     Type
  1636 ;;		None
  1637 ;; Return value:  Size  Location     Type
  1638 ;;                  1    wreg      void 
  1639 ;; Registers used:
  1640 ;;		wreg, status,2, status,0, pclath, cstack
  1641 ;; Tracked objects:
  1642 ;;		On entry : 0/0
  1643 ;;		On exit  : 0/0
  1644 ;;		Unchanged: 0/0
  1645 ;; Data sizes:     COMMON   BANK0   BANK1   BANK3   BANK2
  1646 ;;      Params:         0       0       0       0       0
  1647 ;;      Locals:         0       0       0       0       0
  1648 ;;      Temps:          0       0       0       0       0
  1649 ;;      Totals:         0       0       0       0       0
  1650 ;;Total ram usage:        0 bytes
  1651 ;; Hardware stack levels used: 1
  1652 ;; Hardware stack levels required when called: 3
  1653 ;; This function calls:
  1654 ;;		_init_clcd
  1655 ;;		_init_matrix_keypad
  1656 ;; This function is called by:
  1657 ;;		_main
  1658 ;; This function uses a non-reentrant model
  1659 ;;
  1660                           
  1661     04B9                     _init_config:	
  1662                           ;psect for function _init_config
  1663                           
  1664     04B9                     l1229:	
  1665                           ;incstack = 0
  1666                           ; Regs used in _init_config: [wreg+status,2+status,0+pclath+cstack]
  1667                           
  1668                           
  1669                           ;main.c: 46:     char entered_password[8] = {};
  1670     04B9  120A  118A  24AE  120A  118A  	fcall	_init_clcd
  1671                           
  1672                           ;main.c: 47: 
  1673     04BE  120A  118A  24C4  120A  118A  	fcall	_init_matrix_keypad
  1674     04C3                     l121:
  1675     04C3  0008               	return
  1676     04C4                     __end_of_init_config:
  1677                           
  1678                           	psect	text4
  1679     04C4                     __ptext4:	
  1680 ;; *************** function _init_matrix_keypad *****************
  1681 ;; Defined at:
  1682 ;;		line 4 in file "matrix_keypad.c"
  1683 ;; Parameters:    Size  Location     Type
  1684 ;;		None
  1685 ;; Auto vars:     Size  Location     Type
  1686 ;;		None
  1687 ;; Return value:  Size  Location     Type
  1688 ;;                  1    wreg      void 
  1689 ;; Registers used:
  1690 ;;		wreg, status,2
  1691 ;; Tracked objects:
  1692 ;;		On entry : 0/0
  1693 ;;		On exit  : 0/0
  1694 ;;		Unchanged: 0/0
  1695 ;; Data sizes:     COMMON   BANK0   BANK1   BANK3   BANK2
  1696 ;;      Params:         0       0       0       0       0
  1697 ;;      Locals:         0       0       0       0       0
  1698 ;;      Temps:          0       0       0       0       0
  1699 ;;      Totals:         0       0       0       0       0
  1700 ;;Total ram usage:        0 bytes
  1701 ;; Hardware stack levels used: 1
  1702 ;; This function calls:
  1703 ;;		Nothing
  1704 ;; This function is called by:
  1705 ;;		_init_config
  1706 ;; This function uses a non-reentrant model
  1707 ;;
  1708                           
  1709     04C4                     _init_matrix_keypad:	
  1710                           ;psect for function _init_matrix_keypad
  1711                           
  1712     04C4                     l1075:	
  1713                           ;incstack = 0
  1714                           ; Regs used in _init_matrix_keypad: [wreg+status,2]
  1715                           
  1716                           
  1717                           ;matrix_keypad.c: 8:     TRISB = TRISB | 0x07;
  1718     04C4  1683               	bsf	3,5	;RP0=1, select bank1
  1719     04C5  1303               	bcf	3,6	;RP1=0, select bank1
  1720     04C6  0806               	movf	6,w	;volatile
  1721     04C7  3807               	iorlw	7
  1722     04C8  0086               	movwf	6	;volatile
  1723                           
  1724                           ;matrix_keypad.c: 12:     TRISD = TRISD & 0xF0;
  1725     04C9  0808               	movf	8,w	;volatile
  1726     04CA  39F0               	andlw	240
  1727     04CB  0088               	movwf	8	;volatile
  1728     04CC                     l1077:
  1729                           
  1730                           ;matrix_keypad.c: 15:     nRBPU = 0;
  1731     04CC  1381               	bcf	1,7	;volatile
  1732     04CD                     l1079:
  1733                           
  1734                           ;matrix_keypad.c: 18:     RD3 = 1;
  1735     04CD  1283               	bcf	3,5	;RP0=0, select bank0
  1736     04CE  1303               	bcf	3,6	;RP1=0, select bank0
  1737     04CF  1588               	bsf	8,3	;volatile
  1738     04D0                     l1081:
  1739                           
  1740                           ;matrix_keypad.c: 19:     RD2 = 1;
  1741     04D0  1508               	bsf	8,2	;volatile
  1742     04D1                     l1083:
  1743                           
  1744                           ;matrix_keypad.c: 20:     RD1 = 1;
  1745     04D1  1488               	bsf	8,1	;volatile
  1746     04D2                     l1085:
  1747                           
  1748                           ;matrix_keypad.c: 21:     RD0 = 1;
  1749     04D2  1408               	bsf	8,0	;volatile
  1750     04D3                     l55:
  1751     04D3  0008               	return
  1752     04D4                     __end_of_init_matrix_keypad:
  1753                           
  1754                           	psect	text5
  1755     04AE                     __ptext5:	
  1756 ;; *************** function _init_clcd *****************
  1757 ;; Defined at:
  1758 ;;		line 44 in file "clcd.c"
  1759 ;; Parameters:    Size  Location     Type
  1760 ;;		None
  1761 ;; Auto vars:     Size  Location     Type
  1762 ;;		None
  1763 ;; Return value:  Size  Location     Type
  1764 ;;                  1    wreg      void 
  1765 ;; Registers used:
  1766 ;;		wreg, status,2, status,0, pclath, cstack
  1767 ;; Tracked objects:
  1768 ;;		On entry : 0/0
  1769 ;;		On exit  : 0/0
  1770 ;;		Unchanged: 0/0
  1771 ;; Data sizes:     COMMON   BANK0   BANK1   BANK3   BANK2
  1772 ;;      Params:         0       0       0       0       0
  1773 ;;      Locals:         0       0       0       0       0
  1774 ;;      Temps:          0       0       0       0       0
  1775 ;;      Totals:         0       0       0       0       0
  1776 ;;Total ram usage:        0 bytes
  1777 ;; Hardware stack levels used: 1
  1778 ;; Hardware stack levels required when called: 2
  1779 ;; This function calls:
  1780 ;;		_init_display_controller
  1781 ;; This function is called by:
  1782 ;;		_init_config
  1783 ;; This function uses a non-reentrant model
  1784 ;;
  1785                           
  1786     04AE                     _init_clcd:	
  1787                           ;psect for function _init_clcd
  1788                           
  1789     04AE                     l1067:	
  1790                           ;incstack = 0
  1791                           ; Regs used in _init_clcd: [wreg+status,2+status,0+pclath+cstack]
  1792                           
  1793                           
  1794                           ;clcd.c: 47:     TRISD = 0x00;
  1795     04AE  1683               	bsf	3,5	;RP0=1, select bank1
  1796     04AF  1303               	bcf	3,6	;RP1=0, select bank1
  1797     04B0  0188               	clrf	8	;volatile
  1798     04B1                     l1069:
  1799                           
  1800                           ;clcd.c: 50:     TRISE2 = 0;
  1801     04B1  1109               	bcf	9,2	;volatile
  1802     04B2                     l1071:
  1803                           
  1804                           ;clcd.c: 51:     TRISE1 = 0;
  1805     04B2  1089               	bcf	9,1	;volatile
  1806     04B3                     l1073:
  1807                           
  1808                           ;clcd.c: 53:     init_display_controller();
  1809     04B3  120A  118A  25A4  120A  118A  	fcall	_init_display_controller
  1810     04B8                     l23:
  1811     04B8  0008               	return
  1812     04B9                     __end_of_init_clcd:
  1813                           
  1814                           	psect	text6
  1815     05A4                     __ptext6:	
  1816 ;; *************** function _init_display_controller *****************
  1817 ;; Defined at:
  1818 ;;		line 21 in file "clcd.c"
  1819 ;; Parameters:    Size  Location     Type
  1820 ;;		None
  1821 ;; Auto vars:     Size  Location     Type
  1822 ;;		None
  1823 ;; Return value:  Size  Location     Type
  1824 ;;                  1    wreg      void 
  1825 ;; Registers used:
  1826 ;;		wreg, status,2, status,0, pclath, cstack
  1827 ;; Tracked objects:
  1828 ;;		On entry : 0/0
  1829 ;;		On exit  : 0/0
  1830 ;;		Unchanged: 0/0
  1831 ;; Data sizes:     COMMON   BANK0   BANK1   BANK3   BANK2
  1832 ;;      Params:         0       0       0       0       0
  1833 ;;      Locals:         0       0       0       0       0
  1834 ;;      Temps:          2       0       0       0       0
  1835 ;;      Totals:         2       0       0       0       0
  1836 ;;Total ram usage:        2 bytes
  1837 ;; Hardware stack levels used: 1
  1838 ;; Hardware stack levels required when called: 1
  1839 ;; This function calls:
  1840 ;;		_clcd_write
  1841 ;; This function is called by:
  1842 ;;		_init_clcd
  1843 ;; This function uses a non-reentrant model
  1844 ;;
  1845                           
  1846     05A4                     _init_display_controller:	
  1847                           ;psect for function _init_display_controller
  1848                           
  1849     05A4                     l1043:	
  1850                           ;incstack = 0
  1851                           ; Regs used in _init_display_controller: [wreg+status,2+status,0+pclath+cstack]
  1852                           
  1853                           
  1854                           ;clcd.c: 24:     _delay((unsigned long)((30)*(20000000/4000.0)));
  1855     05A4  30C3               	movlw	195
  1856     05A5  00F5               	movwf	??_init_display_controller+1
  1857     05A6  30CD               	movlw	205
  1858     05A7  00F4               	movwf	??_init_display_controller
  1859     05A8                     u797:
  1860     05A8  0BF4               	decfsz	??_init_display_controller,f
  1861     05A9  2DA8               	goto	u797
  1862     05AA  0BF5               	decfsz	??_init_display_controller+1,f
  1863     05AB  2DA8               	goto	u797
  1864     05AC                     l1045:
  1865                           
  1866                           ;clcd.c: 27:     clcd_write(0x33, 0);
  1867     05AC  01F0               	clrf	clcd_write@mode
  1868     05AD  3033               	movlw	51
  1869     05AE  120A  118A  256E  120A  118A  	fcall	_clcd_write
  1870     05B3                     l1047:
  1871                           
  1872                           ;clcd.c: 28:     _delay((unsigned long)((4100)*(20000000/4000000.0)));
  1873     05B3  301B               	movlw	27
  1874     05B4  00F5               	movwf	??_init_display_controller+1
  1875     05B5  309E               	movlw	158
  1876     05B6  00F4               	movwf	??_init_display_controller
  1877     05B7                     u807:
  1878     05B7  0BF4               	decfsz	??_init_display_controller,f
  1879     05B8  2DB7               	goto	u807
  1880     05B9  0BF5               	decfsz	??_init_display_controller+1,f
  1881     05BA  2DB7               	goto	u807
  1882     05BB  0000               	nop
  1883                           
  1884                           ;clcd.c: 29:     clcd_write(0x33, 0);
  1885     05BC  01F0               	clrf	clcd_write@mode
  1886     05BD  3033               	movlw	51
  1887     05BE  120A  118A  256E  120A  118A  	fcall	_clcd_write
  1888     05C3                     l1049:
  1889                           
  1890                           ;clcd.c: 30:     _delay((unsigned long)((100)*(20000000/4000000.0)));
  1891     05C3  30A6               	movlw	166
  1892     05C4  00F4               	movwf	??_init_display_controller
  1893     05C5                     u817:
  1894     05C5  0BF4               	decfsz	??_init_display_controller,f
  1895     05C6  2DC5               	goto	u817
  1896     05C7  0000               	nop
  1897     05C8                     l1051:
  1898                           
  1899                           ;clcd.c: 31:     clcd_write(0x33, 0);
  1900     05C8  01F0               	clrf	clcd_write@mode
  1901     05C9  3033               	movlw	51
  1902     05CA  120A  118A  256E  120A  118A  	fcall	_clcd_write
  1903     05CF                     l1053:
  1904                           
  1905                           ;clcd.c: 32:     _delay((unsigned long)((1)*(20000000/4000000.0)));
  1906     05CF  2DD0               	nop2	;2 cycle nop
  1907     05D0  2DD1               	nop2	;2 cycle nop
  1908     05D1  0000               	nop
  1909     05D2                     l1055:
  1910                           
  1911                           ;clcd.c: 34:     clcd_write(0x02, 0);
  1912     05D2  01F0               	clrf	clcd_write@mode
  1913     05D3  3002               	movlw	2
  1914     05D4  120A  118A  256E  120A  118A  	fcall	_clcd_write
  1915     05D9                     l1057:
  1916                           
  1917                           ;clcd.c: 35:     _delay((unsigned long)((100)*(20000000/4000000.0)));
  1918     05D9  30A6               	movlw	166
  1919     05DA  00F4               	movwf	??_init_display_controller
  1920     05DB                     u827:
  1921     05DB  0BF4               	decfsz	??_init_display_controller,f
  1922     05DC  2DDB               	goto	u827
  1923     05DD  0000               	nop
  1924                           
  1925                           ;clcd.c: 36:     clcd_write(0x28, 0);
  1926     05DE  01F0               	clrf	clcd_write@mode
  1927     05DF  3028               	movlw	40
  1928     05E0  120A  118A  256E  120A  118A  	fcall	_clcd_write
  1929     05E5                     l1059:
  1930                           
  1931                           ;clcd.c: 37:     _delay((unsigned long)((100)*(20000000/4000000.0)));
  1932     05E5  30A6               	movlw	166
  1933     05E6  00F4               	movwf	??_init_display_controller
  1934     05E7                     u837:
  1935     05E7  0BF4               	decfsz	??_init_display_controller,f
  1936     05E8  2DE7               	goto	u837
  1937     05E9  0000               	nop
  1938     05EA                     l1061:
  1939                           
  1940                           ;clcd.c: 38:     clcd_write(0x01, 0);
  1941     05EA  01F0               	clrf	clcd_write@mode
  1942     05EB  3001               	movlw	1
  1943     05EC  120A  118A  256E  120A  118A  	fcall	_clcd_write
  1944                           
  1945                           ;clcd.c: 39:     _delay((unsigned long)((500)*(20000000/4000000.0)));
  1946     05F1  3004               	movlw	4
  1947     05F2  00F5               	movwf	??_init_display_controller+1
  1948     05F3  303D               	movlw	61
  1949     05F4  00F4               	movwf	??_init_display_controller
  1950     05F5                     u847:
  1951     05F5  0BF4               	decfsz	??_init_display_controller,f
  1952     05F6  2DF5               	goto	u847
  1953     05F7  0BF5               	decfsz	??_init_display_controller+1,f
  1954     05F8  2DF5               	goto	u847
  1955     05F9  2DFA               	nop2
  1956     05FA                     l1063:
  1957                           
  1958                           ;clcd.c: 40:     clcd_write(0x0C, 0);
  1959     05FA  01F0               	clrf	clcd_write@mode
  1960     05FB  300C               	movlw	12
  1961     05FC  120A  118A  256E  120A  118A  	fcall	_clcd_write
  1962     0601                     l1065:
  1963                           
  1964                           ;clcd.c: 41:     _delay((unsigned long)((100)*(20000000/4000000.0)));
  1965     0601  30A6               	movlw	166
  1966     0602  00F4               	movwf	??_init_display_controller
  1967     0603                     u857:
  1968     0603  0BF4               	decfsz	??_init_display_controller,f
  1969     0604  2E03               	goto	u857
  1970     0605  0000               	nop
  1971     0606                     l20:
  1972     0606  0008               	return
  1973     0607                     __end_of_init_display_controller:
  1974                           
  1975                           	psect	text7
  1976     0543                     __ptext7:	
  1977 ;; *************** function _compare *****************
  1978 ;; Defined at:
  1979 ;;		line 17 in file "main.c"
  1980 ;; Parameters:    Size  Location     Type
  1981 ;;  str1            1    wreg     PTR unsigned char 
  1982 ;;		 -> main@original_password(9), 
  1983 ;;  str2            1    0[COMMON] PTR unsigned char 
  1984 ;;		 -> main@entered_password(8), 
  1985 ;; Auto vars:     Size  Location     Type
  1986 ;;  str1            1    5[COMMON] PTR unsigned char 
  1987 ;;		 -> main@original_password(9), 
  1988 ;;  flag            2    3[COMMON] unsigned int 
  1989 ;; Return value:  Size  Location     Type
  1990 ;;                  2    0[COMMON] unsigned int 
  1991 ;; Registers used:
  1992 ;;		wreg, fsr0l, fsr0h, status,2, status,0
  1993 ;; Tracked objects:
  1994 ;;		On entry : 0/0
  1995 ;;		On exit  : 0/0
  1996 ;;		Unchanged: 0/0
  1997 ;; Data sizes:     COMMON   BANK0   BANK1   BANK3   BANK2
  1998 ;;      Params:         2       0       0       0       0
  1999 ;;      Locals:         3       0       0       0       0
  2000 ;;      Temps:          1       0       0       0       0
  2001 ;;      Totals:         6       0       0       0       0
  2002 ;;Total ram usage:        6 bytes
  2003 ;; Hardware stack levels used: 1
  2004 ;; This function calls:
  2005 ;;		Nothing
  2006 ;; This function is called by:
  2007 ;;		_main
  2008 ;; This function uses a non-reentrant model
  2009 ;;
  2010                           
  2011     0543                     _compare:	
  2012                           ;psect for function _compare
  2013                           
  2014                           
  2015                           ;incstack = 0
  2016                           ; Regs used in _compare: [wreg-fsr0h+status,2+status,0]
  2017                           ;compare@str1 stored from wreg
  2018     0543  00F5               	movwf	compare@str1
  2019     0544                     l1213:
  2020                           
  2021                           ;main.c: 17:         str2++;;main.c: 18:     };main.c: 19: ;main.c: 21: }
  2022     0544  2D61               	goto	l1223
  2023     0545                     l1215:
  2024                           
  2025                           ;main.c: 22: ;main.c: 23: 
  2026     0545  0870               	movf	compare@str2,w
  2027     0546  0084               	movwf	4
  2028     0547  0800               	movf	0,w
  2029     0548  00F2               	movwf	??_compare
  2030     0549  0875               	movf	compare@str1,w
  2031     054A  0084               	movwf	4
  2032     054B  0800               	movf	0,w
  2033     054C  0672               	xorwf	??_compare,w
  2034     054D  1D03               	skipz
  2035     054E  2D50               	goto	u641
  2036     054F  2D51               	goto	u640
  2037     0550                     u641:
  2038     0550  2D56               	goto	l1219
  2039     0551                     u640:
  2040     0551                     l1217:
  2041                           
  2042                           ;main.c: 24: ;main.c: 25: 
  2043     0551  3001               	movlw	1
  2044     0552  00F3               	movwf	compare@flag
  2045     0553  3000               	movlw	0
  2046     0554  00F4               	movwf	compare@flag+1
  2047                           
  2048                           ;main.c: 26: 
  2049     0555  2D59               	goto	l1221
  2050     0556                     l1219:
  2051                           
  2052                           ;main.c: 28: {;main.c: 29:     init_clcd();
  2053     0556  01F3               	clrf	compare@flag
  2054     0557  01F4               	clrf	compare@flag+1
  2055                           
  2056                           ;main.c: 30:     init_matrix_keypad();
  2057     0558  2D69               	goto	l1225
  2058     0559                     l1221:
  2059                           
  2060                           ;main.c: 33: void main(void)
  2061     0559  3001               	movlw	1
  2062     055A  00F2               	movwf	??_compare
  2063     055B  0872               	movf	??_compare,w
  2064     055C  07F5               	addwf	compare@str1,f
  2065                           
  2066                           ;main.c: 34: {
  2067     055D  3001               	movlw	1
  2068     055E  00F2               	movwf	??_compare
  2069     055F  0872               	movf	??_compare,w
  2070     0560  07F0               	addwf	compare@str2,f
  2071     0561                     l1223:
  2072                           
  2073                           ;main.c: 21: }
  2074     0561  0875               	movf	compare@str1,w
  2075     0562  0084               	movwf	4
  2076     0563  1383               	bcf	3,7	;select IRP bank0
  2077     0564  0800               	movf	0,w
  2078     0565  1D03               	btfss	3,2
  2079     0566  2D68               	goto	u651
  2080     0567  2D69               	goto	u650
  2081     0568                     u651:
  2082     0568  2D45               	goto	l1215
  2083     0569                     u650:
  2084     0569                     l1225:
  2085                           
  2086                           ;main.c: 37:     unsigned char i = 0;
  2087     0569  0874               	movf	compare@flag+1,w
  2088     056A  00F1               	movwf	?_compare+1
  2089     056B  0873               	movf	compare@flag,w
  2090     056C  00F0               	movwf	?_compare
  2091     056D                     l118:
  2092     056D  0008               	return
  2093     056E                     __end_of_compare:
  2094                           
  2095                           	psect	text8
  2096     04D4                     __ptext8:	
  2097 ;; *************** function _clcd_putch *****************
  2098 ;; Defined at:
  2099 ;;		line 56 in file "clcd.c"
  2100 ;; Parameters:    Size  Location     Type
  2101 ;;  data            1    wreg     const unsigned char 
  2102 ;;  addr            1    4[COMMON] unsigned char 
  2103 ;; Auto vars:     Size  Location     Type
  2104 ;;  data            1    5[COMMON] const unsigned char 
  2105 ;; Return value:  Size  Location     Type
  2106 ;;                  1    wreg      void 
  2107 ;; Registers used:
  2108 ;;		wreg, status,2, status,0, pclath, cstack
  2109 ;; Tracked objects:
  2110 ;;		On entry : 0/0
  2111 ;;		On exit  : 0/0
  2112 ;;		Unchanged: 0/0
  2113 ;; Data sizes:     COMMON   BANK0   BANK1   BANK3   BANK2
  2114 ;;      Params:         1       0       0       0       0
  2115 ;;      Locals:         1       0       0       0       0
  2116 ;;      Temps:          0       0       0       0       0
  2117 ;;      Totals:         2       0       0       0       0
  2118 ;;Total ram usage:        2 bytes
  2119 ;; Hardware stack levels used: 1
  2120 ;; Hardware stack levels required when called: 1
  2121 ;; This function calls:
  2122 ;;		_clcd_write
  2123 ;; This function is called by:
  2124 ;;		_main
  2125 ;; This function uses a non-reentrant model
  2126 ;;
  2127                           
  2128     04D4                     _clcd_putch:	
  2129                           ;psect for function _clcd_putch
  2130                           
  2131                           
  2132                           ;incstack = 0
  2133                           ; Regs used in _clcd_putch: [wreg+status,2+status,0+pclath+cstack]
  2134                           ;clcd_putch@data stored from wreg
  2135     04D4  00F5               	movwf	clcd_putch@data
  2136     04D5                     l1173:
  2137                           
  2138                           ;clcd.c: 56: void clcd_putch(const char data, unsigned char addr);clcd.c: 57: {;clcd.c: 
      +                          58:     clcd_write(addr, 0);
  2139     04D5  01F0               	clrf	clcd_write@mode
  2140     04D6  0874               	movf	clcd_putch@addr,w
  2141     04D7  120A  118A  256E  120A  118A  	fcall	_clcd_write
  2142                           
  2143                           ;clcd.c: 59:     clcd_write(data, 1);
  2144     04DC  01F0               	clrf	clcd_write@mode
  2145     04DD  0AF0               	incf	clcd_write@mode,f
  2146     04DE  0875               	movf	clcd_putch@data,w
  2147     04DF  120A  118A  256E  120A  118A  	fcall	_clcd_write
  2148     04E4                     l26:
  2149     04E4  0008               	return
  2150     04E5                     __end_of_clcd_putch:
  2151                           
  2152                           	psect	text9
  2153     051B                     __ptext9:	
  2154 ;; *************** function _clcd_print *****************
  2155 ;; Defined at:
  2156 ;;		line 62 in file "clcd.c"
  2157 ;; Parameters:    Size  Location     Type
  2158 ;;  str             1    wreg     PTR const unsigned char 
  2159 ;;		 -> STR_8(17), STR_7(17), STR_6(16), STR_5(17), 
  2160 ;;		 -> STR_4(17), STR_3(16), STR_2(17), STR_1(17), 
  2161 ;;  addr            1    4[COMMON] unsigned char 
  2162 ;; Auto vars:     Size  Location     Type
  2163 ;;  str             1    6[COMMON] PTR const unsigned char 
  2164 ;;		 -> STR_8(17), STR_7(17), STR_6(16), STR_5(17), 
  2165 ;;		 -> STR_4(17), STR_3(16), STR_2(17), STR_1(17), 
  2166 ;; Return value:  Size  Location     Type
  2167 ;;                  1    wreg      void 
  2168 ;; Registers used:
  2169 ;;		wreg, fsr0l, fsr0h, status,2, status,0, pclath, cstack
  2170 ;; Tracked objects:
  2171 ;;		On entry : 0/0
  2172 ;;		On exit  : 0/0
  2173 ;;		Unchanged: 0/0
  2174 ;; Data sizes:     COMMON   BANK0   BANK1   BANK3   BANK2
  2175 ;;      Params:         1       0       0       0       0
  2176 ;;      Locals:         1       0       0       0       0
  2177 ;;      Temps:          1       0       0       0       0
  2178 ;;      Totals:         3       0       0       0       0
  2179 ;;Total ram usage:        3 bytes
  2180 ;; Hardware stack levels used: 1
  2181 ;; Hardware stack levels required when called: 1
  2182 ;; This function calls:
  2183 ;;		_clcd_write
  2184 ;; This function is called by:
  2185 ;;		_main
  2186 ;; This function uses a non-reentrant model
  2187 ;;
  2188                           
  2189     051B                     _clcd_print:	
  2190                           ;psect for function _clcd_print
  2191                           
  2192                           
  2193                           ;incstack = 0
  2194                           ; Regs used in _clcd_print: [wreg-fsr0h+status,2+status,0+pclath+cstack]
  2195                           ;clcd_print@str stored from wreg
  2196     051B  00F6               	movwf	clcd_print@str
  2197     051C                     l1175:
  2198                           
  2199                           ;clcd.c: 62: void clcd_print(const char *str, unsigned char addr);clcd.c: 63: {;clcd.c: 
      +                          64:     clcd_write(addr, 0);
  2200     051C  01F0               	clrf	clcd_write@mode
  2201     051D  0874               	movf	clcd_print@addr,w
  2202     051E  120A  118A  256E  120A  118A  	fcall	_clcd_write
  2203                           
  2204                           ;clcd.c: 66:     while (*str != '\0')
  2205     0523  2D36               	goto	l1181
  2206     0524                     l1177:
  2207                           
  2208                           ;clcd.c: 67:     {;clcd.c: 68:         clcd_write(*str, 1);
  2209     0524  01F0               	clrf	clcd_write@mode
  2210     0525  0AF0               	incf	clcd_write@mode,f
  2211     0526  0876               	movf	clcd_print@str,w
  2212     0527  0084               	movwf	4
  2213     0528  120A  118A  2003  120A  118A  	fcall	stringdir
  2214     052D  120A  118A  256E  120A  118A  	fcall	_clcd_write
  2215     0532                     l1179:
  2216                           
  2217                           ;clcd.c: 69:         str++;
  2218     0532  3001               	movlw	1
  2219     0533  00F5               	movwf	??_clcd_print
  2220     0534  0875               	movf	??_clcd_print,w
  2221     0535  07F6               	addwf	clcd_print@str,f
  2222     0536                     l1181:
  2223                           
  2224                           ;clcd.c: 66:     while (*str != '\0')
  2225     0536  0876               	movf	clcd_print@str,w
  2226     0537  0084               	movwf	4
  2227     0538  120A  118A  2003  120A  118A  	fcall	stringdir
  2228     053D  3A00               	xorlw	0
  2229     053E  1D03               	skipz
  2230     053F  2D41               	goto	u591
  2231     0540  2D42               	goto	u590
  2232     0541                     u591:
  2233     0541  2D24               	goto	l1177
  2234     0542                     u590:
  2235     0542                     l32:
  2236     0542  0008               	return
  2237     0543                     __end_of_clcd_print:
  2238                           
  2239                           	psect	text10
  2240     056E                     __ptext10:	
  2241 ;; *************** function _clcd_write *****************
  2242 ;; Defined at:
  2243 ;;		line 4 in file "clcd.c"
  2244 ;; Parameters:    Size  Location     Type
  2245 ;;  byte            1    wreg     unsigned char 
  2246 ;;  mode            1    0[COMMON] unsigned char 
  2247 ;; Auto vars:     Size  Location     Type
  2248 ;;  byte            1    3[COMMON] unsigned char 
  2249 ;; Return value:  Size  Location     Type
  2250 ;;                  1    wreg      void 
  2251 ;; Registers used:
  2252 ;;		wreg, status,2, status,0
  2253 ;; Tracked objects:
  2254 ;;		On entry : 0/0
  2255 ;;		On exit  : 0/0
  2256 ;;		Unchanged: 0/0
  2257 ;; Data sizes:     COMMON   BANK0   BANK1   BANK3   BANK2
  2258 ;;      Params:         1       0       0       0       0
  2259 ;;      Locals:         1       0       0       0       0
  2260 ;;      Temps:          2       0       0       0       0
  2261 ;;      Totals:         4       0       0       0       0
  2262 ;;Total ram usage:        4 bytes
  2263 ;; Hardware stack levels used: 1
  2264 ;; This function calls:
  2265 ;;		Nothing
  2266 ;; This function is called by:
  2267 ;;		_init_display_controller
  2268 ;;		_clcd_putch
  2269 ;;		_clcd_print
  2270 ;; This function uses a non-reentrant model
  2271 ;;
  2272                           
  2273     056E                     _clcd_write:	
  2274                           ;psect for function _clcd_write
  2275                           
  2276                           
  2277                           ;incstack = 0
  2278                           ; Regs used in _clcd_write: [wreg+status,2+status,0]
  2279                           ;clcd_write@byte stored from wreg
  2280     056E  00F3               	movwf	clcd_write@byte
  2281     056F                     l1023:
  2282                           
  2283                           ;clcd.c: 4: static void clcd_write(unsigned char byte, unsigned char mode);clcd.c: 5: {;
      +                          clcd.c: 6:     RE2 = mode;
  2284     056F  1870               	btfsc	clcd_write@mode,0
  2285     0570  2D72               	goto	u401
  2286     0571  2D76               	goto	u400
  2287     0572                     u401:
  2288     0572  1283               	bcf	3,5	;RP0=0, select bank0
  2289     0573  1303               	bcf	3,6	;RP1=0, select bank0
  2290     0574  1509               	bsf	9,2	;volatile
  2291     0575  2D79               	goto	u414
  2292     0576                     u400:
  2293     0576  1283               	bcf	3,5	;RP0=0, select bank0
  2294     0577  1303               	bcf	3,6	;RP1=0, select bank0
  2295     0578  1109               	bcf	9,2	;volatile
  2296     0579                     u414:
  2297     0579                     l1025:
  2298                           
  2299                           ;clcd.c: 8:     PORTD = byte & 0xF0;
  2300     0579  0873               	movf	clcd_write@byte,w
  2301     057A  39F0               	andlw	240
  2302     057B  0088               	movwf	8	;volatile
  2303     057C                     l1027:
  2304                           
  2305                           ;clcd.c: 9:     RE1 = 1;
  2306     057C  1489               	bsf	9,1	;volatile
  2307     057D                     l1029:
  2308                           
  2309                           ;clcd.c: 10:     _delay((unsigned long)((100)*(20000000/4000000.0)));
  2310     057D  30A6               	movlw	166
  2311     057E  00F1               	movwf	??_clcd_write
  2312     057F                     u867:
  2313     057F  0BF1               	decfsz	??_clcd_write,f
  2314     0580  2D7F               	goto	u867
  2315     0581  0000               	nop
  2316     0582                     l1031:
  2317                           
  2318                           ;clcd.c: 11:     RE1 = 0;
  2319     0582  1283               	bcf	3,5	;RP0=0, select bank0
  2320     0583  1303               	bcf	3,6	;RP1=0, select bank0
  2321     0584  1089               	bcf	9,1	;volatile
  2322     0585                     l1033:
  2323                           
  2324                           ;clcd.c: 13:     PORTD = (byte & 0x0F) << 4;
  2325     0585  0873               	movf	clcd_write@byte,w
  2326     0586  390F               	andlw	15
  2327     0587  00F1               	movwf	??_clcd_write
  2328     0588  3003               	movlw	3
  2329     0589                     u425:
  2330     0589  1003               	clrc
  2331     058A  0DF1               	rlf	??_clcd_write,f
  2332     058B  3EFF               	addlw	-1
  2333     058C  1D03               	skipz
  2334     058D  2D89               	goto	u425
  2335     058E  1003               	clrc
  2336     058F  0D71               	rlf	??_clcd_write,w
  2337     0590  0088               	movwf	8	;volatile
  2338     0591                     l1035:
  2339                           
  2340                           ;clcd.c: 14:     RE1 = 1;
  2341     0591  1489               	bsf	9,1	;volatile
  2342     0592                     l1037:
  2343                           
  2344                           ;clcd.c: 15:     _delay((unsigned long)((100)*(20000000/4000000.0)));
  2345     0592  30A6               	movlw	166
  2346     0593  00F1               	movwf	??_clcd_write
  2347     0594                     u877:
  2348     0594  0BF1               	decfsz	??_clcd_write,f
  2349     0595  2D94               	goto	u877
  2350     0596  0000               	nop
  2351     0597                     l1039:
  2352                           
  2353                           ;clcd.c: 16:     RE1 = 0;
  2354     0597  1283               	bcf	3,5	;RP0=0, select bank0
  2355     0598  1303               	bcf	3,6	;RP1=0, select bank0
  2356     0599  1089               	bcf	9,1	;volatile
  2357     059A                     l1041:
  2358                           
  2359                           ;clcd.c: 18:     _delay((unsigned long)((4100)*(20000000/4000000.0)));
  2360     059A  301B               	movlw	27
  2361     059B  00F2               	movwf	??_clcd_write+1
  2362     059C  309E               	movlw	158
  2363     059D  00F1               	movwf	??_clcd_write
  2364     059E                     u887:
  2365     059E  0BF1               	decfsz	??_clcd_write,f
  2366     059F  2D9E               	goto	u887
  2367     05A0  0BF2               	decfsz	??_clcd_write+1,f
  2368     05A1  2D9E               	goto	u887
  2369     05A2  0000               	nop
  2370     05A3                     l17:
  2371     05A3  0008               	return
  2372     05A4                     __end_of_clcd_write:
  2373     007E                     btemp	set	126	;btemp
  2374     007E                     wtemp0	set	126
  2375                           
  2376                           	psect	config
  2377                           
  2378                           ;Config register CONFIG @ 0x2007
  2379                           ;	Oscillator Selection bits
  2380                           ;	FOSC = 0x3, unprogrammed default
  2381                           ;	Watchdog Timer Enable bit
  2382                           ;	WDTE = OFF, WDT disabled
  2383                           ;	Power-up Timer Enable bit
  2384                           ;	PWRTE = 0x1, unprogrammed default
  2385                           ;	Brown-out Reset Enable bit
  2386                           ;	BOREN = 0x1, unprogrammed default
  2387                           ;	Low-Voltage (Single-Supply) In-Circuit Serial Programming Enable bit
  2388                           ;	LVP = 0x1, unprogrammed default
  2389                           ;	Data EEPROM Memory Code Protection bit
  2390                           ;	CPD = 0x1, unprogrammed default
  2391                           ;	Flash Program Memory Write Enable bits
  2392                           ;	WRT = 0x3, unprogrammed default
  2393                           ;	In-Circuit Debugger Mode bit
  2394                           ;	DEBUG = 0x1, unprogrammed default
  2395                           ;	Flash Program Memory Code Protection bit
  2396                           ;	CP = 0x1, unprogrammed default
  2397     2007                     	org	8199
  2398     2007  3FFB               	dw	16379

Data Sizes:
    Strings     134
    Constant    0
    Data        10
    BSS         8
    Persistent  0
    Stack       0

Auto Spaces:
    Space          Size  Autos    Used
    COMMON           14     11      12
    BANK0            80     29      46
    BANK1            80      0       0
    BANK3            96      0       0
    BANK2            96      0       0

Pointer List with Targets:

    compare@str2	PTR unsigned char  size(1) Largest target is 8
		 -> main@entered_password(BANK0[8]), 

    compare@str1	PTR unsigned char  size(1) Largest target is 9
		 -> main@original_password(BANK0[9]), 

    clcd_print@str	PTR const unsigned char  size(1) Largest target is 17
		 -> STR_8(CODE[17]), STR_7(CODE[17]), STR_6(CODE[16]), STR_5(CODE[17]), 
		 -> STR_4(CODE[17]), STR_3(CODE[16]), STR_2(CODE[17]), STR_1(CODE[17]), 


Critical Paths under _main in COMMON

    _main->_clcd_print
    _read_matrix_keypad->_scan_keypad
    _init_clcd->_init_display_controller
    _init_display_controller->_clcd_write
    _clcd_putch->_clcd_write
    _clcd_print->_clcd_write

Critical Paths under _main in BANK0

    None.

Critical Paths under _main in BANK1

    None.

Critical Paths under _main in BANK3

    None.

Critical Paths under _main in BANK2

    None.

Call Graph Tables:

 ---------------------------------------------------------------------------------
 (Depth) Function   	        Calls       Base Space   Used Autos Params    Refs
 ---------------------------------------------------------------------------------
 (0) _main                                                33    33      0    4882
                                              7 COMMON     4     4      0
                                              0 BANK0     29    29      0
                         _clcd_print
                         _clcd_putch
                            _compare
                        _init_config
                 _read_matrix_keypad
 ---------------------------------------------------------------------------------
 (1) _read_matrix_keypad                                   2     2      0     203
                                              2 COMMON     2     2      0
                        _scan_keypad
 ---------------------------------------------------------------------------------
 (2) _scan_keypad                                          2     2      0      92
                                              0 COMMON     2     2      0
 ---------------------------------------------------------------------------------
 (1) _init_config                                          0     0      0     902
                          _init_clcd
                 _init_matrix_keypad
 ---------------------------------------------------------------------------------
 (2) _init_matrix_keypad                                   0     0      0       0
 ---------------------------------------------------------------------------------
 (2) _init_clcd                                            0     0      0     902
            _init_display_controller
 ---------------------------------------------------------------------------------
 (3) _init_display_controller                              2     2      0     902
                                              4 COMMON     2     2      0
                         _clcd_write
 ---------------------------------------------------------------------------------
 (1) _compare                                              6     4      2     201
                                              0 COMMON     6     4      2
 ---------------------------------------------------------------------------------
 (1) _clcd_putch                                           2     1      1    1250
                                              4 COMMON     2     1      1
                         _clcd_write
 ---------------------------------------------------------------------------------
 (1) _clcd_print                                           3     2      1    1841
                                              4 COMMON     3     2      1
                         _clcd_write
 ---------------------------------------------------------------------------------
 (4) _clcd_write                                           4     3      1     902
                                              0 COMMON     4     3      1
 ---------------------------------------------------------------------------------
 Estimated maximum stack depth 4
 ---------------------------------------------------------------------------------

 Call Graph Graphs:

 _main (ROOT)
   _clcd_print
     _clcd_write
   _clcd_putch
     _clcd_write
   _compare
   _init_config
     _init_clcd
       _init_display_controller
         _clcd_write
     _init_matrix_keypad
   _read_matrix_keypad
     _scan_keypad

 Address spaces:
Name               Size   Autos  Total    Cost      Usage
BANK3               60      0       0       9        0.0%
BITBANK3            60      0       0       8        0.0%
SFR3                 0      0       0       4        0.0%
BITSFR3              0      0       0       4        0.0%
BANK2               60      0       0      11        0.0%
BITBANK2            60      0       0      10        0.0%
SFR2                 0      0       0       5        0.0%
BITSFR2              0      0       0       5        0.0%
BANK1               50      0       0       7        0.0%
BITBANK1            50      0       0       6        0.0%
SFR1                 0      0       0       2        0.0%
BITSFR1              0      0       0       2        0.0%
BANK0               50     1D      2E       5       57.5%
BITBANK0            50      0       0       4        0.0%
SFR0                 0      0       0       1        0.0%
BITSFR0              0      0       0       1        0.0%
COMMON               E      B       C       1       85.7%
BITCOMMON            E      0       0       0        0.0%
CODE                 0      0       0       0        0.0%
DATA                 0      0      3A      12        0.0%
ABS                  0      0      3A       3        0.0%
NULL                 0      0       0       0        0.0%
STACK                0      0       0       2        0.0%
EEDATA             100      0       0       0        0.0%


Microchip Technology PIC Macro Assembler V2.40 build 20220703182018 
Symbol Table                                                                                   Tue Sep 27 18:04:38 2022

                              pc 0002                   clcd_print@addr 0074                               l20 0606  
                             l23 04B8                               l32 0542                               l17 05A3  
                             l26 04E4                               l60 061F                               l61 0627  
                             l70 0651                               l62 06B2                               l55 04D3  
                             l71 065D                               l63 0633                               l80 0681  
                             l72 0657                               l64 062D                               l85 069D  
                             l77 0673                               l69 0649                               l86 06A5  
                             l78 067B                               l79 0687                               l88 06AB  
                             l96 051A                               fsr 0004               _init_matrix_keypad 04C4  
                            l121 04C3                              l118 056D                              l146 07DC  
                            _RB0 0030                              _RB1 0031                              _RB2 0032  
                            _RD0 0040                              _RD1 0041                              _RD2 0042  
                            _RE1 0049                              _RD3 0043                              _RE2 004A  
                            u400 0576                              u401 0572                              u500 065B  
                            u501 065A                              u414 0579                              u510 0673  
                            u430 061F                              u511 0672                              u431 061E  
                            u520 0679                              u440 0625                              u600 0504  
                            u425 0589                              u521 0678                              u441 0624  
                            u601 0503                              u530 067F                              u450 062B  
                            u610 050B                              u531 067E                              u451 062A  
                            u611 050A                              u540 0685                              u460 0631  
                            u620 0510                              u700 0700                              u541 0684  
                            u461 0630                              u621 050F                              u701 06FF  
                            u550 069D                              u470 0649                              u630 0517  
                            u710 0710                              u551 069C                              u471 0648  
                            u631 0516                              u711 070F                              u640 0551  
                            u560 06A3                              u480 064F                              u720 0728  
                            u641 0550                              u561 06A2                              u481 064E  
                            u721 0727                              u650 0569                              u570 06A9  
                            u490 0655                              u730 0731                              u651 0568  
                            u571 06A8                              u491 0654                              u731 072F  
                            u580 06AF                              u740 0732                              u660 06C8  
                            u581 06AE                              u590 0542                              u750 0746  
                            u670 06D9                              u591 0541                              u807 05B7  
                            u751 0745                              u760 0762                              u680 06EA  
                            u817 05C5                              u761 0761                              u681 06E9  
                            u770 0786                              u690 06F0                              u827 05DB  
                            u771 0785                              u691 06EF                              u780 07C1  
                            u837 05E7                              u781 07C0                              u847 05F5  
                            u857 0603                              u867 057F                              u877 0594  
                            u797 05A8                              u887 059E                   clcd_putch@addr 0074  
                            fsr0 0004                   clcd_putch@data 0075                              indf 0000  
            ?_init_matrix_keypad 0070                             l1031 0582                             l1023 056F  
                           l1111 063B                             l1041 059A                             l1033 0585  
                           l1025 0579                             l1113 064F                             l1105 0631  
                           l1035 0591                             l1027 057C                             l1051 05C8  
                           l1043 05A4                             l1131 0665                             l1037 0592  
                           l1029 057D                             l1221 0559                             l1213 0544  
                           l1061 05EA                             l1053 05CF                             l1045 05AC  
                           l1133 0679                             l1125 065B                             l1109 0637  
                           l1205 0512                             l1301 07C4                             l1039 0597  
                           l1215 0545                             l1223 0561                             l1063 05FA  
                           l1055 05D2                             l1047 05B3                             l1071 04B2  
                           l1151 068F                             l1119 0655                             l1207 0517  
                           l1303 07CB                             l1231 06B3                             l1225 0569  
                           l1217 0551                             l1065 0601                             l1057 05D9  
                           l1049 05C3                             l1073 04B3                             l1081 04D0  
                           l1153 06A3                             l1145 0685                             l1129 0661  
                           l1209 0519                             l1241 06C0                             l1233 06B6  
                           l1219 0556                             l1059 05E5                             l1067 04AE  
                           l1083 04D1                             l1075 04C4                             l1139 067F  
                           l1091 0611                             l1251 06F0                             l1243 06D5  
                           l1235 06BA                             l1181 0536                             l1173 04D5  
                           l1069 04B1                             l1085 04D2                             l1077 04CC  
                           l1229 04B9                             l1165 06AF                             l1149 068B  
                           l1093 0625                             l1261 0719                             l1253 06F8  
                           l1245 06DD                             l1237 06BC                             l1175 051C  
                           l1079 04CD                             l1159 06A9                             l1087 0607  
                           l1183 04F9                             l1271 0746                             l1263 0728  
                           l1255 0700                             l1247 06E2                             l1239 06BE  
                           l1177 0524                             l1169 06B1                             l1089 060D  
                           l1193 0506                             l1185 04FF                             l1281 0768  
                           l1273 074C                             l1265 072A                             l1257 070A  
                           l1249 06EA                             l1179 0532                             l1099 062B  
                           l1195 050B                             l1187 0504                             l1291 0797  
                           l1275 0755                             l1267 0738                             l1259 0710  
                           l1197 0510                             l1293 079F                             l1277 075C  
                           l1269 0741                             l1285 0772                             l1295 07AA  
                           l1287 0780                             l1279 0762                             l1289 0786  
                           l1297 07B2                             l1299 07C1                             STR_1 004D  
                           STR_2 0009                             STR_3 007F                             STR_4 005E  
                           STR_5 003C                             STR_6 006F                             STR_7 002B  
                           STR_8 001A                      main@attempt 0037                      compare@flag 0073  
                    compare@str1 0075                      compare@str2 0070                             _main 06B3  
                           btemp 007E                             start 0000             ??_init_matrix_keypad 0070  
                 clcd_write@byte 0073                   clcd_write@mode 0070                            ?_main 0070  
                   ?_init_config 0070                            _PORTD 0008                            _TRISB 0086  
                          _TRISD 0088             main@entered_password 0029                            _nRBPU 040F  
                __end_of_compare 056E               _read_matrix_keypad 04F8                            main@i 003C  
                          pclath 000A              ?_read_matrix_keypad 0070                            status 0003  
                          wtemp0 007E                     ?_scan_keypad 0070                  __initialization 07E0  
                   __end_of_main 07E0             ??_read_matrix_keypad 0072                           ??_main 0077  
          main@original_password 0020                           _TRISE1 0449                           _TRISE2 044A  
        _init_display_controller 05A4                        ??_compare 0072                     __pdataCOMMON 007B  
        __end_of__initialization 07FC                   __pcstackCOMMON 0070                     __pidataBANK0 04A5  
                     __pbssBANK0 0046        ??_init_display_controller 0074                       _clcd_print 051B  
                     _clcd_putch 04D4                       _clcd_write 056E                       __pmaintext 06B3  
                     __stringtab 0003                          __ptext1 04F8                          __ptext2 0607  
                        __ptext3 04B9                          __ptext4 04C4                          __ptext5 04AE  
                        __ptext6 05A4                          __ptext7 0543                          __ptext8 04D4  
                        __ptext9 051B                          _compare 0543  __end_of_init_display_controller 0607  
              __end_of_init_clcd 04B9                          main@key 0039             end_of_initialization 07FC  
                    ?_clcd_print 0074                      ?_clcd_putch 0074                      ?_clcd_write 0070  
                  clcd_print@str 0076                    __pidataCOMMON 04A4              start_initialization 07E0  
                   scan_keypad@i 0070           read_matrix_keypad@mode 0072           read_matrix_keypad@once 007B  
                     init_fetch0 04E5                      __pdataBANK0 003D                    ??_init_config 0076  
                      ___latbits 0002                    __pcstackBANK0 0020                    ??_scan_keypad 0070  
                      __pstrings 0003                         ?_compare 0070                        _init_clcd 04AE  
            __end_of_init_config 04C4         ?_init_display_controller 0070                     ??_clcd_print 0075  
                   ??_clcd_putch 0075       __end_of_init_matrix_keypad 04D4                     ??_clcd_write 0071  
            __end_of_scan_keypad 06B3                      __stringbase 0008                        main@delay 0035  
                      main@match 0031               __end_of_clcd_print 0543               __end_of_clcd_putch 04E5  
             __end_of_clcd_write 05A4                  main@cursor_flag 003A                       ?_init_clcd 0070  
          read_matrix_keypad@key 0073       __end_of_read_matrix_keypad 051B               __end_of__stringtab 0009  
                    _init_config 04B9                         __ptext10 056E                      _scan_keypad 0607  
                       main@F873 003D                         main@F875 0046                         main@wait 0033  
                       init_ram0 04E9                      ??_init_clcd 0076                        stringcode 0003  
                       stringdir 0003                         stringtab 0003  
